
kernel.elf:     file format elf32-littleriscv


Disassembly of section .text:

80000000 <_start>:
80000000:	00014197          	auipc	gp,0x14
80000004:	06c18193          	addi	gp,gp,108 # 8001406c <__global_pointer>
80000008:	00014117          	auipc	sp,0x14
8000000c:	86410113          	addi	sp,sp,-1948 # 8001386c <_end>
80000010:	02c000ef          	jal	8000003c <_trap_setup>
80000014:	00000093          	li	ra,0
80000018:	4a90e06f          	j	8000ecc0 <nulluser>

8000001c <__syscall>:
8000001c:	00050893          	mv	a7,a0
80000020:	00058513          	mv	a0,a1
80000024:	00060593          	mv	a1,a2
80000028:	00068613          	mv	a2,a3
8000002c:	00070693          	mv	a3,a4
80000030:	00078713          	mv	a4,a5
80000034:	00000073          	ecall
80000038:	00008067          	ret

8000003c <_trap_setup>:
8000003c:	00000297          	auipc	t0,0x0
80000040:	01028293          	addi	t0,t0,16 # 8000004c <_trap>
80000044:	30529073          	csrw	mtvec,t0
80000048:	00008067          	ret

8000004c <_trap>:
8000004c:	f7410113          	addi	sp,sp,-140
80000050:	09f12423          	sw	t6,136(sp)
80000054:	09e12223          	sw	t5,132(sp)
80000058:	09d12023          	sw	t4,128(sp)
8000005c:	07c12e23          	sw	t3,124(sp)
80000060:	07b12c23          	sw	s11,120(sp)
80000064:	07a12a23          	sw	s10,116(sp)
80000068:	07912823          	sw	s9,112(sp)
8000006c:	07812623          	sw	s8,108(sp)
80000070:	07712423          	sw	s7,104(sp)
80000074:	07612223          	sw	s6,100(sp)
80000078:	07512023          	sw	s5,96(sp)
8000007c:	05412e23          	sw	s4,92(sp)
80000080:	05312c23          	sw	s3,88(sp)
80000084:	05212a23          	sw	s2,84(sp)
80000088:	05112823          	sw	a7,80(sp)
8000008c:	05012623          	sw	a6,76(sp)
80000090:	04f12423          	sw	a5,72(sp)
80000094:	04e12223          	sw	a4,68(sp)
80000098:	04d12023          	sw	a3,64(sp)
8000009c:	02c12e23          	sw	a2,60(sp)
800000a0:	02b12c23          	sw	a1,56(sp)
800000a4:	02a12a23          	sw	a0,52(sp)
800000a8:	02912823          	sw	s1,48(sp)
800000ac:	02812623          	sw	s0,44(sp)
800000b0:	02712423          	sw	t2,40(sp)
800000b4:	02612223          	sw	t1,36(sp)
800000b8:	02512023          	sw	t0,32(sp)
800000bc:	00412e23          	sw	tp,28(sp)
800000c0:	00312c23          	sw	gp,24(sp)
800000c4:	00212a23          	sw	sp,20(sp)
800000c8:	00112823          	sw	ra,16(sp)
800000cc:	34202473          	csrr	s0,mcause
800000d0:	00812423          	sw	s0,8(sp)
800000d4:	30002473          	csrr	s0,mstatus
800000d8:	00812223          	sw	s0,4(sp)
800000dc:	34102473          	csrr	s0,mepc
800000e0:	00812023          	sw	s0,0(sp)
800000e4:	00010513          	mv	a0,sp
800000e8:	3f10f0ef          	jal	8000fcd8 <exceptionHandler>

800000ec <exception_return>:
800000ec:	00050113          	mv	sp,a0
800000f0:	00012403          	lw	s0,0(sp)
800000f4:	34141073          	csrw	mepc,s0
800000f8:	00412403          	lw	s0,4(sp)
800000fc:	30041073          	csrw	mstatus,s0
80000100:	01012083          	lw	ra,16(sp)
80000104:	01812183          	lw	gp,24(sp)
80000108:	01c12203          	lw	tp,28(sp)
8000010c:	02012283          	lw	t0,32(sp)
80000110:	02412303          	lw	t1,36(sp)
80000114:	02812383          	lw	t2,40(sp)
80000118:	02c12403          	lw	s0,44(sp)
8000011c:	03012483          	lw	s1,48(sp)
80000120:	03412503          	lw	a0,52(sp)
80000124:	03812583          	lw	a1,56(sp)
80000128:	03c12603          	lw	a2,60(sp)
8000012c:	04012683          	lw	a3,64(sp)
80000130:	04412703          	lw	a4,68(sp)
80000134:	04812783          	lw	a5,72(sp)
80000138:	04c12803          	lw	a6,76(sp)
8000013c:	05012883          	lw	a7,80(sp)
80000140:	05412903          	lw	s2,84(sp)
80000144:	05812983          	lw	s3,88(sp)
80000148:	05c12a03          	lw	s4,92(sp)
8000014c:	06012a83          	lw	s5,96(sp)
80000150:	06412b03          	lw	s6,100(sp)
80000154:	06812b83          	lw	s7,104(sp)
80000158:	06c12c03          	lw	s8,108(sp)
8000015c:	07012c83          	lw	s9,112(sp)
80000160:	07412d03          	lw	s10,116(sp)
80000164:	07812d83          	lw	s11,120(sp)
80000168:	07c12e03          	lw	t3,124(sp)
8000016c:	08012e83          	lw	t4,128(sp)
80000170:	08412f03          	lw	t5,132(sp)
80000174:	08812f83          	lw	t6,136(sp)
80000178:	08c10113          	addi	sp,sp,140
8000017c:	30200073          	mret

80000180 <enable>:
80000180:	30046573          	csrrsi	a0,mstatus,8
80000184:	00008067          	ret

80000188 <disable>:
80000188:	30047573          	csrrci	a0,mstatus,8
8000018c:	00008067          	ret

80000190 <restore>:
80000190:	30051073          	csrw	mstatus,a0
80000194:	00008067          	ret

80000198 <enable_interrupt_status>:
80000198:	00800293          	li	t0,8
8000019c:	3002a073          	csrs	mstatus,t0
800001a0:	00008067          	ret

800001a4 <enable_interrupt>:
800001a4:	00100293          	li	t0,1
800001a8:	00a292b3          	sll	t0,t0,a0
800001ac:	3042a073          	csrs	mie,t0
800001b0:	00008067          	ret

800001b4 <disable_interrupt_status>:
800001b4:	00800293          	li	t0,8
800001b8:	3002b073          	csrc	mstatus,t0
800001bc:	00008067          	ret

800001c0 <disable_interrupt>:
800001c0:	00100293          	li	t0,1
800001c4:	00a292b3          	sll	t0,t0,a0
800001c8:	3042b073          	csrc	mie,t0
800001cc:	00008067          	ret

800001d0 <clear_interrupts>:
800001d0:	00000293          	li	t0,0
800001d4:	34429073          	csrw	mip,t0
800001d8:	00008067          	ret

800001dc <soft_trap>:
800001dc:	00800293          	li	t0,8
800001e0:	3442a073          	csrs	mip,t0
800001e4:	00008067          	ret

800001e8 <ctxsw>:
800001e8:	fa410113          	addi	sp,sp,-92
800001ec:	05112c23          	sw	a7,88(sp)
800001f0:	05012a23          	sw	a6,84(sp)
800001f4:	04f12823          	sw	a5,80(sp)
800001f8:	04e12623          	sw	a4,76(sp)
800001fc:	04d12423          	sw	a3,72(sp)
80000200:	04c12223          	sw	a2,68(sp)
80000204:	04b12023          	sw	a1,64(sp)
80000208:	02a12e23          	sw	a0,60(sp)
8000020c:	03b12c23          	sw	s11,56(sp)
80000210:	03a12a23          	sw	s10,52(sp)
80000214:	03912823          	sw	s9,48(sp)
80000218:	03812623          	sw	s8,44(sp)
8000021c:	03712423          	sw	s7,40(sp)
80000220:	03612223          	sw	s6,36(sp)
80000224:	03512023          	sw	s5,32(sp)
80000228:	01412e23          	sw	s4,28(sp)
8000022c:	01312c23          	sw	s3,24(sp)
80000230:	01212a23          	sw	s2,20(sp)
80000234:	00912823          	sw	s1,16(sp)
80000238:	00812623          	sw	s0,12(sp)
8000023c:	300023f3          	csrr	t2,mstatus
80000240:	00712423          	sw	t2,8(sp)
80000244:	00112223          	sw	ra,4(sp)
80000248:	00112023          	sw	ra,0(sp)
8000024c:	00252023          	sw	sp,0(a0)
80000250:	0005a103          	lw	sp,0(a1)
80000254:	00012283          	lw	t0,0(sp)
80000258:	00412083          	lw	ra,4(sp)
8000025c:	00812383          	lw	t2,8(sp)
80000260:	00c12403          	lw	s0,12(sp)
80000264:	01012483          	lw	s1,16(sp)
80000268:	01412903          	lw	s2,20(sp)
8000026c:	01812983          	lw	s3,24(sp)
80000270:	01c12a03          	lw	s4,28(sp)
80000274:	02012a83          	lw	s5,32(sp)
80000278:	02412b03          	lw	s6,36(sp)
8000027c:	02812b83          	lw	s7,40(sp)
80000280:	02c12c03          	lw	s8,44(sp)
80000284:	03012c83          	lw	s9,48(sp)
80000288:	03412d03          	lw	s10,52(sp)
8000028c:	03812d83          	lw	s11,56(sp)
80000290:	03c12503          	lw	a0,60(sp)
80000294:	04012583          	lw	a1,64(sp)
80000298:	04412603          	lw	a2,68(sp)
8000029c:	04812683          	lw	a3,72(sp)
800002a0:	04c12703          	lw	a4,76(sp)
800002a4:	05012783          	lw	a5,80(sp)
800002a8:	05412803          	lw	a6,84(sp)
800002ac:	05812883          	lw	a7,88(sp)
800002b0:	05c10113          	addi	sp,sp,92
800002b4:	0083fe13          	andi	t3,t2,8
800002b8:	000e0a63          	beqz	t3,800002cc <end_ctxsw>
800002bc:	ff73f393          	andi	t2,t2,-9
800002c0:	300393f3          	csrrw	t2,mstatus,t2
800002c4:	34129373          	csrrw	t1,mepc,t0
800002c8:	30200073          	mret

800002cc <end_ctxsw>:
800002cc:	00028367          	jalr	t1,t0

800002d0 <_prtl10>:
800002d0:	00a00793          	li	a5,10
800002d4:	02f567b3          	rem	a5,a0,a5
800002d8:	ff010113          	addi	sp,sp,-16
800002dc:	00010223          	sb	zero,4(sp)
800002e0:	0ff7f793          	zext.b	a5,a5
800002e4:	08054c63          	bltz	a0,8000037c <_prtl10+0xac>
800002e8:	03078793          	addi	a5,a5,48
800002ec:	0ff7f793          	zext.b	a5,a5
800002f0:	00a00713          	li	a4,10
800002f4:	02e54533          	div	a0,a0,a4
800002f8:	00410613          	addi	a2,sp,4
800002fc:	00f102a3          	sb	a5,5(sp)
80000300:	00d10813          	addi	a6,sp,13
80000304:	00060793          	mv	a5,a2
80000308:	00a00693          	li	a3,10
8000030c:	00178793          	addi	a5,a5,1
80000310:	02d56733          	rem	a4,a0,a3
80000314:	03070713          	addi	a4,a4,48
80000318:	00e780a3          	sb	a4,1(a5)
8000031c:	02d54533          	div	a0,a0,a3
80000320:	ff0796e3          	bne	a5,a6,8000030c <_prtl10+0x3c>
80000324:	00e14703          	lbu	a4,14(sp)
80000328:	03000793          	li	a5,48
8000032c:	06f71a63          	bne	a4,a5,800003a0 <_prtl10+0xd0>
80000330:	00060713          	mv	a4,a2
80000334:	03000513          	li	a0,48
80000338:	00974683          	lbu	a3,9(a4)
8000033c:	00070793          	mv	a5,a4
80000340:	fff70713          	addi	a4,a4,-1
80000344:	fea68ae3          	beq	a3,a0,80000338 <_prtl10+0x68>
80000348:	40c787b3          	sub	a5,a5,a2
8000034c:	00978793          	addi	a5,a5,9
80000350:	04079063          	bnez	a5,80000390 <_prtl10+0xc0>
80000354:	00100793          	li	a5,1
80000358:	00f607b3          	add	a5,a2,a5
8000035c:	0007c683          	lbu	a3,0(a5)
80000360:	00078713          	mv	a4,a5
80000364:	00158593          	addi	a1,a1,1
80000368:	fed58fa3          	sb	a3,-1(a1)
8000036c:	fff78793          	addi	a5,a5,-1
80000370:	fee616e3          	bne	a2,a4,8000035c <_prtl10+0x8c>
80000374:	01010113          	addi	sp,sp,16
80000378:	00008067          	ret
8000037c:	03000713          	li	a4,48
80000380:	40f707b3          	sub	a5,a4,a5
80000384:	0ff7f793          	zext.b	a5,a5
80000388:	ff600713          	li	a4,-10
8000038c:	f69ff06f          	j	800002f4 <_prtl10+0x24>
80000390:	fff00713          	li	a4,-1
80000394:	fce792e3          	bne	a5,a4,80000358 <_prtl10+0x88>
80000398:	01010113          	addi	sp,sp,16
8000039c:	00008067          	ret
800003a0:	00a00793          	li	a5,10
800003a4:	fb5ff06f          	j	80000358 <_prtl10+0x88>

800003a8 <_prtl8>:
800003a8:	ff010113          	addi	sp,sp,-16
800003ac:	00010223          	sb	zero,4(sp)
800003b0:	00410613          	addi	a2,sp,4
800003b4:	00510793          	addi	a5,sp,5
800003b8:	01010693          	addi	a3,sp,16
800003bc:	00757713          	andi	a4,a0,7
800003c0:	03070713          	addi	a4,a4,48
800003c4:	00e78023          	sb	a4,0(a5)
800003c8:	00178793          	addi	a5,a5,1
800003cc:	40355513          	srai	a0,a0,0x3
800003d0:	fed796e3          	bne	a5,a3,800003bc <_prtl8+0x14>
800003d4:	00f14783          	lbu	a5,15(sp)
800003d8:	03000713          	li	a4,48
800003dc:	0337f793          	andi	a5,a5,51
800003e0:	00f107a3          	sb	a5,15(sp)
800003e4:	06e79063          	bne	a5,a4,80000444 <_prtl8+0x9c>
800003e8:	00060713          	mv	a4,a2
800003ec:	03000513          	li	a0,48
800003f0:	00a74683          	lbu	a3,10(a4)
800003f4:	00070793          	mv	a5,a4
800003f8:	fff70713          	addi	a4,a4,-1
800003fc:	fea68ae3          	beq	a3,a0,800003f0 <_prtl8+0x48>
80000400:	40c787b3          	sub	a5,a5,a2
80000404:	00a78793          	addi	a5,a5,10
80000408:	02079663          	bnez	a5,80000434 <_prtl8+0x8c>
8000040c:	00100793          	li	a5,1
80000410:	00f607b3          	add	a5,a2,a5
80000414:	0007c683          	lbu	a3,0(a5)
80000418:	00078713          	mv	a4,a5
8000041c:	00158593          	addi	a1,a1,1
80000420:	fed58fa3          	sb	a3,-1(a1)
80000424:	fff78793          	addi	a5,a5,-1
80000428:	fee616e3          	bne	a2,a4,80000414 <_prtl8+0x6c>
8000042c:	01010113          	addi	sp,sp,16
80000430:	00008067          	ret
80000434:	fff00713          	li	a4,-1
80000438:	fce79ce3          	bne	a5,a4,80000410 <_prtl8+0x68>
8000043c:	01010113          	addi	sp,sp,16
80000440:	00008067          	ret
80000444:	00b00793          	li	a5,11
80000448:	fc9ff06f          	j	80000410 <_prtl8+0x68>

8000044c <_prtl16>:
8000044c:	ff010113          	addi	sp,sp,-16
80000450:	00410693          	addi	a3,sp,4
80000454:	80010637          	lui	a2,0x80010
80000458:	00010223          	sb	zero,4(sp)
8000045c:	00c10813          	addi	a6,sp,12
80000460:	00068793          	mv	a5,a3
80000464:	ef060613          	addi	a2,a2,-272 # 8000fef0 <_ctype_+0x84>
80000468:	00f57713          	andi	a4,a0,15
8000046c:	00e60733          	add	a4,a2,a4
80000470:	00074703          	lbu	a4,0(a4)
80000474:	00178793          	addi	a5,a5,1
80000478:	40455513          	srai	a0,a0,0x4
8000047c:	00e78023          	sb	a4,0(a5)
80000480:	ff0794e3          	bne	a5,a6,80000468 <_prtl16+0x1c>
80000484:	00c14703          	lbu	a4,12(sp)
80000488:	03000793          	li	a5,48
8000048c:	04f71863          	bne	a4,a5,800004dc <_prtl16+0x90>
80000490:	00800793          	li	a5,8
80000494:	03000613          	li	a2,48
80000498:	0076c703          	lbu	a4,7(a3)
8000049c:	fff78793          	addi	a5,a5,-1
800004a0:	fff68693          	addi	a3,a3,-1
800004a4:	fec70ae3          	beq	a4,a2,80000498 <_prtl16+0x4c>
800004a8:	00079463          	bnez	a5,800004b0 <_prtl16+0x64>
800004ac:	00100793          	li	a5,1
800004b0:	00178693          	addi	a3,a5,1
800004b4:	00410713          	addi	a4,sp,4
800004b8:	00f707b3          	add	a5,a4,a5
800004bc:	00d586b3          	add	a3,a1,a3
800004c0:	0007c703          	lbu	a4,0(a5)
800004c4:	00158593          	addi	a1,a1,1
800004c8:	fff78793          	addi	a5,a5,-1
800004cc:	fee58fa3          	sb	a4,-1(a1)
800004d0:	feb698e3          	bne	a3,a1,800004c0 <_prtl16+0x74>
800004d4:	01010113          	addi	sp,sp,16
800004d8:	00008067          	ret
800004dc:	00800793          	li	a5,8
800004e0:	fd1ff06f          	j	800004b0 <_prtl16+0x64>

800004e4 <_prtX16>:
800004e4:	ff010113          	addi	sp,sp,-16
800004e8:	00410693          	addi	a3,sp,4
800004ec:	80010637          	lui	a2,0x80010
800004f0:	00010223          	sb	zero,4(sp)
800004f4:	00c10813          	addi	a6,sp,12
800004f8:	00068793          	mv	a5,a3
800004fc:	f0460613          	addi	a2,a2,-252 # 8000ff04 <_ctype_+0x98>
80000500:	00f57713          	andi	a4,a0,15
80000504:	00e60733          	add	a4,a2,a4
80000508:	00074703          	lbu	a4,0(a4)
8000050c:	00178793          	addi	a5,a5,1
80000510:	40455513          	srai	a0,a0,0x4
80000514:	00e78023          	sb	a4,0(a5)
80000518:	ff0794e3          	bne	a5,a6,80000500 <_prtX16+0x1c>
8000051c:	00c14703          	lbu	a4,12(sp)
80000520:	03000793          	li	a5,48
80000524:	04f71863          	bne	a4,a5,80000574 <_prtX16+0x90>
80000528:	00800793          	li	a5,8
8000052c:	03000613          	li	a2,48
80000530:	0076c703          	lbu	a4,7(a3)
80000534:	fff78793          	addi	a5,a5,-1
80000538:	fff68693          	addi	a3,a3,-1
8000053c:	fec70ae3          	beq	a4,a2,80000530 <_prtX16+0x4c>
80000540:	00079463          	bnez	a5,80000548 <_prtX16+0x64>
80000544:	00100793          	li	a5,1
80000548:	00178693          	addi	a3,a5,1
8000054c:	00410713          	addi	a4,sp,4
80000550:	00f707b3          	add	a5,a4,a5
80000554:	00d586b3          	add	a3,a1,a3
80000558:	0007c703          	lbu	a4,0(a5)
8000055c:	00158593          	addi	a1,a1,1
80000560:	fff78793          	addi	a5,a5,-1
80000564:	fee58fa3          	sb	a4,-1(a1)
80000568:	feb698e3          	bne	a3,a1,80000558 <_prtX16+0x74>
8000056c:	01010113          	addi	sp,sp,16
80000570:	00008067          	ret
80000574:	00800793          	li	a5,8
80000578:	fd1ff06f          	j	80000548 <_prtX16+0x64>

8000057c <_prtl2>:
8000057c:	fd010113          	addi	sp,sp,-48
80000580:	00010623          	sb	zero,12(sp)
80000584:	00c10613          	addi	a2,sp,12
80000588:	00d10793          	addi	a5,sp,13
8000058c:	02d10693          	addi	a3,sp,45
80000590:	00157713          	andi	a4,a0,1
80000594:	03070713          	addi	a4,a4,48
80000598:	00e78023          	sb	a4,0(a5)
8000059c:	00178793          	addi	a5,a5,1
800005a0:	40155513          	srai	a0,a0,0x1
800005a4:	fed796e3          	bne	a5,a3,80000590 <_prtl2+0x14>
800005a8:	02c14703          	lbu	a4,44(sp)
800005ac:	03000793          	li	a5,48
800005b0:	06f71063          	bne	a4,a5,80000610 <_prtl2+0x94>
800005b4:	00060713          	mv	a4,a2
800005b8:	03000513          	li	a0,48
800005bc:	01f74683          	lbu	a3,31(a4)
800005c0:	00070793          	mv	a5,a4
800005c4:	fff70713          	addi	a4,a4,-1
800005c8:	fea68ae3          	beq	a3,a0,800005bc <_prtl2+0x40>
800005cc:	40c787b3          	sub	a5,a5,a2
800005d0:	01f78793          	addi	a5,a5,31
800005d4:	02079663          	bnez	a5,80000600 <_prtl2+0x84>
800005d8:	00100793          	li	a5,1
800005dc:	00f607b3          	add	a5,a2,a5
800005e0:	0007c683          	lbu	a3,0(a5)
800005e4:	00078713          	mv	a4,a5
800005e8:	00158593          	addi	a1,a1,1
800005ec:	fed58fa3          	sb	a3,-1(a1)
800005f0:	fff78793          	addi	a5,a5,-1
800005f4:	fee616e3          	bne	a2,a4,800005e0 <_prtl2+0x64>
800005f8:	03010113          	addi	sp,sp,48
800005fc:	00008067          	ret
80000600:	fff00713          	li	a4,-1
80000604:	fce79ce3          	bne	a5,a4,800005dc <_prtl2+0x60>
80000608:	03010113          	addi	sp,sp,48
8000060c:	00008067          	ret
80000610:	02000793          	li	a5,32
80000614:	fc9ff06f          	j	800005dc <_prtl2+0x60>

80000618 <_doprnt>:
80000618:	fb010113          	addi	sp,sp,-80
8000061c:	04912223          	sw	s1,68(sp)
80000620:	05212023          	sw	s2,64(sp)
80000624:	03412c23          	sw	s4,56(sp)
80000628:	03712623          	sw	s7,44(sp)
8000062c:	04112623          	sw	ra,76(sp)
80000630:	04812423          	sw	s0,72(sp)
80000634:	03512a23          	sw	s5,52(sp)
80000638:	00050b93          	mv	s7,a0
8000063c:	00058a13          	mv	s4,a1
80000640:	00060493          	mv	s1,a2
80000644:	02500913          	li	s2,37
80000648:	000bc503          	lbu	a0,0(s7)
8000064c:	001b8413          	addi	s0,s7,1
80000650:	05250263          	beq	a0,s2,80000694 <_doprnt+0x7c>
80000654:	00050e63          	beqz	a0,80000670 <_doprnt+0x58>
80000658:	000480e7          	jalr	s1
8000065c:	00044503          	lbu	a0,0(s0)
80000660:	00140793          	addi	a5,s0,1
80000664:	03250c63          	beq	a0,s2,8000069c <_doprnt+0x84>
80000668:	00078413          	mv	s0,a5
8000066c:	fe0516e3          	bnez	a0,80000658 <_doprnt+0x40>
80000670:	04c12083          	lw	ra,76(sp)
80000674:	04812403          	lw	s0,72(sp)
80000678:	04412483          	lw	s1,68(sp)
8000067c:	04012903          	lw	s2,64(sp)
80000680:	03812a03          	lw	s4,56(sp)
80000684:	03412a83          	lw	s5,52(sp)
80000688:	02c12b83          	lw	s7,44(sp)
8000068c:	05010113          	addi	sp,sp,80
80000690:	00008067          	ret
80000694:	00040793          	mv	a5,s0
80000698:	000b8413          	mv	s0,s7
8000069c:	0007ca83          	lbu	s5,0(a5)
800006a0:	132a8063          	beq	s5,s2,800007c0 <_doprnt+0x1a8>
800006a4:	03312e23          	sw	s3,60(sp)
800006a8:	03612823          	sw	s6,48(sp)
800006ac:	03a12023          	sw	s10,32(sp)
800006b0:	02d00713          	li	a4,45
800006b4:	000a8513          	mv	a0,s5
800006b8:	0eea8863          	beq	s5,a4,800007a8 <_doprnt+0x190>
800006bc:	03000713          	li	a4,48
800006c0:	02000b13          	li	s6,32
800006c4:	0ce50663          	beq	a0,a4,80000790 <_doprnt+0x178>
800006c8:	02a00713          	li	a4,42
800006cc:	04e51c63          	bne	a0,a4,80000724 <_doprnt+0x10c>
800006d0:	000a2983          	lw	s3,0(s4)
800006d4:	0017c503          	lbu	a0,1(a5)
800006d8:	004a0a13          	addi	s4,s4,4
800006dc:	00178793          	addi	a5,a5,1
800006e0:	02e00713          	li	a4,46
800006e4:	00000d13          	li	s10,0
800006e8:	08e50463          	beq	a0,a4,80000770 <_doprnt+0x158>
800006ec:	00178b93          	addi	s7,a5,1
800006f0:	44050863          	beqz	a0,80000b40 <_doprnt+0x528>
800006f4:	fb850793          	addi	a5,a0,-72
800006f8:	03812423          	sw	s8,40(sp)
800006fc:	03912223          	sw	s9,36(sp)
80000700:	0ff7f793          	zext.b	a5,a5
80000704:	03000713          	li	a4,48
80000708:	10f76663          	bltu	a4,a5,80000814 <_doprnt+0x1fc>
8000070c:	80011737          	lui	a4,0x80011
80000710:	00279793          	slli	a5,a5,0x2
80000714:	9a070713          	addi	a4,a4,-1632 # 800109a0 <_ctype_+0xb34>
80000718:	00e787b3          	add	a5,a5,a4
8000071c:	0007a783          	lw	a5,0(a5)
80000720:	00078067          	jr	a5
80000724:	fd050713          	addi	a4,a0,-48
80000728:	0ff77713          	zext.b	a4,a4
8000072c:	00900593          	li	a1,9
80000730:	00000993          	li	s3,0
80000734:	00900613          	li	a2,9
80000738:	fae5e4e3          	bltu	a1,a4,800006e0 <_doprnt+0xc8>
8000073c:	00299713          	slli	a4,s3,0x2
80000740:	01370733          	add	a4,a4,s3
80000744:	00178793          	addi	a5,a5,1
80000748:	00171713          	slli	a4,a4,0x1
8000074c:	00a70733          	add	a4,a4,a0
80000750:	0007c503          	lbu	a0,0(a5)
80000754:	fd070993          	addi	s3,a4,-48
80000758:	fd050713          	addi	a4,a0,-48
8000075c:	0ff77713          	zext.b	a4,a4
80000760:	fce67ee3          	bgeu	a2,a4,8000073c <_doprnt+0x124>
80000764:	02e00713          	li	a4,46
80000768:	00000d13          	li	s10,0
8000076c:	f8e510e3          	bne	a0,a4,800006ec <_doprnt+0xd4>
80000770:	0017c503          	lbu	a0,1(a5)
80000774:	02a00713          	li	a4,42
80000778:	04e51c63          	bne	a0,a4,800007d0 <_doprnt+0x1b8>
8000077c:	000a2d03          	lw	s10,0(s4)
80000780:	0027c503          	lbu	a0,2(a5)
80000784:	004a0a13          	addi	s4,s4,4
80000788:	00278793          	addi	a5,a5,2
8000078c:	f61ff06f          	j	800006ec <_doprnt+0xd4>
80000790:	0017c503          	lbu	a0,1(a5)
80000794:	02a00713          	li	a4,42
80000798:	03000b13          	li	s6,48
8000079c:	00178793          	addi	a5,a5,1
800007a0:	f2e508e3          	beq	a0,a4,800006d0 <_doprnt+0xb8>
800007a4:	f81ff06f          	j	80000724 <_doprnt+0x10c>
800007a8:	00244503          	lbu	a0,2(s0)
800007ac:	03000713          	li	a4,48
800007b0:	00240793          	addi	a5,s0,2
800007b4:	02000b13          	li	s6,32
800007b8:	f0e518e3          	bne	a0,a4,800006c8 <_doprnt+0xb0>
800007bc:	fd5ff06f          	j	80000790 <_doprnt+0x178>
800007c0:	02500513          	li	a0,37
800007c4:	00240b93          	addi	s7,s0,2
800007c8:	000480e7          	jalr	s1
800007cc:	e7dff06f          	j	80000648 <_doprnt+0x30>
800007d0:	fd050713          	addi	a4,a0,-48
800007d4:	0ff77713          	zext.b	a4,a4
800007d8:	00900593          	li	a1,9
800007dc:	00178793          	addi	a5,a5,1
800007e0:	00900613          	li	a2,9
800007e4:	f0e5e4e3          	bltu	a1,a4,800006ec <_doprnt+0xd4>
800007e8:	002d1713          	slli	a4,s10,0x2
800007ec:	01a70733          	add	a4,a4,s10
800007f0:	00178793          	addi	a5,a5,1
800007f4:	00171713          	slli	a4,a4,0x1
800007f8:	00a70733          	add	a4,a4,a0
800007fc:	0007c503          	lbu	a0,0(a5)
80000800:	fd070d13          	addi	s10,a4,-48
80000804:	fd050713          	addi	a4,a0,-48
80000808:	0ff77713          	zext.b	a4,a4
8000080c:	fce67ee3          	bgeu	a2,a4,800007e8 <_doprnt+0x1d0>
80000810:	eddff06f          	j	800006ec <_doprnt+0xd4>
80000814:	000480e7          	jalr	s1
80000818:	00c14783          	lbu	a5,12(sp)
8000081c:	000d0713          	mv	a4,s10
80000820:	00000c93          	li	s9,0
80000824:	00c10c13          	addi	s8,sp,12
80000828:	06078c63          	beqz	a5,800008a0 <_doprnt+0x288>
8000082c:	00000413          	li	s0,0
80000830:	00140413          	addi	s0,s0,1
80000834:	008c07b3          	add	a5,s8,s0
80000838:	0007c783          	lbu	a5,0(a5)
8000083c:	fe079ae3          	bnez	a5,80000830 <_doprnt+0x218>
80000840:	05000793          	li	a5,80
80000844:	0937f663          	bgeu	a5,s3,800008d0 <_doprnt+0x2b8>
80000848:	06e7e263          	bltu	a5,a4,800008ac <_doprnt+0x294>
8000084c:	060d0063          	beqz	s10,800008ac <_doprnt+0x294>
80000850:	148d4263          	blt	s10,s0,80000994 <_doprnt+0x37c>
80000854:	02d00793          	li	a5,45
80000858:	10fc8063          	beq	s9,a5,80000958 <_doprnt+0x340>
8000085c:	12fa9063          	bne	s5,a5,8000097c <_doprnt+0x364>
80000860:	00000d13          	li	s10,0
80000864:	02040263          	beqz	s0,80000888 <_doprnt+0x270>
80000868:	00000993          	li	s3,0
8000086c:	013c07b3          	add	a5,s8,s3
80000870:	0007c503          	lbu	a0,0(a5)
80000874:	00198993          	addi	s3,s3,1
80000878:	000480e7          	jalr	s1
8000087c:	fe89c8e3          	blt	s3,s0,8000086c <_doprnt+0x254>
80000880:	02d00793          	li	a5,45
80000884:	06fa8c63          	beq	s5,a5,800008fc <_doprnt+0x2e4>
80000888:	03c12983          	lw	s3,60(sp)
8000088c:	03012b03          	lw	s6,48(sp)
80000890:	02812c03          	lw	s8,40(sp)
80000894:	02412c83          	lw	s9,36(sp)
80000898:	02012d03          	lw	s10,32(sp)
8000089c:	dadff06f          	j	80000648 <_doprnt+0x30>
800008a0:	00000413          	li	s0,0
800008a4:	f9dff06f          	j	80000840 <_doprnt+0x228>
800008a8:	04099063          	bnez	s3,800008e8 <_doprnt+0x2d0>
800008ac:	02d00793          	li	a5,45
800008b0:	08fc9c63          	bne	s9,a5,80000948 <_doprnt+0x330>
800008b4:	03000793          	li	a5,48
800008b8:	00000d13          	li	s10,0
800008bc:	24fb0a63          	beq	s6,a5,80000b10 <_doprnt+0x4f8>
800008c0:	02d00513          	li	a0,45
800008c4:	000480e7          	jalr	s1
800008c8:	fa0410e3          	bnez	s0,80000868 <_doprnt+0x250>
800008cc:	fb5ff06f          	j	80000880 <_doprnt+0x268>
800008d0:	fce7ece3          	bltu	a5,a4,800008a8 <_doprnt+0x290>
800008d4:	01a9e7b3          	or	a5,s3,s10
800008d8:	fc078ae3          	beqz	a5,800008ac <_doprnt+0x294>
800008dc:	000d0463          	beqz	s10,800008e4 <_doprnt+0x2cc>
800008e0:	0a8d4463          	blt	s10,s0,80000988 <_doprnt+0x370>
800008e4:	f60988e3          	beqz	s3,80000854 <_doprnt+0x23c>
800008e8:	02d00793          	li	a5,45
800008ec:	40898d33          	sub	s10,s3,s0
800008f0:	22fc8c63          	beq	s9,a5,80000b28 <_doprnt+0x510>
800008f4:	02fa9263          	bne	s5,a5,80000918 <_doprnt+0x300>
800008f8:	f60418e3          	bnez	s0,80000868 <_doprnt+0x250>
800008fc:	f9a056e3          	blez	s10,80000888 <_doprnt+0x270>
80000900:	00000413          	li	s0,0
80000904:	000b0513          	mv	a0,s6
80000908:	00140413          	addi	s0,s0,1
8000090c:	000480e7          	jalr	s1
80000910:	ffa41ae3          	bne	s0,s10,80000904 <_doprnt+0x2ec>
80000914:	f75ff06f          	j	80000888 <_doprnt+0x270>
80000918:	f5a058e3          	blez	s10,80000868 <_doprnt+0x250>
8000091c:	00000993          	li	s3,0
80000920:	000b0513          	mv	a0,s6
80000924:	00198993          	addi	s3,s3,1
80000928:	000480e7          	jalr	s1
8000092c:	ffa9cae3          	blt	s3,s10,80000920 <_doprnt+0x308>
80000930:	02d00793          	li	a5,45
80000934:	04fc9063          	bne	s9,a5,80000974 <_doprnt+0x35c>
80000938:	02000793          	li	a5,32
8000093c:	f8fb02e3          	beq	s6,a5,800008c0 <_doprnt+0x2a8>
80000940:	f20414e3          	bnez	s0,80000868 <_doprnt+0x250>
80000944:	f3dff06f          	j	80000880 <_doprnt+0x268>
80000948:	02fa9a63          	bne	s5,a5,8000097c <_doprnt+0x364>
8000094c:	f2040ee3          	beqz	s0,80000888 <_doprnt+0x270>
80000950:	00000d13          	li	s10,0
80000954:	f15ff06f          	j	80000868 <_doprnt+0x250>
80000958:	03000793          	li	a5,48
8000095c:	fff00d13          	li	s10,-1
80000960:	f6fb10e3          	bne	s6,a5,800008c0 <_doprnt+0x2a8>
80000964:	02d00513          	li	a0,45
80000968:	000480e7          	jalr	s1
8000096c:	fff00d13          	li	s10,-1
80000970:	f99a84e3          	beq	s5,s9,800008f8 <_doprnt+0x2e0>
80000974:	ee041ae3          	bnez	s0,80000868 <_doprnt+0x250>
80000978:	f11ff06f          	j	80000888 <_doprnt+0x270>
8000097c:	00000d13          	li	s10,0
80000980:	ee0414e3          	bnez	s0,80000868 <_doprnt+0x250>
80000984:	f05ff06f          	j	80000888 <_doprnt+0x270>
80000988:	000d0413          	mv	s0,s10
8000098c:	ec0984e3          	beqz	s3,80000854 <_doprnt+0x23c>
80000990:	f59ff06f          	j	800008e8 <_doprnt+0x2d0>
80000994:	000d0413          	mv	s0,s10
80000998:	ebdff06f          	j	80000854 <_doprnt+0x23c>
8000099c:	000a2503          	lw	a0,0(s4)
800009a0:	00c10593          	addi	a1,sp,12
800009a4:	008a0a13          	addi	s4,s4,8
800009a8:	b3dff0ef          	jal	800004e4 <_prtX16>
800009ac:	ffca2503          	lw	a0,-4(s4)
800009b0:	01410593          	addi	a1,sp,20
800009b4:	b31ff0ef          	jal	800004e4 <_prtX16>
800009b8:	00c14783          	lbu	a5,12(sp)
800009bc:	00000713          	li	a4,0
800009c0:	00000c93          	li	s9,0
800009c4:	00000d13          	li	s10,0
800009c8:	00c10c13          	addi	s8,sp,12
800009cc:	e60790e3          	bnez	a5,8000082c <_doprnt+0x214>
800009d0:	ed1ff06f          	j	800008a0 <_doprnt+0x288>
800009d4:	000a2503          	lw	a0,0(s4)
800009d8:	00c10593          	addi	a1,sp,12
800009dc:	004a0a13          	addi	s4,s4,4
800009e0:	b05ff0ef          	jal	800004e4 <_prtX16>
800009e4:	fd5ff06f          	j	800009b8 <_doprnt+0x3a0>
800009e8:	000a2503          	lw	a0,0(s4)
800009ec:	00c10593          	addi	a1,sp,12
800009f0:	004a0a13          	addi	s4,s4,4
800009f4:	b89ff0ef          	jal	8000057c <_prtl2>
800009f8:	fc1ff06f          	j	800009b8 <_doprnt+0x3a0>
800009fc:	000a4783          	lbu	a5,0(s4)
80000a00:	000106a3          	sb	zero,13(sp)
80000a04:	004a0a13          	addi	s4,s4,4
80000a08:	00f10623          	sb	a5,12(sp)
80000a0c:	00000713          	li	a4,0
80000a10:	00000c93          	li	s9,0
80000a14:	00000d13          	li	s10,0
80000a18:	02000b13          	li	s6,32
80000a1c:	00c10c13          	addi	s8,sp,12
80000a20:	e00796e3          	bnez	a5,8000082c <_doprnt+0x214>
80000a24:	e7dff06f          	j	800008a0 <_doprnt+0x288>
80000a28:	000a2c03          	lw	s8,0(s4)
80000a2c:	000d0713          	mv	a4,s10
80000a30:	004a0a13          	addi	s4,s4,4
80000a34:	140c0263          	beqz	s8,80000b78 <_doprnt+0x560>
80000a38:	000c4783          	lbu	a5,0(s8)
80000a3c:	00000c93          	li	s9,0
80000a40:	02000b13          	li	s6,32
80000a44:	de0794e3          	bnez	a5,8000082c <_doprnt+0x214>
80000a48:	e59ff06f          	j	800008a0 <_doprnt+0x288>
80000a4c:	000a2503          	lw	a0,0(s4)
80000a50:	00c10593          	addi	a1,sp,12
80000a54:	004a0a13          	addi	s4,s4,4
80000a58:	41f55c93          	srai	s9,a0,0x1f
80000a5c:	875ff0ef          	jal	800002d0 <_prtl10>
80000a60:	00c14783          	lbu	a5,12(sp)
80000a64:	02dcfc93          	andi	s9,s9,45
80000a68:	000d0713          	mv	a4,s10
80000a6c:	00c10c13          	addi	s8,sp,12
80000a70:	da079ee3          	bnez	a5,8000082c <_doprnt+0x214>
80000a74:	e2dff06f          	j	800008a0 <_doprnt+0x288>
80000a78:	000a2503          	lw	a0,0(s4)
80000a7c:	00000413          	li	s0,0
80000a80:	004a0a13          	addi	s4,s4,4
80000a84:	00055a63          	bgez	a0,80000a98 <_doprnt+0x480>
80000a88:	88ca77b7          	lui	a5,0x88ca7
80000a8c:	c0078793          	addi	a5,a5,-1024 # 88ca6c00 <fs+0x8c29c00>
80000a90:	00f50533          	add	a0,a0,a5
80000a94:	00200413          	li	s0,2
80000a98:	00c10593          	addi	a1,sp,12
80000a9c:	835ff0ef          	jal	800002d0 <_prtl10>
80000aa0:	00c14783          	lbu	a5,12(sp)
80000aa4:	00000713          	li	a4,0
80000aa8:	00000c93          	li	s9,0
80000aac:	00f407b3          	add	a5,s0,a5
80000ab0:	0ff7f793          	zext.b	a5,a5
80000ab4:	00f10623          	sb	a5,12(sp)
80000ab8:	00000d13          	li	s10,0
80000abc:	00c10c13          	addi	s8,sp,12
80000ac0:	d60796e3          	bnez	a5,8000082c <_doprnt+0x214>
80000ac4:	dddff06f          	j	800008a0 <_doprnt+0x288>
80000ac8:	000a2503          	lw	a0,0(s4)
80000acc:	00c10593          	addi	a1,sp,12
80000ad0:	004a0a13          	addi	s4,s4,4
80000ad4:	979ff0ef          	jal	8000044c <_prtl16>
80000ad8:	ee1ff06f          	j	800009b8 <_doprnt+0x3a0>
80000adc:	000a2503          	lw	a0,0(s4)
80000ae0:	00c10593          	addi	a1,sp,12
80000ae4:	008a0a13          	addi	s4,s4,8
80000ae8:	965ff0ef          	jal	8000044c <_prtl16>
80000aec:	ffca2503          	lw	a0,-4(s4)
80000af0:	01410593          	addi	a1,sp,20
80000af4:	959ff0ef          	jal	8000044c <_prtl16>
80000af8:	ec1ff06f          	j	800009b8 <_doprnt+0x3a0>
80000afc:	000a2503          	lw	a0,0(s4)
80000b00:	00c10593          	addi	a1,sp,12
80000b04:	004a0a13          	addi	s4,s4,4
80000b08:	8a1ff0ef          	jal	800003a8 <_prtl8>
80000b0c:	eadff06f          	j	800009b8 <_doprnt+0x3a0>
80000b10:	02d00513          	li	a0,45
80000b14:	000480e7          	jalr	s1
80000b18:	e39a8ae3          	beq	s5,s9,8000094c <_doprnt+0x334>
80000b1c:	00000d13          	li	s10,0
80000b20:	d40414e3          	bnez	s0,80000868 <_doprnt+0x250>
80000b24:	d5dff06f          	j	80000880 <_doprnt+0x268>
80000b28:	03000793          	li	a5,48
80000b2c:	fffd0d13          	addi	s10,s10,-1
80000b30:	04fb0e63          	beq	s6,a5,80000b8c <_doprnt+0x574>
80000b34:	d99a86e3          	beq	s5,s9,800008c0 <_doprnt+0x2a8>
80000b38:	dfa042e3          	bgtz	s10,8000091c <_doprnt+0x304>
80000b3c:	d85ff06f          	j	800008c0 <_doprnt+0x2a8>
80000b40:	04812403          	lw	s0,72(sp)
80000b44:	03c12983          	lw	s3,60(sp)
80000b48:	03012b03          	lw	s6,48(sp)
80000b4c:	02012d03          	lw	s10,32(sp)
80000b50:	04c12083          	lw	ra,76(sp)
80000b54:	04012903          	lw	s2,64(sp)
80000b58:	03812a03          	lw	s4,56(sp)
80000b5c:	03412a83          	lw	s5,52(sp)
80000b60:	02c12b83          	lw	s7,44(sp)
80000b64:	00048793          	mv	a5,s1
80000b68:	04412483          	lw	s1,68(sp)
80000b6c:	02500513          	li	a0,37
80000b70:	05010113          	addi	sp,sp,80
80000b74:	00078067          	jr	a5
80000b78:	80010c37          	lui	s8,0x80010
80000b7c:	00000c93          	li	s9,0
80000b80:	02000b13          	li	s6,32
80000b84:	f18c0c13          	addi	s8,s8,-232 # 8000ff18 <_ctype_+0xac>
80000b88:	ca5ff06f          	j	8000082c <_doprnt+0x214>
80000b8c:	02d00513          	li	a0,45
80000b90:	000480e7          	jalr	s1
80000b94:	d79a82e3          	beq	s5,s9,800008f8 <_doprnt+0x2e0>
80000b98:	d9a042e3          	bgtz	s10,8000091c <_doprnt+0x304>
80000b9c:	cc0416e3          	bnez	s0,80000868 <_doprnt+0x250>
80000ba0:	ce9ff06f          	j	80000888 <_doprnt+0x270>

80000ba4 <_doscan>:
80000ba4:	f6010113          	addi	sp,sp,-160
80000ba8:	08812c23          	sw	s0,152(sp)
80000bac:	08912a23          	sw	s1,148(sp)
80000bb0:	09212823          	sw	s2,144(sp)
80000bb4:	09312623          	sw	s3,140(sp)
80000bb8:	09412423          	sw	s4,136(sp)
80000bbc:	07812c23          	sw	s8,120(sp)
80000bc0:	08112e23          	sw	ra,156(sp)
80000bc4:	07712e23          	sw	s7,124(sp)
80000bc8:	07912a23          	sw	s9,116(sp)
80000bcc:	07a12823          	sw	s10,112(sp)
80000bd0:	07b12623          	sw	s11,108(sp)
80000bd4:	00050a13          	mv	s4,a0
80000bd8:	00b12423          	sw	a1,8(sp)
80000bdc:	00060913          	mv	s2,a2
80000be0:	00d12823          	sw	a3,16(sp)
80000be4:	00070413          	mv	s0,a4
80000be8:	00078493          	mv	s1,a5
80000bec:	00012623          	sw	zero,12(sp)
80000bf0:	02000993          	li	s3,32
80000bf4:	02500c13          	li	s8,37
80000bf8:	000a4783          	lbu	a5,0(s4)
80000bfc:	001a0b93          	addi	s7,s4,1
80000c00:	01378e63          	beq	a5,s3,80000c1c <_doscan+0x78>
80000c04:	0cf9e663          	bltu	s3,a5,80000cd0 <_doscan+0x12c>
80000c08:	06078a63          	beqz	a5,80000c7c <_doscan+0xd8>
80000c0c:	ff778713          	addi	a4,a5,-9
80000c10:	0ff77713          	zext.b	a4,a4
80000c14:	00100693          	li	a3,1
80000c18:	02e6ea63          	bltu	a3,a4,80000c4c <_doscan+0xa8>
80000c1c:	00a00a13          	li	s4,10
80000c20:	00800d93          	li	s11,8
80000c24:	02000d13          	li	s10,32
80000c28:	00048593          	mv	a1,s1
80000c2c:	00040513          	mv	a0,s0
80000c30:	000900e7          	jalr	s2
80000c34:	08aa4063          	blt	s4,a0,80000cb4 <_doscan+0x110>
80000c38:	feadc8e3          	blt	s11,a0,80000c28 <_doscan+0x84>
80000c3c:	ffe00793          	li	a5,-2
80000c40:	06f51c63          	bne	a0,a5,80000cb8 <_doscan+0x114>
80000c44:	000b8a13          	mv	s4,s7
80000c48:	fb1ff06f          	j	80000bf8 <_doscan+0x54>
80000c4c:	00078c93          	mv	s9,a5
80000c50:	000b8a13          	mv	s4,s7
80000c54:	00048593          	mv	a1,s1
80000c58:	00040513          	mv	a0,s0
80000c5c:	000900e7          	jalr	s2
80000c60:	f8ac8ce3          	beq	s9,a0,80000bf8 <_doscan+0x54>
80000c64:	ffe00793          	li	a5,-2
80000c68:	1af50063          	beq	a0,a5,80000e08 <_doscan+0x264>
80000c6c:	01012783          	lw	a5,16(sp)
80000c70:	00048593          	mv	a1,s1
80000c74:	00040513          	mv	a0,s0
80000c78:	000780e7          	jalr	a5
80000c7c:	09c12083          	lw	ra,156(sp)
80000c80:	09812403          	lw	s0,152(sp)
80000c84:	00c12503          	lw	a0,12(sp)
80000c88:	09412483          	lw	s1,148(sp)
80000c8c:	09012903          	lw	s2,144(sp)
80000c90:	08c12983          	lw	s3,140(sp)
80000c94:	08812a03          	lw	s4,136(sp)
80000c98:	07c12b83          	lw	s7,124(sp)
80000c9c:	07812c03          	lw	s8,120(sp)
80000ca0:	07412c83          	lw	s9,116(sp)
80000ca4:	07012d03          	lw	s10,112(sp)
80000ca8:	06c12d83          	lw	s11,108(sp)
80000cac:	0a010113          	addi	sp,sp,160
80000cb0:	00008067          	ret
80000cb4:	f7a50ae3          	beq	a0,s10,80000c28 <_doscan+0x84>
80000cb8:	01012783          	lw	a5,16(sp)
80000cbc:	00048593          	mv	a1,s1
80000cc0:	00040513          	mv	a0,s0
80000cc4:	000780e7          	jalr	a5
80000cc8:	000b8a13          	mv	s4,s7
80000ccc:	f2dff06f          	j	80000bf8 <_doscan+0x54>
80000cd0:	f7879ee3          	bne	a5,s8,80000c4c <_doscan+0xa8>
80000cd4:	09612023          	sw	s6,128(sp)
80000cd8:	001a4c83          	lbu	s9,1(s4)
80000cdc:	002a0b13          	addi	s6,s4,2
80000ce0:	0d8c8a63          	beq	s9,s8,80000db4 <_doscan+0x210>
80000ce4:	09512223          	sw	s5,132(sp)
80000ce8:	02a00713          	li	a4,42
80000cec:	2cec8063          	beq	s9,a4,80000fac <_doscan+0x408>
80000cf0:	00812783          	lw	a5,8(sp)
80000cf4:	00478793          	addi	a5,a5,4
80000cf8:	00f12e23          	sw	a5,28(sp)
80000cfc:	80010a37          	lui	s4,0x80010
80000d00:	e6da0a13          	addi	s4,s4,-403 # 8000fe6d <_ctype_+0x1>
80000d04:	019a0733          	add	a4,s4,s9
80000d08:	00074703          	lbu	a4,0(a4)
80000d0c:	00477713          	andi	a4,a4,4
80000d10:	0a070863          	beqz	a4,80000dc0 <_doscan+0x21c>
80000d14:	00000a93          	li	s5,0
80000d18:	002a9713          	slli	a4,s5,0x2
80000d1c:	01570733          	add	a4,a4,s5
80000d20:	00171713          	slli	a4,a4,0x1
80000d24:	001b0b13          	addi	s6,s6,1
80000d28:	01970733          	add	a4,a4,s9
80000d2c:	fffb4c83          	lbu	s9,-1(s6)
80000d30:	fd070a93          	addi	s5,a4,-48
80000d34:	019a0733          	add	a4,s4,s9
80000d38:	00074703          	lbu	a4,0(a4)
80000d3c:	00477713          	andi	a4,a4,4
80000d40:	fc071ce3          	bnez	a4,80000d18 <_doscan+0x174>
80000d44:	060a8e63          	beqz	s5,80000dc0 <_doscan+0x21c>
80000d48:	06c00713          	li	a4,108
80000d4c:	08ec8263          	beq	s9,a4,80000dd0 <_doscan+0x22c>
80000d50:	06800713          	li	a4,104
80000d54:	36ec8663          	beq	s9,a4,800010c0 <_doscan+0x51c>
80000d58:	00100793          	li	a5,1
80000d5c:	05b00613          	li	a2,91
80000d60:	00f12a23          	sw	a5,20(sp)
80000d64:	001c8713          	addi	a4,s9,1
80000d68:	0acc8663          	beq	s9,a2,80000e14 <_doscan+0x270>
80000d6c:	80010637          	lui	a2,0x80010
80000d70:	e6c60613          	addi	a2,a2,-404 # 8000fe6c <_ctype_>
80000d74:	00c70733          	add	a4,a4,a2
80000d78:	00074703          	lbu	a4,0(a4)
80000d7c:	00177713          	andi	a4,a4,1
80000d80:	06070e63          	beqz	a4,80000dfc <_doscan+0x258>
80000d84:	00200793          	li	a5,2
80000d88:	020c8c93          	addi	s9,s9,32
80000d8c:	00f12a23          	sw	a5,20(sp)
80000d90:	fa5c8713          	addi	a4,s9,-91
80000d94:	01d00613          	li	a2,29
80000d98:	12e66a63          	bltu	a2,a4,80000ecc <_doscan+0x328>
80000d9c:	80011637          	lui	a2,0x80011
80000da0:	00271713          	slli	a4,a4,0x2
80000da4:	a6460613          	addi	a2,a2,-1436 # 80010a64 <_ctype_+0xbf8>
80000da8:	00c70733          	add	a4,a4,a2
80000dac:	00072703          	lw	a4,0(a4)
80000db0:	00070067          	jr	a4
80000db4:	000b0a13          	mv	s4,s6
80000db8:	08012b03          	lw	s6,128(sp)
80000dbc:	e99ff06f          	j	80000c54 <_doscan+0xb0>
80000dc0:	00007ab7          	lui	s5,0x7
80000dc4:	06c00713          	li	a4,108
80000dc8:	530a8a93          	addi	s5,s5,1328 # 7530 <__stack_size+0x5530>
80000dcc:	f8ec92e3          	bne	s9,a4,80000d50 <_doscan+0x1ac>
80000dd0:	000b4c83          	lbu	s9,0(s6)
80000dd4:	80010637          	lui	a2,0x80010
80000dd8:	e6c60613          	addi	a2,a2,-404 # 8000fe6c <_ctype_>
80000ddc:	001c8713          	addi	a4,s9,1
80000de0:	00c70733          	add	a4,a4,a2
80000de4:	00074703          	lbu	a4,0(a4)
80000de8:	00200793          	li	a5,2
80000dec:	00f12a23          	sw	a5,20(sp)
80000df0:	00177713          	andi	a4,a4,1
80000df4:	001b0b13          	addi	s6,s6,1
80000df8:	f80716e3          	bnez	a4,80000d84 <_doscan+0x1e0>
80000dfc:	f80c9ae3          	bnez	s9,80000d90 <_doscan+0x1ec>
80000e00:	08412a83          	lw	s5,132(sp)
80000e04:	08012b03          	lw	s6,128(sp)
80000e08:	fff00793          	li	a5,-1
80000e0c:	00f12623          	sw	a5,12(sp)
80000e10:	e6dff06f          	j	80000c7c <_doscan+0xd8>
80000e14:	000b4603          	lbu	a2,0(s6)
80000e18:	05e00713          	li	a4,94
80000e1c:	00000313          	li	t1,0
80000e20:	00e61663          	bne	a2,a4,80000e2c <_doscan+0x288>
80000e24:	001b0b13          	addi	s6,s6,1
80000e28:	00100313          	li	t1,1
80000e2c:	800115b7          	lui	a1,0x80011
80000e30:	dac58b93          	addi	s7,a1,-596 # 80010dac <_etext>
80000e34:	000bc603          	lbu	a2,0(s7)
80000e38:	dac58713          	addi	a4,a1,-596
80000e3c:	080b8513          	addi	a0,s7,128
80000e40:	dac58893          	addi	a7,a1,-596
80000e44:	2a030463          	beqz	t1,800010ec <_doscan+0x548>
80000e48:	dac58593          	addi	a1,a1,-596
80000e4c:	00c0006f          	j	80000e58 <_doscan+0x2b4>
80000e50:	00074603          	lbu	a2,0(a4)
80000e54:	00070593          	mv	a1,a4
80000e58:	ffd67613          	andi	a2,a2,-3
80000e5c:	00c58023          	sb	a2,0(a1)
80000e60:	00170713          	addi	a4,a4,1
80000e64:	fee516e3          	bne	a0,a4,80000e50 <_doscan+0x2ac>
80000e68:	000b4703          	lbu	a4,0(s6)
80000e6c:	05d00613          	li	a2,93
80000e70:	001b0813          	addi	a6,s6,1
80000e74:	07f77593          	andi	a1,a4,127
80000e78:	44c58063          	beq	a1,a2,800012b8 <_doscan+0x714>
80000e7c:	05d00513          	li	a0,93
80000e80:	00eb8633          	add	a2,s7,a4
80000e84:	00064583          	lbu	a1,0(a2)
80000e88:	0fd5f613          	andi	a2,a1,253
80000e8c:	00030463          	beqz	t1,80000e94 <_doscan+0x2f0>
80000e90:	0025e613          	ori	a2,a1,2
80000e94:	00eb8733          	add	a4,s7,a4
80000e98:	00c70023          	sb	a2,0(a4)
80000e9c:	00084703          	lbu	a4,0(a6)
80000ea0:	00180813          	addi	a6,a6,1
80000ea4:	07f77613          	andi	a2,a4,127
80000ea8:	fca61ce3          	bne	a2,a0,80000e80 <_doscan+0x2dc>
80000eac:	80010737          	lui	a4,0x80010
80000eb0:	ec874703          	lbu	a4,-312(a4) # 8000fec8 <_ctype_+0x5c>
80000eb4:	00080b13          	mv	s6,a6
80000eb8:	00177713          	andi	a4,a4,1
80000ebc:	24070663          	beqz	a4,80001108 <_doscan+0x564>
80000ec0:	00200793          	li	a5,2
80000ec4:	00080b13          	mv	s6,a6
80000ec8:	00f12a23          	sw	a5,20(sp)
80000ecc:	00a00793          	li	a5,10
80000ed0:	00f12c23          	sw	a5,24(sp)
80000ed4:	00a00b93          	li	s7,10
80000ed8:	00800d93          	li	s11,8
80000edc:	02000d13          	li	s10,32
80000ee0:	00048593          	mv	a1,s1
80000ee4:	00040513          	mv	a0,s0
80000ee8:	000900e7          	jalr	s2
80000eec:	0ff57793          	zext.b	a5,a0
80000ef0:	12fbee63          	bltu	s7,a5,8000102c <_doscan+0x488>
80000ef4:	fefde6e3          	bltu	s11,a5,80000ee0 <_doscan+0x33c>
80000ef8:	02010c93          	addi	s9,sp,32
80000efc:	00000b93          	li	s7,0
80000f00:	3b505663          	blez	s5,800012ac <_doscan+0x708>
80000f04:	00fa06b3          	add	a3,s4,a5
80000f08:	0006c683          	lbu	a3,0(a3)
80000f0c:	015c8d33          	add	s10,s9,s5
80000f10:	00500d93          	li	s11,5
80000f14:	0046f693          	andi	a3,a3,4
80000f18:	00000a93          	li	s5,0
80000f1c:	0e069263          	bnez	a3,80001000 <_doscan+0x45c>
80000f20:	01812703          	lw	a4,24(sp)
80000f24:	01000693          	li	a3,16
80000f28:	00d71e63          	bne	a4,a3,80000f44 <_doscan+0x3a0>
80000f2c:	f9f78693          	addi	a3,a5,-97
80000f30:	0ff6f693          	zext.b	a3,a3
80000f34:	1addf063          	bgeu	s11,a3,800010d4 <_doscan+0x530>
80000f38:	fbf78693          	addi	a3,a5,-65
80000f3c:	0ff6f693          	zext.b	a3,a3
80000f40:	08ddf263          	bgeu	s11,a3,80000fc4 <_doscan+0x420>
80000f44:	000b8463          	beqz	s7,80000f4c <_doscan+0x3a8>
80000f48:	41500ab3          	neg	s5,s5
80000f4c:	01012783          	lw	a5,16(sp)
80000f50:	00048593          	mv	a1,s1
80000f54:	00040513          	mv	a0,s0
80000f58:	000780e7          	jalr	a5
80000f5c:	00812703          	lw	a4,8(sp)
80000f60:	02070a63          	beqz	a4,80000f94 <_doscan+0x3f0>
80000f64:	02010793          	addi	a5,sp,32
80000f68:	02fc8663          	beq	s9,a5,80000f94 <_doscan+0x3f0>
80000f6c:	00072683          	lw	a3,0(a4)
80000f70:	01412703          	lw	a4,20(sp)
80000f74:	00100793          	li	a5,1
80000f78:	10f70863          	beq	a4,a5,80001088 <_doscan+0x4e4>
80000f7c:	00200793          	li	a5,2
80000f80:	10f70463          	beq	a4,a5,80001088 <_doscan+0x4e4>
80000f84:	01569023          	sh	s5,0(a3)
80000f88:	00c12783          	lw	a5,12(sp)
80000f8c:	00178793          	addi	a5,a5,1
80000f90:	00f12623          	sw	a5,12(sp)
80000f94:	01c12783          	lw	a5,28(sp)
80000f98:	000b0a13          	mv	s4,s6
80000f9c:	08412a83          	lw	s5,132(sp)
80000fa0:	08012b03          	lw	s6,128(sp)
80000fa4:	00f12423          	sw	a5,8(sp)
80000fa8:	c51ff06f          	j	80000bf8 <_doscan+0x54>
80000fac:	00812783          	lw	a5,8(sp)
80000fb0:	002a4c83          	lbu	s9,2(s4)
80000fb4:	003a0b13          	addi	s6,s4,3
80000fb8:	00f12e23          	sw	a5,28(sp)
80000fbc:	00012423          	sw	zero,8(sp)
80000fc0:	d3dff06f          	j	80000cfc <_doscan+0x158>
80000fc4:	004a9693          	slli	a3,s5,0x4
80000fc8:	fc978713          	addi	a4,a5,-55
80000fcc:	0ff77713          	zext.b	a4,a4
80000fd0:	00048593          	mv	a1,s1
80000fd4:	00040513          	mv	a0,s0
80000fd8:	00fc8023          	sb	a5,0(s9)
80000fdc:	001c8c93          	addi	s9,s9,1
80000fe0:	00d70ab3          	add	s5,a4,a3
80000fe4:	000900e7          	jalr	s2
80000fe8:	0ff57793          	zext.b	a5,a0
80000fec:	f5ac8ce3          	beq	s9,s10,80000f44 <_doscan+0x3a0>
80000ff0:	00fa06b3          	add	a3,s4,a5
80000ff4:	0006c683          	lbu	a3,0(a3)
80000ff8:	0046f693          	andi	a3,a3,4
80000ffc:	f20682e3          	beqz	a3,80000f20 <_doscan+0x37c>
80001000:	f9f78693          	addi	a3,a5,-97
80001004:	0ff6f693          	zext.b	a3,a3
80001008:	08ddf463          	bgeu	s11,a3,80001090 <_doscan+0x4ec>
8000100c:	fbf78693          	addi	a3,a5,-65
80001010:	0ff6f693          	zext.b	a3,a3
80001014:	f2dde8e3          	bltu	s11,a3,80000f44 <_doscan+0x3a0>
80001018:	01812703          	lw	a4,24(sp)
8000101c:	00800693          	li	a3,8
80001020:	24d71663          	bne	a4,a3,8000126c <_doscan+0x6c8>
80001024:	003a9693          	slli	a3,s5,0x3
80001028:	fa1ff06f          	j	80000fc8 <_doscan+0x424>
8000102c:	eba78ae3          	beq	a5,s10,80000ee0 <_doscan+0x33c>
80001030:	02d00713          	li	a4,45
80001034:	fffa8b93          	addi	s7,s5,-1
80001038:	02e78263          	beq	a5,a4,8000105c <_doscan+0x4b8>
8000103c:	02b00713          	li	a4,43
80001040:	eae79ce3          	bne	a5,a4,80000ef8 <_doscan+0x354>
80001044:	00048593          	mv	a1,s1
80001048:	00040513          	mv	a0,s0
8000104c:	000900e7          	jalr	s2
80001050:	0ff57793          	zext.b	a5,a0
80001054:	000b8a93          	mv	s5,s7
80001058:	ea1ff06f          	j	80000ef8 <_doscan+0x354>
8000105c:	00048593          	mv	a1,s1
80001060:	00040513          	mv	a0,s0
80001064:	02f10023          	sb	a5,32(sp)
80001068:	000b8a93          	mv	s5,s7
8000106c:	000900e7          	jalr	s2
80001070:	0ff57793          	zext.b	a5,a0
80001074:	02110c93          	addi	s9,sp,33
80001078:	00100b93          	li	s7,1
8000107c:	e95044e3          	bgtz	s5,80000f04 <_doscan+0x360>
80001080:	00000a93          	li	s5,0
80001084:	ec5ff06f          	j	80000f48 <_doscan+0x3a4>
80001088:	0156a023          	sw	s5,0(a3)
8000108c:	efdff06f          	j	80000f88 <_doscan+0x3e4>
80001090:	01812703          	lw	a4,24(sp)
80001094:	00800693          	li	a3,8
80001098:	04d70263          	beq	a4,a3,800010dc <_doscan+0x538>
8000109c:	01812703          	lw	a4,24(sp)
800010a0:	00a00693          	li	a3,10
800010a4:	02d71863          	bne	a4,a3,800010d4 <_doscan+0x530>
800010a8:	002a9693          	slli	a3,s5,0x2
800010ac:	015686b3          	add	a3,a3,s5
800010b0:	00169693          	slli	a3,a3,0x1
800010b4:	fa978713          	addi	a4,a5,-87
800010b8:	0ff77713          	zext.b	a4,a4
800010bc:	f15ff06f          	j	80000fd0 <_doscan+0x42c>
800010c0:	000b4c83          	lbu	s9,0(s6)
800010c4:	00012a23          	sw	zero,20(sp)
800010c8:	001b0b13          	addi	s6,s6,1
800010cc:	001c8713          	addi	a4,s9,1
800010d0:	c9dff06f          	j	80000d6c <_doscan+0x1c8>
800010d4:	004a9693          	slli	a3,s5,0x4
800010d8:	fddff06f          	j	800010b4 <_doscan+0x510>
800010dc:	003a9693          	slli	a3,s5,0x3
800010e0:	fd5ff06f          	j	800010b4 <_doscan+0x510>
800010e4:	00074603          	lbu	a2,0(a4)
800010e8:	00070893          	mv	a7,a4
800010ec:	00266613          	ori	a2,a2,2
800010f0:	00c88023          	sb	a2,0(a7)
800010f4:	00170713          	addi	a4,a4,1
800010f8:	fee516e3          	bne	a0,a4,800010e4 <_doscan+0x540>
800010fc:	d6dff06f          	j	80000e68 <_doscan+0x2c4>
80001100:	800115b7          	lui	a1,0x80011
80001104:	dac58b93          	addi	s7,a1,-596 # 80010dac <_etext>
80001108:	00812783          	lw	a5,8(sp)
8000110c:	00012a23          	sw	zero,20(sp)
80001110:	00078663          	beqz	a5,8000111c <_doscan+0x578>
80001114:	0007a783          	lw	a5,0(a5)
80001118:	00f12a23          	sw	a5,20(sp)
8000111c:	06300713          	li	a4,99
80001120:	0eec8863          	beq	s9,a4,80001210 <_doscan+0x66c>
80001124:	f8dc8a13          	addi	s4,s9,-115
80001128:	001a3a13          	seqz	s4,s4
8000112c:	ffe00d13          	li	s10,-2
80001130:	00048593          	mv	a1,s1
80001134:	00040513          	mv	a0,s0
80001138:	000900e7          	jalr	s2
8000113c:	00ab8733          	add	a4,s7,a0
80001140:	00074703          	lbu	a4,0(a4)
80001144:	01477633          	and	a2,a4,s4
80001148:	02060a63          	beqz	a2,8000117c <_doscan+0x5d8>
8000114c:	ffa512e3          	bne	a0,s10,80001130 <_doscan+0x58c>
80001150:	00c12783          	lw	a5,12(sp)
80001154:	ca0786e3          	beqz	a5,80000e00 <_doscan+0x25c>
80001158:	08412a83          	lw	s5,132(sp)
8000115c:	08012b03          	lw	s6,128(sp)
80001160:	b1dff06f          	j	80000c7c <_doscan+0xd8>
80001164:	00800793          	li	a5,8
80001168:	00f12c23          	sw	a5,24(sp)
8000116c:	d69ff06f          	j	80000ed4 <_doscan+0x330>
80001170:	01000793          	li	a5,16
80001174:	00f12c23          	sw	a5,24(sp)
80001178:	d5dff06f          	j	80000ed4 <_doscan+0x330>
8000117c:	05b00613          	li	a2,91
80001180:	00200a13          	li	s4,2
80001184:	00cc8663          	beq	s9,a2,80001190 <_doscan+0x5ec>
80001188:	07300c93          	li	s9,115
8000118c:	00100a13          	li	s4,1
80001190:	ffe00613          	li	a2,-2
80001194:	fac50ee3          	beq	a0,a2,80001150 <_doscan+0x5ac>
80001198:	01412d83          	lw	s11,20(sp)
8000119c:	ffe00d13          	li	s10,-2
800011a0:	0300006f          	j	800011d0 <_doscan+0x62c>
800011a4:	000d8663          	beqz	s11,800011b0 <_doscan+0x60c>
800011a8:	00ad8023          	sb	a0,0(s11)
800011ac:	001d8d93          	addi	s11,s11,1
800011b0:	fffa8a93          	addi	s5,s5,-1
800011b4:	0d505a63          	blez	s5,80001288 <_doscan+0x6e4>
800011b8:	00048593          	mv	a1,s1
800011bc:	00040513          	mv	a0,s0
800011c0:	000900e7          	jalr	s2
800011c4:	07a50c63          	beq	a0,s10,8000123c <_doscan+0x698>
800011c8:	00ab8733          	add	a4,s7,a0
800011cc:	00074703          	lbu	a4,0(a4)
800011d0:	01477733          	and	a4,a4,s4
800011d4:	fc0708e3          	beqz	a4,800011a4 <_doscan+0x600>
800011d8:	0b505863          	blez	s5,80001288 <_doscan+0x6e4>
800011dc:	01012783          	lw	a5,16(sp)
800011e0:	00048593          	mv	a1,s1
800011e4:	00040513          	mv	a0,s0
800011e8:	000780e7          	jalr	a5
800011ec:	da0d84e3          	beqz	s11,80000f94 <_doscan+0x3f0>
800011f0:	01412783          	lw	a5,20(sp)
800011f4:	dafd80e3          	beq	s11,a5,80000f94 <_doscan+0x3f0>
800011f8:	06300713          	li	a4,99
800011fc:	08ec8a63          	beq	s9,a4,80001290 <_doscan+0x6ec>
80001200:	00812783          	lw	a5,8(sp)
80001204:	000d8023          	sb	zero,0(s11)
80001208:	d80790e3          	bnez	a5,80000f88 <_doscan+0x3e4>
8000120c:	d89ff06f          	j	80000f94 <_doscan+0x3f0>
80001210:	00007737          	lui	a4,0x7
80001214:	53070713          	addi	a4,a4,1328 # 7530 <__stack_size+0x5530>
80001218:	00ea9463          	bne	s5,a4,80001220 <_doscan+0x67c>
8000121c:	00100a93          	li	s5,1
80001220:	00048593          	mv	a1,s1
80001224:	00040513          	mv	a0,s0
80001228:	000900e7          	jalr	s2
8000122c:	00ab8733          	add	a4,s7,a0
80001230:	00074703          	lbu	a4,0(a4)
80001234:	00000a13          	li	s4,0
80001238:	f59ff06f          	j	80001190 <_doscan+0x5ec>
8000123c:	f00d8ae3          	beqz	s11,80001150 <_doscan+0x5ac>
80001240:	01412783          	lw	a5,20(sp)
80001244:	f0fd86e3          	beq	s11,a5,80001150 <_doscan+0x5ac>
80001248:	00812783          	lw	a5,8(sp)
8000124c:	06300713          	li	a4,99
80001250:	00f03ab3          	snez	s5,a5
80001254:	04ec8463          	beq	s9,a4,8000129c <_doscan+0x6f8>
80001258:	00c12783          	lw	a5,12(sp)
8000125c:	000d8023          	sb	zero,0(s11)
80001260:	015787b3          	add	a5,a5,s5
80001264:	00f12623          	sw	a5,12(sp)
80001268:	ee9ff06f          	j	80001150 <_doscan+0x5ac>
8000126c:	01812703          	lw	a4,24(sp)
80001270:	00a00693          	li	a3,10
80001274:	d4d718e3          	bne	a4,a3,80000fc4 <_doscan+0x420>
80001278:	002a9693          	slli	a3,s5,0x2
8000127c:	015686b3          	add	a3,a3,s5
80001280:	00169693          	slli	a3,a3,0x1
80001284:	d45ff06f          	j	80000fc8 <_doscan+0x424>
80001288:	f60d94e3          	bnez	s11,800011f0 <_doscan+0x64c>
8000128c:	d09ff06f          	j	80000f94 <_doscan+0x3f0>
80001290:	00812783          	lw	a5,8(sp)
80001294:	ce079ae3          	bnez	a5,80000f88 <_doscan+0x3e4>
80001298:	cfdff06f          	j	80000f94 <_doscan+0x3f0>
8000129c:	00c12783          	lw	a5,12(sp)
800012a0:	015787b3          	add	a5,a5,s5
800012a4:	00f12623          	sw	a5,12(sp)
800012a8:	ea9ff06f          	j	80001150 <_doscan+0x5ac>
800012ac:	02010c93          	addi	s9,sp,32
800012b0:	00000a93          	li	s5,0
800012b4:	c99ff06f          	j	80000f4c <_doscan+0x3a8>
800012b8:	80010737          	lui	a4,0x80010
800012bc:	ec874703          	lbu	a4,-312(a4) # 8000fec8 <_ctype_+0x5c>
800012c0:	00177713          	andi	a4,a4,1
800012c4:	be071ee3          	bnez	a4,80000ec0 <_doscan+0x31c>
800012c8:	00812783          	lw	a5,8(sp)
800012cc:	00078a63          	beqz	a5,800012e0 <_doscan+0x73c>
800012d0:	0007a783          	lw	a5,0(a5)
800012d4:	00080b13          	mv	s6,a6
800012d8:	00f12a23          	sw	a5,20(sp)
800012dc:	e49ff06f          	j	80001124 <_doscan+0x580>
800012e0:	00080b13          	mv	s6,a6
800012e4:	00012a23          	sw	zero,20(sp)
800012e8:	e3dff06f          	j	80001124 <_doscan+0x580>

800012ec <_prtl10>:
800012ec:	ff010113          	addi	sp,sp,-16
800012f0:	00010223          	sb	zero,4(sp)
800012f4:	00410613          	addi	a2,sp,4
800012f8:	00510793          	addi	a5,sp,5
800012fc:	00f10813          	addi	a6,sp,15
80001300:	00a00693          	li	a3,10
80001304:	02d56733          	rem	a4,a0,a3
80001308:	00178793          	addi	a5,a5,1
8000130c:	03070713          	addi	a4,a4,48
80001310:	fee78fa3          	sb	a4,-1(a5)
80001314:	02d54533          	div	a0,a0,a3
80001318:	ff0796e3          	bne	a5,a6,80001304 <_prtl10+0x18>
8000131c:	00e14703          	lbu	a4,14(sp)
80001320:	03000793          	li	a5,48
80001324:	06f71063          	bne	a4,a5,80001384 <_prtl10+0x98>
80001328:	00060713          	mv	a4,a2
8000132c:	03000513          	li	a0,48
80001330:	00974683          	lbu	a3,9(a4)
80001334:	00070793          	mv	a5,a4
80001338:	fff70713          	addi	a4,a4,-1
8000133c:	fea68ae3          	beq	a3,a0,80001330 <_prtl10+0x44>
80001340:	40c787b3          	sub	a5,a5,a2
80001344:	00978793          	addi	a5,a5,9
80001348:	02079663          	bnez	a5,80001374 <_prtl10+0x88>
8000134c:	00100793          	li	a5,1
80001350:	00f607b3          	add	a5,a2,a5
80001354:	0007c683          	lbu	a3,0(a5)
80001358:	00078713          	mv	a4,a5
8000135c:	00158593          	addi	a1,a1,1
80001360:	fed58fa3          	sb	a3,-1(a1)
80001364:	fff78793          	addi	a5,a5,-1
80001368:	fee616e3          	bne	a2,a4,80001354 <_prtl10+0x68>
8000136c:	01010113          	addi	sp,sp,16
80001370:	00008067          	ret
80001374:	fff00713          	li	a4,-1
80001378:	fce79ce3          	bne	a5,a4,80001350 <_prtl10+0x64>
8000137c:	01010113          	addi	sp,sp,16
80001380:	00008067          	ret
80001384:	00a00793          	li	a5,10
80001388:	fc9ff06f          	j	80001350 <_prtl10+0x64>

8000138c <_prtl8>:
8000138c:	ff010113          	addi	sp,sp,-16
80001390:	00010223          	sb	zero,4(sp)
80001394:	00410613          	addi	a2,sp,4
80001398:	00510793          	addi	a5,sp,5
8000139c:	01010693          	addi	a3,sp,16
800013a0:	00757713          	andi	a4,a0,7
800013a4:	03070713          	addi	a4,a4,48
800013a8:	00e78023          	sb	a4,0(a5)
800013ac:	00178793          	addi	a5,a5,1
800013b0:	40355513          	srai	a0,a0,0x3
800013b4:	fed796e3          	bne	a5,a3,800013a0 <_prtl8+0x14>
800013b8:	00f14783          	lbu	a5,15(sp)
800013bc:	03000713          	li	a4,48
800013c0:	0337f793          	andi	a5,a5,51
800013c4:	00f107a3          	sb	a5,15(sp)
800013c8:	06e79063          	bne	a5,a4,80001428 <_prtl8+0x9c>
800013cc:	00060713          	mv	a4,a2
800013d0:	03000513          	li	a0,48
800013d4:	00a74683          	lbu	a3,10(a4)
800013d8:	00070793          	mv	a5,a4
800013dc:	fff70713          	addi	a4,a4,-1
800013e0:	fea68ae3          	beq	a3,a0,800013d4 <_prtl8+0x48>
800013e4:	40c787b3          	sub	a5,a5,a2
800013e8:	00a78793          	addi	a5,a5,10
800013ec:	02079663          	bnez	a5,80001418 <_prtl8+0x8c>
800013f0:	00100793          	li	a5,1
800013f4:	00f607b3          	add	a5,a2,a5
800013f8:	0007c683          	lbu	a3,0(a5)
800013fc:	00078713          	mv	a4,a5
80001400:	00158593          	addi	a1,a1,1
80001404:	fed58fa3          	sb	a3,-1(a1)
80001408:	fff78793          	addi	a5,a5,-1
8000140c:	fee616e3          	bne	a2,a4,800013f8 <_prtl8+0x6c>
80001410:	01010113          	addi	sp,sp,16
80001414:	00008067          	ret
80001418:	fff00713          	li	a4,-1
8000141c:	fce79ce3          	bne	a5,a4,800013f4 <_prtl8+0x68>
80001420:	01010113          	addi	sp,sp,16
80001424:	00008067          	ret
80001428:	00b00793          	li	a5,11
8000142c:	fc9ff06f          	j	800013f4 <_prtl8+0x68>

80001430 <_prtl16>:
80001430:	ff010113          	addi	sp,sp,-16
80001434:	00410693          	addi	a3,sp,4
80001438:	80010637          	lui	a2,0x80010
8000143c:	00010223          	sb	zero,4(sp)
80001440:	00c10813          	addi	a6,sp,12
80001444:	00068793          	mv	a5,a3
80001448:	ef060613          	addi	a2,a2,-272 # 8000fef0 <_ctype_+0x84>
8000144c:	00f57713          	andi	a4,a0,15
80001450:	00e60733          	add	a4,a2,a4
80001454:	00074703          	lbu	a4,0(a4)
80001458:	00178793          	addi	a5,a5,1
8000145c:	40455513          	srai	a0,a0,0x4
80001460:	00e78023          	sb	a4,0(a5)
80001464:	ff0794e3          	bne	a5,a6,8000144c <_prtl16+0x1c>
80001468:	00c14703          	lbu	a4,12(sp)
8000146c:	03000793          	li	a5,48
80001470:	04f71863          	bne	a4,a5,800014c0 <_prtl16+0x90>
80001474:	00800793          	li	a5,8
80001478:	03000613          	li	a2,48
8000147c:	0076c703          	lbu	a4,7(a3)
80001480:	fff78793          	addi	a5,a5,-1
80001484:	fff68693          	addi	a3,a3,-1
80001488:	fec70ae3          	beq	a4,a2,8000147c <_prtl16+0x4c>
8000148c:	00079463          	bnez	a5,80001494 <_prtl16+0x64>
80001490:	00100793          	li	a5,1
80001494:	00178693          	addi	a3,a5,1
80001498:	00410713          	addi	a4,sp,4
8000149c:	00f707b3          	add	a5,a4,a5
800014a0:	00d586b3          	add	a3,a1,a3
800014a4:	0007c703          	lbu	a4,0(a5)
800014a8:	00158593          	addi	a1,a1,1
800014ac:	fff78793          	addi	a5,a5,-1
800014b0:	fee58fa3          	sb	a4,-1(a1)
800014b4:	feb698e3          	bne	a3,a1,800014a4 <_prtl16+0x74>
800014b8:	01010113          	addi	sp,sp,16
800014bc:	00008067          	ret
800014c0:	00800793          	li	a5,8
800014c4:	fd1ff06f          	j	80001494 <_prtl16+0x64>

800014c8 <_prtX16>:
800014c8:	ff010113          	addi	sp,sp,-16
800014cc:	00410693          	addi	a3,sp,4
800014d0:	80010637          	lui	a2,0x80010
800014d4:	00010223          	sb	zero,4(sp)
800014d8:	00c10813          	addi	a6,sp,12
800014dc:	00068793          	mv	a5,a3
800014e0:	f0460613          	addi	a2,a2,-252 # 8000ff04 <_ctype_+0x98>
800014e4:	00f57713          	andi	a4,a0,15
800014e8:	00e60733          	add	a4,a2,a4
800014ec:	00074703          	lbu	a4,0(a4)
800014f0:	00178793          	addi	a5,a5,1
800014f4:	40455513          	srai	a0,a0,0x4
800014f8:	00e78023          	sb	a4,0(a5)
800014fc:	ff0794e3          	bne	a5,a6,800014e4 <_prtX16+0x1c>
80001500:	00c14703          	lbu	a4,12(sp)
80001504:	03000793          	li	a5,48
80001508:	04f71863          	bne	a4,a5,80001558 <_prtX16+0x90>
8000150c:	00800793          	li	a5,8
80001510:	03000613          	li	a2,48
80001514:	0076c703          	lbu	a4,7(a3)
80001518:	fff78793          	addi	a5,a5,-1
8000151c:	fff68693          	addi	a3,a3,-1
80001520:	fec70ae3          	beq	a4,a2,80001514 <_prtX16+0x4c>
80001524:	00079463          	bnez	a5,8000152c <_prtX16+0x64>
80001528:	00100793          	li	a5,1
8000152c:	00178693          	addi	a3,a5,1
80001530:	00410713          	addi	a4,sp,4
80001534:	00f707b3          	add	a5,a4,a5
80001538:	00d586b3          	add	a3,a1,a3
8000153c:	0007c703          	lbu	a4,0(a5)
80001540:	00158593          	addi	a1,a1,1
80001544:	fff78793          	addi	a5,a5,-1
80001548:	fee58fa3          	sb	a4,-1(a1)
8000154c:	feb698e3          	bne	a3,a1,8000153c <_prtX16+0x74>
80001550:	01010113          	addi	sp,sp,16
80001554:	00008067          	ret
80001558:	00800793          	li	a5,8
8000155c:	fd1ff06f          	j	8000152c <_prtX16+0x64>

80001560 <_prtl2>:
80001560:	fd010113          	addi	sp,sp,-48
80001564:	00010623          	sb	zero,12(sp)
80001568:	00c10613          	addi	a2,sp,12
8000156c:	00d10793          	addi	a5,sp,13
80001570:	02d10693          	addi	a3,sp,45
80001574:	00157713          	andi	a4,a0,1
80001578:	03070713          	addi	a4,a4,48
8000157c:	00e78023          	sb	a4,0(a5)
80001580:	00178793          	addi	a5,a5,1
80001584:	40155513          	srai	a0,a0,0x1
80001588:	fed796e3          	bne	a5,a3,80001574 <_prtl2+0x14>
8000158c:	02c14703          	lbu	a4,44(sp)
80001590:	03000793          	li	a5,48
80001594:	06f71063          	bne	a4,a5,800015f4 <_prtl2+0x94>
80001598:	00060713          	mv	a4,a2
8000159c:	03000513          	li	a0,48
800015a0:	01f74683          	lbu	a3,31(a4)
800015a4:	00070793          	mv	a5,a4
800015a8:	fff70713          	addi	a4,a4,-1
800015ac:	fea68ae3          	beq	a3,a0,800015a0 <_prtl2+0x40>
800015b0:	40c787b3          	sub	a5,a5,a2
800015b4:	01f78793          	addi	a5,a5,31
800015b8:	02079663          	bnez	a5,800015e4 <_prtl2+0x84>
800015bc:	00100793          	li	a5,1
800015c0:	00f607b3          	add	a5,a2,a5
800015c4:	0007c683          	lbu	a3,0(a5)
800015c8:	00078713          	mv	a4,a5
800015cc:	00158593          	addi	a1,a1,1
800015d0:	fed58fa3          	sb	a3,-1(a1)
800015d4:	fff78793          	addi	a5,a5,-1
800015d8:	fee616e3          	bne	a2,a4,800015c4 <_prtl2+0x64>
800015dc:	03010113          	addi	sp,sp,48
800015e0:	00008067          	ret
800015e4:	fff00713          	li	a4,-1
800015e8:	fce79ce3          	bne	a5,a4,800015c0 <_prtl2+0x60>
800015ec:	03010113          	addi	sp,sp,48
800015f0:	00008067          	ret
800015f4:	02000793          	li	a5,32
800015f8:	fc9ff06f          	j	800015c0 <_prtl2+0x60>

800015fc <_fdoprnt2>:
800015fc:	f9010113          	addi	sp,sp,-112
80001600:	06912223          	sw	s1,100(sp)
80001604:	07212023          	sw	s2,96(sp)
80001608:	05312e23          	sw	s3,92(sp)
8000160c:	05412c23          	sw	s4,88(sp)
80001610:	05612823          	sw	s6,80(sp)
80001614:	05712623          	sw	s7,76(sp)
80001618:	06112623          	sw	ra,108(sp)
8000161c:	06812423          	sw	s0,104(sp)
80001620:	05812423          	sw	s8,72(sp)
80001624:	00050b13          	mv	s6,a0
80001628:	00058b93          	mv	s7,a1
8000162c:	00060493          	mv	s1,a2
80001630:	00068993          	mv	s3,a3
80001634:	00070913          	mv	s2,a4
80001638:	02500a13          	li	s4,37
8000163c:	000b4603          	lbu	a2,0(s6)
80001640:	001b0413          	addi	s0,s6,1
80001644:	05460a63          	beq	a2,s4,80001698 <_fdoprnt2+0x9c>
80001648:	02060263          	beqz	a2,8000166c <_fdoprnt2+0x70>
8000164c:	00098593          	mv	a1,s3
80001650:	00090513          	mv	a0,s2
80001654:	000480e7          	jalr	s1
80001658:	00044603          	lbu	a2,0(s0)
8000165c:	00140793          	addi	a5,s0,1
80001660:	05460063          	beq	a2,s4,800016a0 <_fdoprnt2+0xa4>
80001664:	00078413          	mv	s0,a5
80001668:	fe0612e3          	bnez	a2,8000164c <_fdoprnt2+0x50>
8000166c:	06c12083          	lw	ra,108(sp)
80001670:	06812403          	lw	s0,104(sp)
80001674:	06412483          	lw	s1,100(sp)
80001678:	06012903          	lw	s2,96(sp)
8000167c:	05c12983          	lw	s3,92(sp)
80001680:	05812a03          	lw	s4,88(sp)
80001684:	05012b03          	lw	s6,80(sp)
80001688:	04c12b83          	lw	s7,76(sp)
8000168c:	04812c03          	lw	s8,72(sp)
80001690:	07010113          	addi	sp,sp,112
80001694:	00008067          	ret
80001698:	00040793          	mv	a5,s0
8000169c:	000b0413          	mv	s0,s6
800016a0:	0007cc03          	lbu	s8,0(a5)
800016a4:	114c0e63          	beq	s8,s4,800017c0 <_fdoprnt2+0x1c4>
800016a8:	05512a23          	sw	s5,84(sp)
800016ac:	05912223          	sw	s9,68(sp)
800016b0:	05a12023          	sw	s10,64(sp)
800016b4:	02d00713          	li	a4,45
800016b8:	000c0613          	mv	a2,s8
800016bc:	0eec0663          	beq	s8,a4,800017a8 <_fdoprnt2+0x1ac>
800016c0:	03000713          	li	a4,48
800016c4:	02000c93          	li	s9,32
800016c8:	0ce60463          	beq	a2,a4,80001790 <_fdoprnt2+0x194>
800016cc:	02a00713          	li	a4,42
800016d0:	04e61a63          	bne	a2,a4,80001724 <_fdoprnt2+0x128>
800016d4:	000bad03          	lw	s10,0(s7)
800016d8:	0017c603          	lbu	a2,1(a5)
800016dc:	004b8b93          	addi	s7,s7,4
800016e0:	00178793          	addi	a5,a5,1
800016e4:	02e00713          	li	a4,46
800016e8:	00000a93          	li	s5,0
800016ec:	08e60263          	beq	a2,a4,80001770 <_fdoprnt2+0x174>
800016f0:	00178b13          	addi	s6,a5,1
800016f4:	48060463          	beqz	a2,80001b7c <_fdoprnt2+0x580>
800016f8:	fa860793          	addi	a5,a2,-88
800016fc:	03b12e23          	sw	s11,60(sp)
80001700:	0ff7f793          	zext.b	a5,a5
80001704:	02000713          	li	a4,32
80001708:	0cf76863          	bltu	a4,a5,800017d8 <_fdoprnt2+0x1dc>
8000170c:	80011737          	lui	a4,0x80011
80001710:	00279793          	slli	a5,a5,0x2
80001714:	adc70713          	addi	a4,a4,-1316 # 80010adc <_ctype_+0xc70>
80001718:	00e787b3          	add	a5,a5,a4
8000171c:	0007a783          	lw	a5,0(a5)
80001720:	00078067          	jr	a5
80001724:	fd060713          	addi	a4,a2,-48
80001728:	0ff77713          	zext.b	a4,a4
8000172c:	00900593          	li	a1,9
80001730:	00000d13          	li	s10,0
80001734:	00900693          	li	a3,9
80001738:	fae5e6e3          	bltu	a1,a4,800016e4 <_fdoprnt2+0xe8>
8000173c:	002d1713          	slli	a4,s10,0x2
80001740:	01a70733          	add	a4,a4,s10
80001744:	00178793          	addi	a5,a5,1
80001748:	00171713          	slli	a4,a4,0x1
8000174c:	00c70733          	add	a4,a4,a2
80001750:	0007c603          	lbu	a2,0(a5)
80001754:	fd070d13          	addi	s10,a4,-48
80001758:	fd060713          	addi	a4,a2,-48
8000175c:	0ff77713          	zext.b	a4,a4
80001760:	fce6fee3          	bgeu	a3,a4,8000173c <_fdoprnt2+0x140>
80001764:	02e00713          	li	a4,46
80001768:	00000a93          	li	s5,0
8000176c:	f8e612e3          	bne	a2,a4,800016f0 <_fdoprnt2+0xf4>
80001770:	0017c603          	lbu	a2,1(a5)
80001774:	02a00713          	li	a4,42
80001778:	0ee61e63          	bne	a2,a4,80001874 <_fdoprnt2+0x278>
8000177c:	000baa83          	lw	s5,0(s7)
80001780:	0027c603          	lbu	a2,2(a5)
80001784:	004b8b93          	addi	s7,s7,4
80001788:	00278793          	addi	a5,a5,2
8000178c:	f65ff06f          	j	800016f0 <_fdoprnt2+0xf4>
80001790:	0017c603          	lbu	a2,1(a5)
80001794:	02a00713          	li	a4,42
80001798:	03000c93          	li	s9,48
8000179c:	00178793          	addi	a5,a5,1
800017a0:	f2e60ae3          	beq	a2,a4,800016d4 <_fdoprnt2+0xd8>
800017a4:	f81ff06f          	j	80001724 <_fdoprnt2+0x128>
800017a8:	00244603          	lbu	a2,2(s0)
800017ac:	03000713          	li	a4,48
800017b0:	00240793          	addi	a5,s0,2
800017b4:	02000c93          	li	s9,32
800017b8:	f0e61ae3          	bne	a2,a4,800016cc <_fdoprnt2+0xd0>
800017bc:	fd5ff06f          	j	80001790 <_fdoprnt2+0x194>
800017c0:	02500613          	li	a2,37
800017c4:	00098593          	mv	a1,s3
800017c8:	00090513          	mv	a0,s2
800017cc:	00240b13          	addi	s6,s0,2
800017d0:	000480e7          	jalr	s1
800017d4:	e69ff06f          	j	8000163c <_fdoprnt2+0x40>
800017d8:	00098593          	mv	a1,s3
800017dc:	00090513          	mv	a0,s2
800017e0:	000480e7          	jalr	s1
800017e4:	01c14783          	lbu	a5,28(sp)
800017e8:	00012623          	sw	zero,12(sp)
800017ec:	000a8713          	mv	a4,s5
800017f0:	01c10d93          	addi	s11,sp,28
800017f4:	0c078263          	beqz	a5,800018b8 <_fdoprnt2+0x2bc>
800017f8:	00000413          	li	s0,0
800017fc:	00140413          	addi	s0,s0,1
80001800:	008d87b3          	add	a5,s11,s0
80001804:	0007c783          	lbu	a5,0(a5)
80001808:	fe079ae3          	bnez	a5,800017fc <_fdoprnt2+0x200>
8000180c:	05000793          	li	a5,80
80001810:	21a7fc63          	bgeu	a5,s10,80001a28 <_fdoprnt2+0x42c>
80001814:	1ee7e263          	bltu	a5,a4,800019f8 <_fdoprnt2+0x3fc>
80001818:	1e0a8063          	beqz	s5,800019f8 <_fdoprnt2+0x3fc>
8000181c:	2c8ac263          	blt	s5,s0,80001ae0 <_fdoprnt2+0x4e4>
80001820:	00c12703          	lw	a4,12(sp)
80001824:	02d00793          	li	a5,45
80001828:	32f70263          	beq	a4,a5,80001b4c <_fdoprnt2+0x550>
8000182c:	28fc1e63          	bne	s8,a5,80001ac8 <_fdoprnt2+0x4cc>
80001830:	00000d13          	li	s10,0
80001834:	02040663          	beqz	s0,80001860 <_fdoprnt2+0x264>
80001838:	00000a93          	li	s5,0
8000183c:	015d87b3          	add	a5,s11,s5
80001840:	0007c603          	lbu	a2,0(a5)
80001844:	00098593          	mv	a1,s3
80001848:	00090513          	mv	a0,s2
8000184c:	001a8a93          	addi	s5,s5,1
80001850:	000480e7          	jalr	s1
80001854:	fe8ac4e3          	blt	s5,s0,8000183c <_fdoprnt2+0x240>
80001858:	02d00793          	li	a5,45
8000185c:	1efc0e63          	beq	s8,a5,80001a58 <_fdoprnt2+0x45c>
80001860:	05412a83          	lw	s5,84(sp)
80001864:	04412c83          	lw	s9,68(sp)
80001868:	04012d03          	lw	s10,64(sp)
8000186c:	03c12d83          	lw	s11,60(sp)
80001870:	dcdff06f          	j	8000163c <_fdoprnt2+0x40>
80001874:	fd060713          	addi	a4,a2,-48
80001878:	0ff77713          	zext.b	a4,a4
8000187c:	00900513          	li	a0,9
80001880:	00178793          	addi	a5,a5,1
80001884:	00900593          	li	a1,9
80001888:	e6e564e3          	bltu	a0,a4,800016f0 <_fdoprnt2+0xf4>
8000188c:	002a9713          	slli	a4,s5,0x2
80001890:	01570733          	add	a4,a4,s5
80001894:	00178793          	addi	a5,a5,1
80001898:	00171713          	slli	a4,a4,0x1
8000189c:	00c70733          	add	a4,a4,a2
800018a0:	0007c603          	lbu	a2,0(a5)
800018a4:	fd070a93          	addi	s5,a4,-48
800018a8:	fd060713          	addi	a4,a2,-48
800018ac:	0ff77713          	zext.b	a4,a4
800018b0:	fce5fee3          	bgeu	a1,a4,8000188c <_fdoprnt2+0x290>
800018b4:	e3dff06f          	j	800016f0 <_fdoprnt2+0xf4>
800018b8:	00000413          	li	s0,0
800018bc:	f51ff06f          	j	8000180c <_fdoprnt2+0x210>
800018c0:	000ba503          	lw	a0,0(s7)
800018c4:	01c10593          	addi	a1,sp,28
800018c8:	004b8b93          	addi	s7,s7,4
800018cc:	b65ff0ef          	jal	80001430 <_prtl16>
800018d0:	01c14783          	lbu	a5,28(sp)
800018d4:	00012623          	sw	zero,12(sp)
800018d8:	00000713          	li	a4,0
800018dc:	00000a93          	li	s5,0
800018e0:	01c10d93          	addi	s11,sp,28
800018e4:	f0079ae3          	bnez	a5,800017f8 <_fdoprnt2+0x1fc>
800018e8:	fd1ff06f          	j	800018b8 <_fdoprnt2+0x2bc>
800018ec:	000ba503          	lw	a0,0(s7)
800018f0:	00000413          	li	s0,0
800018f4:	004b8b93          	addi	s7,s7,4
800018f8:	00055a63          	bgez	a0,8000190c <_fdoprnt2+0x310>
800018fc:	88ca77b7          	lui	a5,0x88ca7
80001900:	c0078793          	addi	a5,a5,-1024 # 88ca6c00 <fs+0x8c29c00>
80001904:	00f50533          	add	a0,a0,a5
80001908:	00200413          	li	s0,2
8000190c:	01c10593          	addi	a1,sp,28
80001910:	9ddff0ef          	jal	800012ec <_prtl10>
80001914:	01c14783          	lbu	a5,28(sp)
80001918:	00012623          	sw	zero,12(sp)
8000191c:	00000713          	li	a4,0
80001920:	00f407b3          	add	a5,s0,a5
80001924:	0ff7f793          	zext.b	a5,a5
80001928:	00f10e23          	sb	a5,28(sp)
8000192c:	00000a93          	li	s5,0
80001930:	01c10d93          	addi	s11,sp,28
80001934:	ec0792e3          	bnez	a5,800017f8 <_fdoprnt2+0x1fc>
80001938:	f81ff06f          	j	800018b8 <_fdoprnt2+0x2bc>
8000193c:	000bad83          	lw	s11,0(s7)
80001940:	000a8713          	mv	a4,s5
80001944:	004b8b93          	addi	s7,s7,4
80001948:	1a0d8863          	beqz	s11,80001af8 <_fdoprnt2+0x4fc>
8000194c:	000dc783          	lbu	a5,0(s11)
80001950:	00012623          	sw	zero,12(sp)
80001954:	02000c93          	li	s9,32
80001958:	ea0790e3          	bnez	a5,800017f8 <_fdoprnt2+0x1fc>
8000195c:	f5dff06f          	j	800018b8 <_fdoprnt2+0x2bc>
80001960:	000ba503          	lw	a0,0(s7)
80001964:	01c10593          	addi	a1,sp,28
80001968:	004b8b93          	addi	s7,s7,4
8000196c:	a21ff0ef          	jal	8000138c <_prtl8>
80001970:	f61ff06f          	j	800018d0 <_fdoprnt2+0x2d4>
80001974:	000ba503          	lw	a0,0(s7)
80001978:	00012623          	sw	zero,12(sp)
8000197c:	004b8b93          	addi	s7,s7,4
80001980:	16054463          	bltz	a0,80001ae8 <_fdoprnt2+0x4ec>
80001984:	01c10593          	addi	a1,sp,28
80001988:	965ff0ef          	jal	800012ec <_prtl10>
8000198c:	01c14783          	lbu	a5,28(sp)
80001990:	000a8713          	mv	a4,s5
80001994:	01c10d93          	addi	s11,sp,28
80001998:	e60790e3          	bnez	a5,800017f8 <_fdoprnt2+0x1fc>
8000199c:	f1dff06f          	j	800018b8 <_fdoprnt2+0x2bc>
800019a0:	000bc783          	lbu	a5,0(s7)
800019a4:	00010ea3          	sb	zero,29(sp)
800019a8:	00012623          	sw	zero,12(sp)
800019ac:	00f10e23          	sb	a5,28(sp)
800019b0:	004b8b93          	addi	s7,s7,4
800019b4:	00000713          	li	a4,0
800019b8:	00000a93          	li	s5,0
800019bc:	02000c93          	li	s9,32
800019c0:	01c10d93          	addi	s11,sp,28
800019c4:	e2079ae3          	bnez	a5,800017f8 <_fdoprnt2+0x1fc>
800019c8:	ef1ff06f          	j	800018b8 <_fdoprnt2+0x2bc>
800019cc:	000ba503          	lw	a0,0(s7)
800019d0:	01c10593          	addi	a1,sp,28
800019d4:	004b8b93          	addi	s7,s7,4
800019d8:	b89ff0ef          	jal	80001560 <_prtl2>
800019dc:	ef5ff06f          	j	800018d0 <_fdoprnt2+0x2d4>
800019e0:	000ba503          	lw	a0,0(s7)
800019e4:	01c10593          	addi	a1,sp,28
800019e8:	004b8b93          	addi	s7,s7,4
800019ec:	addff0ef          	jal	800014c8 <_prtX16>
800019f0:	ee1ff06f          	j	800018d0 <_fdoprnt2+0x2d4>
800019f4:	040d1663          	bnez	s10,80001a40 <_fdoprnt2+0x444>
800019f8:	00c12703          	lw	a4,12(sp)
800019fc:	02d00793          	li	a5,45
80001a00:	0af71c63          	bne	a4,a5,80001ab8 <_fdoprnt2+0x4bc>
80001a04:	03000793          	li	a5,48
80001a08:	00000d13          	li	s10,0
80001a0c:	10fc8e63          	beq	s9,a5,80001b28 <_fdoprnt2+0x52c>
80001a10:	02d00613          	li	a2,45
80001a14:	00098593          	mv	a1,s3
80001a18:	00090513          	mv	a0,s2
80001a1c:	000480e7          	jalr	s1
80001a20:	e0041ce3          	bnez	s0,80001838 <_fdoprnt2+0x23c>
80001a24:	e35ff06f          	j	80001858 <_fdoprnt2+0x25c>
80001a28:	fce7e6e3          	bltu	a5,a4,800019f4 <_fdoprnt2+0x3f8>
80001a2c:	015d67b3          	or	a5,s10,s5
80001a30:	fc0784e3          	beqz	a5,800019f8 <_fdoprnt2+0x3fc>
80001a34:	000a8463          	beqz	s5,80001a3c <_fdoprnt2+0x440>
80001a38:	088ace63          	blt	s5,s0,80001ad4 <_fdoprnt2+0x4d8>
80001a3c:	de0d02e3          	beqz	s10,80001820 <_fdoprnt2+0x224>
80001a40:	00c12703          	lw	a4,12(sp)
80001a44:	02d00793          	li	a5,45
80001a48:	408d0d33          	sub	s10,s10,s0
80001a4c:	0cf70063          	beq	a4,a5,80001b0c <_fdoprnt2+0x510>
80001a50:	02fc1663          	bne	s8,a5,80001a7c <_fdoprnt2+0x480>
80001a54:	de0412e3          	bnez	s0,80001838 <_fdoprnt2+0x23c>
80001a58:	e1a054e3          	blez	s10,80001860 <_fdoprnt2+0x264>
80001a5c:	00000413          	li	s0,0
80001a60:	000c8613          	mv	a2,s9
80001a64:	00098593          	mv	a1,s3
80001a68:	00090513          	mv	a0,s2
80001a6c:	00140413          	addi	s0,s0,1
80001a70:	000480e7          	jalr	s1
80001a74:	ffa416e3          	bne	s0,s10,80001a60 <_fdoprnt2+0x464>
80001a78:	de9ff06f          	j	80001860 <_fdoprnt2+0x264>
80001a7c:	dba05ee3          	blez	s10,80001838 <_fdoprnt2+0x23c>
80001a80:	00000a93          	li	s5,0
80001a84:	000c8613          	mv	a2,s9
80001a88:	00098593          	mv	a1,s3
80001a8c:	00090513          	mv	a0,s2
80001a90:	001a8a93          	addi	s5,s5,1
80001a94:	000480e7          	jalr	s1
80001a98:	ffaac6e3          	blt	s5,s10,80001a84 <_fdoprnt2+0x488>
80001a9c:	00c12703          	lw	a4,12(sp)
80001aa0:	02d00793          	li	a5,45
80001aa4:	02f71463          	bne	a4,a5,80001acc <_fdoprnt2+0x4d0>
80001aa8:	02000793          	li	a5,32
80001aac:	f6fc82e3          	beq	s9,a5,80001a10 <_fdoprnt2+0x414>
80001ab0:	d80414e3          	bnez	s0,80001838 <_fdoprnt2+0x23c>
80001ab4:	da5ff06f          	j	80001858 <_fdoprnt2+0x25c>
80001ab8:	00fc1863          	bne	s8,a5,80001ac8 <_fdoprnt2+0x4cc>
80001abc:	da0402e3          	beqz	s0,80001860 <_fdoprnt2+0x264>
80001ac0:	00000d13          	li	s10,0
80001ac4:	d75ff06f          	j	80001838 <_fdoprnt2+0x23c>
80001ac8:	00000d13          	li	s10,0
80001acc:	d60416e3          	bnez	s0,80001838 <_fdoprnt2+0x23c>
80001ad0:	d91ff06f          	j	80001860 <_fdoprnt2+0x264>
80001ad4:	000a8413          	mv	s0,s5
80001ad8:	d40d04e3          	beqz	s10,80001820 <_fdoprnt2+0x224>
80001adc:	f65ff06f          	j	80001a40 <_fdoprnt2+0x444>
80001ae0:	000a8413          	mv	s0,s5
80001ae4:	d3dff06f          	j	80001820 <_fdoprnt2+0x224>
80001ae8:	02d00793          	li	a5,45
80001aec:	40a00533          	neg	a0,a0
80001af0:	00f12623          	sw	a5,12(sp)
80001af4:	e91ff06f          	j	80001984 <_fdoprnt2+0x388>
80001af8:	80010db7          	lui	s11,0x80010
80001afc:	00012623          	sw	zero,12(sp)
80001b00:	02000c93          	li	s9,32
80001b04:	f18d8d93          	addi	s11,s11,-232 # 8000ff18 <_ctype_+0xac>
80001b08:	cf1ff06f          	j	800017f8 <_fdoprnt2+0x1fc>
80001b0c:	03000793          	li	a5,48
80001b10:	fffd0d13          	addi	s10,s10,-1
80001b14:	04fc8263          	beq	s9,a5,80001b58 <_fdoprnt2+0x55c>
80001b18:	00c12783          	lw	a5,12(sp)
80001b1c:	eefc0ae3          	beq	s8,a5,80001a10 <_fdoprnt2+0x414>
80001b20:	f7a040e3          	bgtz	s10,80001a80 <_fdoprnt2+0x484>
80001b24:	eedff06f          	j	80001a10 <_fdoprnt2+0x414>
80001b28:	02d00613          	li	a2,45
80001b2c:	00098593          	mv	a1,s3
80001b30:	00090513          	mv	a0,s2
80001b34:	000480e7          	jalr	s1
80001b38:	00c12783          	lw	a5,12(sp)
80001b3c:	f8fc00e3          	beq	s8,a5,80001abc <_fdoprnt2+0x4c0>
80001b40:	00000d13          	li	s10,0
80001b44:	ce041ae3          	bnez	s0,80001838 <_fdoprnt2+0x23c>
80001b48:	d11ff06f          	j	80001858 <_fdoprnt2+0x25c>
80001b4c:	03000793          	li	a5,48
80001b50:	fff00d13          	li	s10,-1
80001b54:	eafc9ee3          	bne	s9,a5,80001a10 <_fdoprnt2+0x414>
80001b58:	02d00613          	li	a2,45
80001b5c:	00098593          	mv	a1,s3
80001b60:	00090513          	mv	a0,s2
80001b64:	000480e7          	jalr	s1
80001b68:	02d00793          	li	a5,45
80001b6c:	eefc04e3          	beq	s8,a5,80001a54 <_fdoprnt2+0x458>
80001b70:	f1a048e3          	bgtz	s10,80001a80 <_fdoprnt2+0x484>
80001b74:	cc0412e3          	bnez	s0,80001838 <_fdoprnt2+0x23c>
80001b78:	ce9ff06f          	j	80001860 <_fdoprnt2+0x264>
80001b7c:	06812403          	lw	s0,104(sp)
80001b80:	05412a83          	lw	s5,84(sp)
80001b84:	04412c83          	lw	s9,68(sp)
80001b88:	04012d03          	lw	s10,64(sp)
80001b8c:	06c12083          	lw	ra,108(sp)
80001b90:	05812a03          	lw	s4,88(sp)
80001b94:	05012b03          	lw	s6,80(sp)
80001b98:	04c12b83          	lw	s7,76(sp)
80001b9c:	04812c03          	lw	s8,72(sp)
80001ba0:	00098593          	mv	a1,s3
80001ba4:	00090513          	mv	a0,s2
80001ba8:	05c12983          	lw	s3,92(sp)
80001bac:	06012903          	lw	s2,96(sp)
80001bb0:	00048793          	mv	a5,s1
80001bb4:	06412483          	lw	s1,100(sp)
80001bb8:	02500613          	li	a2,37
80001bbc:	07010113          	addi	sp,sp,112
80001bc0:	00078067          	jr	a5

80001bc4 <_fdoprnt>:
80001bc4:	fa010113          	addi	sp,sp,-96
80001bc8:	04912a23          	sw	s1,84(sp)
80001bcc:	05212823          	sw	s2,80(sp)
80001bd0:	05312623          	sw	s3,76(sp)
80001bd4:	05512223          	sw	s5,68(sp)
80001bd8:	03812c23          	sw	s8,56(sp)
80001bdc:	04112e23          	sw	ra,92(sp)
80001be0:	04812c23          	sw	s0,88(sp)
80001be4:	05612023          	sw	s6,64(sp)
80001be8:	00050c13          	mv	s8,a0
80001bec:	00058a93          	mv	s5,a1
80001bf0:	00060493          	mv	s1,a2
80001bf4:	00068913          	mv	s2,a3
80001bf8:	02500993          	li	s3,37
80001bfc:	000c4583          	lbu	a1,0(s8)
80001c00:	001c0413          	addi	s0,s8,1
80001c04:	05358663          	beq	a1,s3,80001c50 <_fdoprnt+0x8c>
80001c08:	02058063          	beqz	a1,80001c28 <_fdoprnt+0x64>
80001c0c:	00090513          	mv	a0,s2
80001c10:	000480e7          	jalr	s1
80001c14:	00044583          	lbu	a1,0(s0)
80001c18:	00140793          	addi	a5,s0,1
80001c1c:	03358e63          	beq	a1,s3,80001c58 <_fdoprnt+0x94>
80001c20:	00078413          	mv	s0,a5
80001c24:	fe0594e3          	bnez	a1,80001c0c <_fdoprnt+0x48>
80001c28:	05c12083          	lw	ra,92(sp)
80001c2c:	05812403          	lw	s0,88(sp)
80001c30:	05412483          	lw	s1,84(sp)
80001c34:	05012903          	lw	s2,80(sp)
80001c38:	04c12983          	lw	s3,76(sp)
80001c3c:	04412a83          	lw	s5,68(sp)
80001c40:	04012b03          	lw	s6,64(sp)
80001c44:	03812c03          	lw	s8,56(sp)
80001c48:	06010113          	addi	sp,sp,96
80001c4c:	00008067          	ret
80001c50:	00040793          	mv	a5,s0
80001c54:	000c0413          	mv	s0,s8
80001c58:	0007cb03          	lbu	s6,0(a5)
80001c5c:	133b0063          	beq	s6,s3,80001d7c <_fdoprnt+0x1b8>
80001c60:	03712e23          	sw	s7,60(sp)
80001c64:	03912a23          	sw	s9,52(sp)
80001c68:	03b12623          	sw	s11,44(sp)
80001c6c:	02d00713          	li	a4,45
80001c70:	000b0593          	mv	a1,s6
80001c74:	0eeb0863          	beq	s6,a4,80001d64 <_fdoprnt+0x1a0>
80001c78:	03000713          	li	a4,48
80001c7c:	02000b93          	li	s7,32
80001c80:	0ce58663          	beq	a1,a4,80001d4c <_fdoprnt+0x188>
80001c84:	02a00713          	li	a4,42
80001c88:	04e59c63          	bne	a1,a4,80001ce0 <_fdoprnt+0x11c>
80001c8c:	000aac83          	lw	s9,0(s5)
80001c90:	0017c583          	lbu	a1,1(a5)
80001c94:	004a8a93          	addi	s5,s5,4
80001c98:	00178793          	addi	a5,a5,1
80001c9c:	02e00713          	li	a4,46
80001ca0:	00000d93          	li	s11,0
80001ca4:	08e58463          	beq	a1,a4,80001d2c <_fdoprnt+0x168>
80001ca8:	00178c13          	addi	s8,a5,1
80001cac:	44058a63          	beqz	a1,80002100 <_fdoprnt+0x53c>
80001cb0:	fa858793          	addi	a5,a1,-88
80001cb4:	05412423          	sw	s4,72(sp)
80001cb8:	03a12823          	sw	s10,48(sp)
80001cbc:	0ff7f793          	zext.b	a5,a5
80001cc0:	02000713          	li	a4,32
80001cc4:	0cf76663          	bltu	a4,a5,80001d90 <_fdoprnt+0x1cc>
80001cc8:	80011737          	lui	a4,0x80011
80001ccc:	00279793          	slli	a5,a5,0x2
80001cd0:	b6070713          	addi	a4,a4,-1184 # 80010b60 <_ctype_+0xcf4>
80001cd4:	00e787b3          	add	a5,a5,a4
80001cd8:	0007a783          	lw	a5,0(a5)
80001cdc:	00078067          	jr	a5
80001ce0:	fd058713          	addi	a4,a1,-48
80001ce4:	0ff77713          	zext.b	a4,a4
80001ce8:	00900613          	li	a2,9
80001cec:	00000c93          	li	s9,0
80001cf0:	00900693          	li	a3,9
80001cf4:	fae664e3          	bltu	a2,a4,80001c9c <_fdoprnt+0xd8>
80001cf8:	002c9713          	slli	a4,s9,0x2
80001cfc:	01970733          	add	a4,a4,s9
80001d00:	00178793          	addi	a5,a5,1
80001d04:	00171713          	slli	a4,a4,0x1
80001d08:	00b70733          	add	a4,a4,a1
80001d0c:	0007c583          	lbu	a1,0(a5)
80001d10:	fd070c93          	addi	s9,a4,-48
80001d14:	fd058713          	addi	a4,a1,-48
80001d18:	0ff77713          	zext.b	a4,a4
80001d1c:	fce6fee3          	bgeu	a3,a4,80001cf8 <_fdoprnt+0x134>
80001d20:	02e00713          	li	a4,46
80001d24:	00000d93          	li	s11,0
80001d28:	f8e590e3          	bne	a1,a4,80001ca8 <_fdoprnt+0xe4>
80001d2c:	0017c583          	lbu	a1,1(a5)
80001d30:	02a00713          	li	a4,42
80001d34:	0ee59863          	bne	a1,a4,80001e24 <_fdoprnt+0x260>
80001d38:	000aad83          	lw	s11,0(s5)
80001d3c:	0027c583          	lbu	a1,2(a5)
80001d40:	004a8a93          	addi	s5,s5,4
80001d44:	00278793          	addi	a5,a5,2
80001d48:	f61ff06f          	j	80001ca8 <_fdoprnt+0xe4>
80001d4c:	0017c583          	lbu	a1,1(a5)
80001d50:	02a00713          	li	a4,42
80001d54:	03000b93          	li	s7,48
80001d58:	00178793          	addi	a5,a5,1
80001d5c:	f2e588e3          	beq	a1,a4,80001c8c <_fdoprnt+0xc8>
80001d60:	f81ff06f          	j	80001ce0 <_fdoprnt+0x11c>
80001d64:	00244583          	lbu	a1,2(s0)
80001d68:	03000713          	li	a4,48
80001d6c:	00240793          	addi	a5,s0,2
80001d70:	02000b93          	li	s7,32
80001d74:	f0e598e3          	bne	a1,a4,80001c84 <_fdoprnt+0xc0>
80001d78:	fd5ff06f          	j	80001d4c <_fdoprnt+0x188>
80001d7c:	02500593          	li	a1,37
80001d80:	00090513          	mv	a0,s2
80001d84:	00240c13          	addi	s8,s0,2
80001d88:	000480e7          	jalr	s1
80001d8c:	e71ff06f          	j	80001bfc <_fdoprnt+0x38>
80001d90:	00090513          	mv	a0,s2
80001d94:	000480e7          	jalr	s1
80001d98:	00c14783          	lbu	a5,12(sp)
80001d9c:	000d8713          	mv	a4,s11
80001da0:	00000a13          	li	s4,0
80001da4:	00c10d13          	addi	s10,sp,12
80001da8:	0c078063          	beqz	a5,80001e68 <_fdoprnt+0x2a4>
80001dac:	00000413          	li	s0,0
80001db0:	00140413          	addi	s0,s0,1
80001db4:	008d07b3          	add	a5,s10,s0
80001db8:	0007c783          	lbu	a5,0(a5)
80001dbc:	fe079ae3          	bnez	a5,80001db0 <_fdoprnt+0x1ec>
80001dc0:	05000793          	li	a5,80
80001dc4:	2197f663          	bgeu	a5,s9,80001fd0 <_fdoprnt+0x40c>
80001dc8:	1ee7e063          	bltu	a5,a4,80001fa8 <_fdoprnt+0x3e4>
80001dcc:	1c0d8e63          	beqz	s11,80001fa8 <_fdoprnt+0x3e4>
80001dd0:	2a8dc463          	blt	s11,s0,80002078 <_fdoprnt+0x4b4>
80001dd4:	02d00793          	li	a5,45
80001dd8:	2efa0e63          	beq	s4,a5,800020d4 <_fdoprnt+0x510>
80001ddc:	28fb1263          	bne	s6,a5,80002060 <_fdoprnt+0x49c>
80001de0:	00000c93          	li	s9,0
80001de4:	02040463          	beqz	s0,80001e0c <_fdoprnt+0x248>
80001de8:	00000a13          	li	s4,0
80001dec:	014d07b3          	add	a5,s10,s4
80001df0:	0007c583          	lbu	a1,0(a5)
80001df4:	00090513          	mv	a0,s2
80001df8:	001a0a13          	addi	s4,s4,1
80001dfc:	000480e7          	jalr	s1
80001e00:	fe8a46e3          	blt	s4,s0,80001dec <_fdoprnt+0x228>
80001e04:	02d00793          	li	a5,45
80001e08:	1efb0a63          	beq	s6,a5,80001ffc <_fdoprnt+0x438>
80001e0c:	04812a03          	lw	s4,72(sp)
80001e10:	03c12b83          	lw	s7,60(sp)
80001e14:	03412c83          	lw	s9,52(sp)
80001e18:	03012d03          	lw	s10,48(sp)
80001e1c:	02c12d83          	lw	s11,44(sp)
80001e20:	dddff06f          	j	80001bfc <_fdoprnt+0x38>
80001e24:	fd058713          	addi	a4,a1,-48
80001e28:	0ff77713          	zext.b	a4,a4
80001e2c:	00900613          	li	a2,9
80001e30:	00178793          	addi	a5,a5,1
80001e34:	00900693          	li	a3,9
80001e38:	e6e668e3          	bltu	a2,a4,80001ca8 <_fdoprnt+0xe4>
80001e3c:	002d9713          	slli	a4,s11,0x2
80001e40:	01b70733          	add	a4,a4,s11
80001e44:	00178793          	addi	a5,a5,1
80001e48:	00171713          	slli	a4,a4,0x1
80001e4c:	00b70733          	add	a4,a4,a1
80001e50:	0007c583          	lbu	a1,0(a5)
80001e54:	fd070d93          	addi	s11,a4,-48
80001e58:	fd058713          	addi	a4,a1,-48
80001e5c:	0ff77713          	zext.b	a4,a4
80001e60:	fce6fee3          	bgeu	a3,a4,80001e3c <_fdoprnt+0x278>
80001e64:	e45ff06f          	j	80001ca8 <_fdoprnt+0xe4>
80001e68:	00000413          	li	s0,0
80001e6c:	f55ff06f          	j	80001dc0 <_fdoprnt+0x1fc>
80001e70:	000aa503          	lw	a0,0(s5)
80001e74:	00c10593          	addi	a1,sp,12
80001e78:	004a8a93          	addi	s5,s5,4
80001e7c:	db4ff0ef          	jal	80001430 <_prtl16>
80001e80:	00c14783          	lbu	a5,12(sp)
80001e84:	00000713          	li	a4,0
80001e88:	00000a13          	li	s4,0
80001e8c:	00000d93          	li	s11,0
80001e90:	00c10d13          	addi	s10,sp,12
80001e94:	f0079ce3          	bnez	a5,80001dac <_fdoprnt+0x1e8>
80001e98:	fd1ff06f          	j	80001e68 <_fdoprnt+0x2a4>
80001e9c:	000aa503          	lw	a0,0(s5)
80001ea0:	00000413          	li	s0,0
80001ea4:	004a8a93          	addi	s5,s5,4
80001ea8:	00055a63          	bgez	a0,80001ebc <_fdoprnt+0x2f8>
80001eac:	88ca77b7          	lui	a5,0x88ca7
80001eb0:	c0078793          	addi	a5,a5,-1024 # 88ca6c00 <fs+0x8c29c00>
80001eb4:	00f50533          	add	a0,a0,a5
80001eb8:	00200413          	li	s0,2
80001ebc:	00c10593          	addi	a1,sp,12
80001ec0:	c2cff0ef          	jal	800012ec <_prtl10>
80001ec4:	00c14783          	lbu	a5,12(sp)
80001ec8:	00000713          	li	a4,0
80001ecc:	00000a13          	li	s4,0
80001ed0:	00f407b3          	add	a5,s0,a5
80001ed4:	0ff7f793          	zext.b	a5,a5
80001ed8:	00f10623          	sb	a5,12(sp)
80001edc:	00000d93          	li	s11,0
80001ee0:	00c10d13          	addi	s10,sp,12
80001ee4:	ec0794e3          	bnez	a5,80001dac <_fdoprnt+0x1e8>
80001ee8:	f81ff06f          	j	80001e68 <_fdoprnt+0x2a4>
80001eec:	000aad03          	lw	s10,0(s5)
80001ef0:	000d8713          	mv	a4,s11
80001ef4:	004a8a93          	addi	s5,s5,4
80001ef8:	180d0a63          	beqz	s10,8000208c <_fdoprnt+0x4c8>
80001efc:	000d4783          	lbu	a5,0(s10)
80001f00:	00000a13          	li	s4,0
80001f04:	02000b93          	li	s7,32
80001f08:	ea0792e3          	bnez	a5,80001dac <_fdoprnt+0x1e8>
80001f0c:	f5dff06f          	j	80001e68 <_fdoprnt+0x2a4>
80001f10:	000aa503          	lw	a0,0(s5)
80001f14:	00c10593          	addi	a1,sp,12
80001f18:	004a8a93          	addi	s5,s5,4
80001f1c:	c70ff0ef          	jal	8000138c <_prtl8>
80001f20:	f61ff06f          	j	80001e80 <_fdoprnt+0x2bc>
80001f24:	000aa503          	lw	a0,0(s5)
80001f28:	00000a13          	li	s4,0
80001f2c:	004a8a93          	addi	s5,s5,4
80001f30:	14054863          	bltz	a0,80002080 <_fdoprnt+0x4bc>
80001f34:	00c10593          	addi	a1,sp,12
80001f38:	bb4ff0ef          	jal	800012ec <_prtl10>
80001f3c:	00c14783          	lbu	a5,12(sp)
80001f40:	000d8713          	mv	a4,s11
80001f44:	00c10d13          	addi	s10,sp,12
80001f48:	e60792e3          	bnez	a5,80001dac <_fdoprnt+0x1e8>
80001f4c:	f1dff06f          	j	80001e68 <_fdoprnt+0x2a4>
80001f50:	000ac783          	lbu	a5,0(s5)
80001f54:	000106a3          	sb	zero,13(sp)
80001f58:	004a8a93          	addi	s5,s5,4
80001f5c:	00f10623          	sb	a5,12(sp)
80001f60:	00000713          	li	a4,0
80001f64:	00000a13          	li	s4,0
80001f68:	00000d93          	li	s11,0
80001f6c:	02000b93          	li	s7,32
80001f70:	00c10d13          	addi	s10,sp,12
80001f74:	e2079ce3          	bnez	a5,80001dac <_fdoprnt+0x1e8>
80001f78:	ef1ff06f          	j	80001e68 <_fdoprnt+0x2a4>
80001f7c:	000aa503          	lw	a0,0(s5)
80001f80:	00c10593          	addi	a1,sp,12
80001f84:	004a8a93          	addi	s5,s5,4
80001f88:	dd8ff0ef          	jal	80001560 <_prtl2>
80001f8c:	ef5ff06f          	j	80001e80 <_fdoprnt+0x2bc>
80001f90:	000aa503          	lw	a0,0(s5)
80001f94:	00c10593          	addi	a1,sp,12
80001f98:	004a8a93          	addi	s5,s5,4
80001f9c:	d2cff0ef          	jal	800014c8 <_prtX16>
80001fa0:	ee1ff06f          	j	80001e80 <_fdoprnt+0x2bc>
80001fa4:	040c9263          	bnez	s9,80001fe8 <_fdoprnt+0x424>
80001fa8:	02d00793          	li	a5,45
80001fac:	0afa1263          	bne	s4,a5,80002050 <_fdoprnt+0x48c>
80001fb0:	03000793          	li	a5,48
80001fb4:	00000c93          	li	s9,0
80001fb8:	10fb8063          	beq	s7,a5,800020b8 <_fdoprnt+0x4f4>
80001fbc:	02d00593          	li	a1,45
80001fc0:	00090513          	mv	a0,s2
80001fc4:	000480e7          	jalr	s1
80001fc8:	e20410e3          	bnez	s0,80001de8 <_fdoprnt+0x224>
80001fcc:	e39ff06f          	j	80001e04 <_fdoprnt+0x240>
80001fd0:	fce7eae3          	bltu	a5,a4,80001fa4 <_fdoprnt+0x3e0>
80001fd4:	01bce7b3          	or	a5,s9,s11
80001fd8:	fc0788e3          	beqz	a5,80001fa8 <_fdoprnt+0x3e4>
80001fdc:	000d8463          	beqz	s11,80001fe4 <_fdoprnt+0x420>
80001fe0:	088dc663          	blt	s11,s0,8000206c <_fdoprnt+0x4a8>
80001fe4:	de0c88e3          	beqz	s9,80001dd4 <_fdoprnt+0x210>
80001fe8:	02d00793          	li	a5,45
80001fec:	408c8cb3          	sub	s9,s9,s0
80001ff0:	0afa0863          	beq	s4,a5,800020a0 <_fdoprnt+0x4dc>
80001ff4:	02fb1463          	bne	s6,a5,8000201c <_fdoprnt+0x458>
80001ff8:	de0418e3          	bnez	s0,80001de8 <_fdoprnt+0x224>
80001ffc:	e19058e3          	blez	s9,80001e0c <_fdoprnt+0x248>
80002000:	00000413          	li	s0,0
80002004:	000b8593          	mv	a1,s7
80002008:	00090513          	mv	a0,s2
8000200c:	00140413          	addi	s0,s0,1
80002010:	000480e7          	jalr	s1
80002014:	ff9418e3          	bne	s0,s9,80002004 <_fdoprnt+0x440>
80002018:	df5ff06f          	j	80001e0c <_fdoprnt+0x248>
8000201c:	dd9056e3          	blez	s9,80001de8 <_fdoprnt+0x224>
80002020:	00000d93          	li	s11,0
80002024:	000b8593          	mv	a1,s7
80002028:	00090513          	mv	a0,s2
8000202c:	001d8d93          	addi	s11,s11,1
80002030:	000480e7          	jalr	s1
80002034:	ff9dc8e3          	blt	s11,s9,80002024 <_fdoprnt+0x460>
80002038:	02d00793          	li	a5,45
8000203c:	02fa1463          	bne	s4,a5,80002064 <_fdoprnt+0x4a0>
80002040:	02000793          	li	a5,32
80002044:	f6fb8ce3          	beq	s7,a5,80001fbc <_fdoprnt+0x3f8>
80002048:	da0410e3          	bnez	s0,80001de8 <_fdoprnt+0x224>
8000204c:	db9ff06f          	j	80001e04 <_fdoprnt+0x240>
80002050:	00fb1863          	bne	s6,a5,80002060 <_fdoprnt+0x49c>
80002054:	da040ce3          	beqz	s0,80001e0c <_fdoprnt+0x248>
80002058:	00000c93          	li	s9,0
8000205c:	d8dff06f          	j	80001de8 <_fdoprnt+0x224>
80002060:	00000c93          	li	s9,0
80002064:	d80412e3          	bnez	s0,80001de8 <_fdoprnt+0x224>
80002068:	da5ff06f          	j	80001e0c <_fdoprnt+0x248>
8000206c:	000d8413          	mv	s0,s11
80002070:	d60c82e3          	beqz	s9,80001dd4 <_fdoprnt+0x210>
80002074:	f75ff06f          	j	80001fe8 <_fdoprnt+0x424>
80002078:	000d8413          	mv	s0,s11
8000207c:	d59ff06f          	j	80001dd4 <_fdoprnt+0x210>
80002080:	40a00533          	neg	a0,a0
80002084:	02d00a13          	li	s4,45
80002088:	eadff06f          	j	80001f34 <_fdoprnt+0x370>
8000208c:	80010d37          	lui	s10,0x80010
80002090:	00000a13          	li	s4,0
80002094:	02000b93          	li	s7,32
80002098:	f18d0d13          	addi	s10,s10,-232 # 8000ff18 <_ctype_+0xac>
8000209c:	d11ff06f          	j	80001dac <_fdoprnt+0x1e8>
800020a0:	03000793          	li	a5,48
800020a4:	fffc8c93          	addi	s9,s9,-1
800020a8:	02fb8c63          	beq	s7,a5,800020e0 <_fdoprnt+0x51c>
800020ac:	f14b08e3          	beq	s6,s4,80001fbc <_fdoprnt+0x3f8>
800020b0:	f79048e3          	bgtz	s9,80002020 <_fdoprnt+0x45c>
800020b4:	f09ff06f          	j	80001fbc <_fdoprnt+0x3f8>
800020b8:	02d00593          	li	a1,45
800020bc:	00090513          	mv	a0,s2
800020c0:	000480e7          	jalr	s1
800020c4:	f94b08e3          	beq	s6,s4,80002054 <_fdoprnt+0x490>
800020c8:	00000c93          	li	s9,0
800020cc:	d0041ee3          	bnez	s0,80001de8 <_fdoprnt+0x224>
800020d0:	d35ff06f          	j	80001e04 <_fdoprnt+0x240>
800020d4:	03000793          	li	a5,48
800020d8:	fff00c93          	li	s9,-1
800020dc:	eefb90e3          	bne	s7,a5,80001fbc <_fdoprnt+0x3f8>
800020e0:	02d00593          	li	a1,45
800020e4:	00090513          	mv	a0,s2
800020e8:	000480e7          	jalr	s1
800020ec:	02d00793          	li	a5,45
800020f0:	f0fb04e3          	beq	s6,a5,80001ff8 <_fdoprnt+0x434>
800020f4:	f39046e3          	bgtz	s9,80002020 <_fdoprnt+0x45c>
800020f8:	ce0418e3          	bnez	s0,80001de8 <_fdoprnt+0x224>
800020fc:	d11ff06f          	j	80001e0c <_fdoprnt+0x248>
80002100:	05812403          	lw	s0,88(sp)
80002104:	03c12b83          	lw	s7,60(sp)
80002108:	03412c83          	lw	s9,52(sp)
8000210c:	02c12d83          	lw	s11,44(sp)
80002110:	05c12083          	lw	ra,92(sp)
80002114:	04c12983          	lw	s3,76(sp)
80002118:	04412a83          	lw	s5,68(sp)
8000211c:	04012b03          	lw	s6,64(sp)
80002120:	03812c03          	lw	s8,56(sp)
80002124:	00090513          	mv	a0,s2
80002128:	00048793          	mv	a5,s1
8000212c:	05012903          	lw	s2,80(sp)
80002130:	05412483          	lw	s1,84(sp)
80002134:	02500593          	li	a1,37
80002138:	06010113          	addi	sp,sp,96
8000213c:	00078067          	jr	a5

80002140 <fprintf>:
80002140:	fc010113          	addi	sp,sp,-64
80002144:	00050313          	mv	t1,a0
80002148:	02c12423          	sw	a2,40(sp)
8000214c:	8000f637          	lui	a2,0x8000f
80002150:	00058513          	mv	a0,a1
80002154:	02d12623          	sw	a3,44(sp)
80002158:	02810593          	addi	a1,sp,40
8000215c:	92060613          	addi	a2,a2,-1760 # 8000e920 <putc>
80002160:	00030693          	mv	a3,t1
80002164:	00112e23          	sw	ra,28(sp)
80002168:	02e12823          	sw	a4,48(sp)
8000216c:	02f12a23          	sw	a5,52(sp)
80002170:	03012c23          	sw	a6,56(sp)
80002174:	03112e23          	sw	a7,60(sp)
80002178:	00b12623          	sw	a1,12(sp)
8000217c:	a49ff0ef          	jal	80001bc4 <_fdoprnt>
80002180:	01c12083          	lw	ra,28(sp)
80002184:	00000513          	li	a0,0
80002188:	04010113          	addi	sp,sp,64
8000218c:	00008067          	ret

80002190 <heap_init>:
80002190:	800127b7          	lui	a5,0x80012
80002194:	80a7ac23          	sw	a0,-2024(a5) # 80011818 <heap_end>
80002198:	800127b7          	lui	a5,0x80012
8000219c:	8007ae23          	sw	zero,-2020(a5) # 8001181c <free_blocks>
800021a0:	00008067          	ret

800021a4 <heap_free>:
800021a4:	800127b7          	lui	a5,0x80012
800021a8:	81c7a783          	lw	a5,-2020(a5) # 8001181c <free_blocks>
800021ac:	00000893          	li	a7,0
800021b0:	04078e63          	beqz	a5,8000220c <heap_free+0x68>
800021b4:	0017c803          	lbu	a6,1(a5)
800021b8:	0057c583          	lbu	a1,5(a5)
800021bc:	0007c303          	lbu	t1,0(a5)
800021c0:	0027c603          	lbu	a2,2(a5)
800021c4:	0047c503          	lbu	a0,4(a5)
800021c8:	0067c683          	lbu	a3,6(a5)
800021cc:	0037c703          	lbu	a4,3(a5)
800021d0:	0077c783          	lbu	a5,7(a5)
800021d4:	00881813          	slli	a6,a6,0x8
800021d8:	00859593          	slli	a1,a1,0x8
800021dc:	00686833          	or	a6,a6,t1
800021e0:	01061613          	slli	a2,a2,0x10
800021e4:	00a5e5b3          	or	a1,a1,a0
800021e8:	01069693          	slli	a3,a3,0x10
800021ec:	01066633          	or	a2,a2,a6
800021f0:	01871713          	slli	a4,a4,0x18
800021f4:	00b6e6b3          	or	a3,a3,a1
800021f8:	01879793          	slli	a5,a5,0x18
800021fc:	00c76733          	or	a4,a4,a2
80002200:	00d7e7b3          	or	a5,a5,a3
80002204:	00e888b3          	add	a7,a7,a4
80002208:	fa0796e3          	bnez	a5,800021b4 <heap_free+0x10>
8000220c:	800127b7          	lui	a5,0x80012
80002210:	8187a783          	lw	a5,-2024(a5) # 80011818 <heap_end>
80002214:	8007d537          	lui	a0,0x8007d
80002218:	40f50533          	sub	a0,a0,a5
8000221c:	01150533          	add	a0,a0,a7
80002220:	00008067          	ret

80002224 <free>:
80002224:	02050863          	beqz	a0,80002254 <free+0x30>
80002228:	ffd54703          	lbu	a4,-3(a0) # 8007cffd <__global_pointer+0x68f91>
8000222c:	ffc54683          	lbu	a3,-4(a0)
80002230:	ffe54783          	lbu	a5,-2(a0)
80002234:	fff54803          	lbu	a6,-1(a0)
80002238:	00871713          	slli	a4,a4,0x8
8000223c:	00d76733          	or	a4,a4,a3
80002240:	01079793          	slli	a5,a5,0x10
80002244:	00e7e7b3          	or	a5,a5,a4
80002248:	01881813          	slli	a6,a6,0x18
8000224c:	00f86833          	or	a6,a6,a5
80002250:	00080463          	beqz	a6,80002258 <free+0x34>
80002254:	00008067          	ret
80002258:	80012f37          	lui	t5,0x80012
8000225c:	81cf2e03          	lw	t3,-2020(t5) # 8001181c <free_blocks>
80002260:	ff850893          	addi	a7,a0,-8
80002264:	140e0263          	beqz	t3,800023a8 <free+0x184>
80002268:	001e4583          	lbu	a1,1(t3)
8000226c:	000e4303          	lbu	t1,0(t3)
80002270:	002e4603          	lbu	a2,2(t3)
80002274:	003e4703          	lbu	a4,3(t3)
80002278:	ff954683          	lbu	a3,-7(a0)
8000227c:	ff854e83          	lbu	t4,-8(a0)
80002280:	ffa54783          	lbu	a5,-6(a0)
80002284:	00859593          	slli	a1,a1,0x8
80002288:	0065e5b3          	or	a1,a1,t1
8000228c:	01061613          	slli	a2,a2,0x10
80002290:	ffb54303          	lbu	t1,-5(a0)
80002294:	00b66633          	or	a2,a2,a1
80002298:	01871713          	slli	a4,a4,0x18
8000229c:	00869693          	slli	a3,a3,0x8
800022a0:	01d6e6b3          	or	a3,a3,t4
800022a4:	00c76733          	or	a4,a4,a2
800022a8:	01079793          	slli	a5,a5,0x10
800022ac:	00d7e7b3          	or	a5,a5,a3
800022b0:	01c70633          	add	a2,a4,t3
800022b4:	01831313          	slli	t1,t1,0x18
800022b8:	00f36333          	or	t1,t1,a5
800022bc:	00860693          	addi	a3,a2,8
800022c0:	000e0f93          	mv	t6,t3
800022c4:	00650eb3          	add	t4,a0,t1
800022c8:	000e0793          	mv	a5,t3
800022cc:	05169463          	bne	a3,a7,80002314 <free+0xf0>
800022d0:	0fc0006f          	j	800023cc <free+0x1a8>
800022d4:	0c078a63          	beqz	a5,800023a8 <free+0x184>
800022d8:	0017c603          	lbu	a2,1(a5)
800022dc:	0007c803          	lbu	a6,0(a5)
800022e0:	0027c683          	lbu	a3,2(a5)
800022e4:	0037c703          	lbu	a4,3(a5)
800022e8:	00861613          	slli	a2,a2,0x8
800022ec:	01066633          	or	a2,a2,a6
800022f0:	01069693          	slli	a3,a3,0x10
800022f4:	00c6e6b3          	or	a3,a3,a2
800022f8:	01871713          	slli	a4,a4,0x18
800022fc:	00d76733          	or	a4,a4,a3
80002300:	00f706b3          	add	a3,a4,a5
80002304:	00868693          	addi	a3,a3,8
80002308:	00078f93          	mv	t6,a5
8000230c:	00058813          	mv	a6,a1
80002310:	0ad88e63          	beq	a7,a3,800023cc <free+0x1a8>
80002314:	0057c603          	lbu	a2,5(a5)
80002318:	0047c283          	lbu	t0,4(a5)
8000231c:	0067c683          	lbu	a3,6(a5)
80002320:	0077c583          	lbu	a1,7(a5)
80002324:	00861613          	slli	a2,a2,0x8
80002328:	00566633          	or	a2,a2,t0
8000232c:	01069693          	slli	a3,a3,0x10
80002330:	00c6e6b3          	or	a3,a3,a2
80002334:	01859613          	slli	a2,a1,0x18
80002338:	00078593          	mv	a1,a5
8000233c:	00d667b3          	or	a5,a2,a3
80002340:	f9fe9ae3          	bne	t4,t6,800022d4 <free+0xb0>
80002344:	00830313          	addi	t1,t1,8
80002348:	00e30333          	add	t1,t1,a4
8000234c:	00835e93          	srli	t4,t1,0x8
80002350:	01035e13          	srli	t3,t1,0x10
80002354:	01835593          	srli	a1,t1,0x18
80002358:	0087d613          	srli	a2,a5,0x8
8000235c:	0107d693          	srli	a3,a5,0x10
80002360:	0187d713          	srli	a4,a5,0x18
80002364:	fe650c23          	sb	t1,-8(a0)
80002368:	ffd50ca3          	sb	t4,-7(a0)
8000236c:	ffc50d23          	sb	t3,-6(a0)
80002370:	feb50da3          	sb	a1,-5(a0)
80002374:	fef50e23          	sb	a5,-4(a0)
80002378:	fec50ea3          	sb	a2,-3(a0)
8000237c:	fed50f23          	sb	a3,-2(a0)
80002380:	fee50fa3          	sb	a4,-1(a0)
80002384:	04080063          	beqz	a6,800023c4 <free+0x1a0>
80002388:	0088d693          	srli	a3,a7,0x8
8000238c:	0108d713          	srli	a4,a7,0x10
80002390:	0188d793          	srli	a5,a7,0x18
80002394:	01180223          	sb	a7,4(a6)
80002398:	00d802a3          	sb	a3,5(a6)
8000239c:	00e80323          	sb	a4,6(a6)
800023a0:	00f803a3          	sb	a5,7(a6)
800023a4:	00008067          	ret
800023a8:	008e5693          	srli	a3,t3,0x8
800023ac:	010e5713          	srli	a4,t3,0x10
800023b0:	018e5793          	srli	a5,t3,0x18
800023b4:	ffc50e23          	sb	t3,-4(a0)
800023b8:	fed50ea3          	sb	a3,-3(a0)
800023bc:	fee50f23          	sb	a4,-2(a0)
800023c0:	fef50fa3          	sb	a5,-1(a0)
800023c4:	811f2e23          	sw	a7,-2020(t5)
800023c8:	00008067          	ret
800023cc:	00830313          	addi	t1,t1,8
800023d0:	00e30333          	add	t1,t1,a4
800023d4:	00835613          	srli	a2,t1,0x8
800023d8:	01035693          	srli	a3,t1,0x10
800023dc:	01835713          	srli	a4,t1,0x18
800023e0:	00678023          	sb	t1,0(a5)
800023e4:	00c780a3          	sb	a2,1(a5)
800023e8:	00d78123          	sb	a3,2(a5)
800023ec:	00e781a3          	sb	a4,3(a5)
800023f0:	00008067          	ret

800023f4 <malloc>:
800023f4:	18050e63          	beqz	a0,80002590 <malloc+0x19c>
800023f8:	ff010113          	addi	sp,sp,-16
800023fc:	80012e37          	lui	t3,0x80012
80002400:	00812423          	sw	s0,8(sp)
80002404:	81ce2403          	lw	s0,-2020(t3) # 8001181c <free_blocks>
80002408:	00912223          	sw	s1,4(sp)
8000240c:	00c50513          	addi	a0,a0,12
80002410:	00112623          	sw	ra,12(sp)
80002414:	ffc57493          	andi	s1,a0,-4
80002418:	0a040e63          	beqz	s0,800024d4 <malloc+0xe0>
8000241c:	00000313          	li	t1,0
80002420:	0100006f          	j	80002430 <malloc+0x3c>
80002424:	00040313          	mv	t1,s0
80002428:	0a078663          	beqz	a5,800024d4 <malloc+0xe0>
8000242c:	00078413          	mv	s0,a5
80002430:	00144503          	lbu	a0,1(s0)
80002434:	00044883          	lbu	a7,0(s0)
80002438:	00244603          	lbu	a2,2(s0)
8000243c:	00544583          	lbu	a1,5(s0)
80002440:	00344703          	lbu	a4,3(s0)
80002444:	00444803          	lbu	a6,4(s0)
80002448:	00644683          	lbu	a3,6(s0)
8000244c:	00744783          	lbu	a5,7(s0)
80002450:	00851513          	slli	a0,a0,0x8
80002454:	01156533          	or	a0,a0,a7
80002458:	01061613          	slli	a2,a2,0x10
8000245c:	00859593          	slli	a1,a1,0x8
80002460:	00a66633          	or	a2,a2,a0
80002464:	01871713          	slli	a4,a4,0x18
80002468:	0105e5b3          	or	a1,a1,a6
8000246c:	01069693          	slli	a3,a3,0x10
80002470:	00b6e6b3          	or	a3,a3,a1
80002474:	01879793          	slli	a5,a5,0x18
80002478:	00c76733          	or	a4,a4,a2
8000247c:	00d7e7b3          	or	a5,a5,a3
80002480:	fa9762e3          	bltu	a4,s1,80002424 <malloc+0x30>
80002484:	10030a63          	beqz	t1,80002598 <malloc+0x1a4>
80002488:	0087d593          	srli	a1,a5,0x8
8000248c:	0107d613          	srli	a2,a5,0x10
80002490:	0187d693          	srli	a3,a5,0x18
80002494:	00f30223          	sb	a5,4(t1)
80002498:	00b302a3          	sb	a1,5(t1)
8000249c:	00c30323          	sb	a2,6(t1)
800024a0:	00d303a3          	sb	a3,7(t1)
800024a4:	00040223          	sb	zero,4(s0)
800024a8:	000402a3          	sb	zero,5(s0)
800024ac:	00040323          	sb	zero,6(s0)
800024b0:	000403a3          	sb	zero,7(s0)
800024b4:	04048793          	addi	a5,s1,64
800024b8:	06e7e863          	bltu	a5,a4,80002528 <malloc+0x134>
800024bc:	00840513          	addi	a0,s0,8
800024c0:	00c12083          	lw	ra,12(sp)
800024c4:	00812403          	lw	s0,8(sp)
800024c8:	00412483          	lw	s1,4(sp)
800024cc:	01010113          	addi	sp,sp,16
800024d0:	00008067          	ret
800024d4:	800127b7          	lui	a5,0x80012
800024d8:	8187a503          	lw	a0,-2024(a5) # 80011818 <heap_end>
800024dc:	00c12083          	lw	ra,12(sp)
800024e0:	00812403          	lw	s0,8(sp)
800024e4:	00950733          	add	a4,a0,s1
800024e8:	0084d593          	srli	a1,s1,0x8
800024ec:	0104d613          	srli	a2,s1,0x10
800024f0:	0184d693          	srli	a3,s1,0x18
800024f4:	00950023          	sb	s1,0(a0)
800024f8:	00b500a3          	sb	a1,1(a0)
800024fc:	00c50123          	sb	a2,2(a0)
80002500:	00d501a3          	sb	a3,3(a0)
80002504:	00050223          	sb	zero,4(a0)
80002508:	000502a3          	sb	zero,5(a0)
8000250c:	00050323          	sb	zero,6(a0)
80002510:	000503a3          	sb	zero,7(a0)
80002514:	80e7ac23          	sw	a4,-2024(a5)
80002518:	00412483          	lw	s1,4(sp)
8000251c:	00850513          	addi	a0,a0,8
80002520:	01010113          	addi	sp,sp,16
80002524:	00008067          	ret
80002528:	40970733          	sub	a4,a4,s1
8000252c:	ff870713          	addi	a4,a4,-8
80002530:	00848513          	addi	a0,s1,8
80002534:	00a40533          	add	a0,s0,a0
80002538:	01075693          	srli	a3,a4,0x10
8000253c:	01875793          	srli	a5,a4,0x18
80002540:	00875613          	srli	a2,a4,0x8
80002544:	00e50023          	sb	a4,0(a0)
80002548:	00d50123          	sb	a3,2(a0)
8000254c:	00f501a3          	sb	a5,3(a0)
80002550:	00c500a3          	sb	a2,1(a0)
80002554:	00050223          	sb	zero,4(a0)
80002558:	000502a3          	sb	zero,5(a0)
8000255c:	00050323          	sb	zero,6(a0)
80002560:	000503a3          	sb	zero,7(a0)
80002564:	00850513          	addi	a0,a0,8
80002568:	cbdff0ef          	jal	80002224 <free>
8000256c:	0084d693          	srli	a3,s1,0x8
80002570:	0104d713          	srli	a4,s1,0x10
80002574:	0184d793          	srli	a5,s1,0x18
80002578:	00940023          	sb	s1,0(s0)
8000257c:	00d400a3          	sb	a3,1(s0)
80002580:	00e40123          	sb	a4,2(s0)
80002584:	00f401a3          	sb	a5,3(s0)
80002588:	00840513          	addi	a0,s0,8
8000258c:	f35ff06f          	j	800024c0 <malloc+0xcc>
80002590:	00000513          	li	a0,0
80002594:	00008067          	ret
80002598:	80fe2e23          	sw	a5,-2020(t3)
8000259c:	f09ff06f          	j	800024a4 <malloc+0xb0>

800025a0 <realloc>:
800025a0:	ff010113          	addi	sp,sp,-16
800025a4:	00112623          	sw	ra,12(sp)
800025a8:	01212023          	sw	s2,0(sp)
800025ac:	04058c63          	beqz	a1,80002604 <realloc+0x64>
800025b0:	00812423          	sw	s0,8(sp)
800025b4:	00912223          	sw	s1,4(sp)
800025b8:	00050493          	mv	s1,a0
800025bc:	00058413          	mv	s0,a1
800025c0:	00058513          	mv	a0,a1
800025c4:	06048a63          	beqz	s1,80002638 <realloc+0x98>
800025c8:	e2dff0ef          	jal	800023f4 <malloc>
800025cc:	00050913          	mv	s2,a0
800025d0:	04050663          	beqz	a0,8000261c <realloc+0x7c>
800025d4:	00040613          	mv	a2,s0
800025d8:	00048593          	mv	a1,s1
800025dc:	0dd000ef          	jal	80002eb8 <memcpy>
800025e0:	00048513          	mv	a0,s1
800025e4:	c41ff0ef          	jal	80002224 <free>
800025e8:	00c12083          	lw	ra,12(sp)
800025ec:	00812403          	lw	s0,8(sp)
800025f0:	00412483          	lw	s1,4(sp)
800025f4:	00090513          	mv	a0,s2
800025f8:	00012903          	lw	s2,0(sp)
800025fc:	01010113          	addi	sp,sp,16
80002600:	00008067          	ret
80002604:	00c12083          	lw	ra,12(sp)
80002608:	00000913          	li	s2,0
8000260c:	00090513          	mv	a0,s2
80002610:	00012903          	lw	s2,0(sp)
80002614:	01010113          	addi	sp,sp,16
80002618:	00008067          	ret
8000261c:	00812403          	lw	s0,8(sp)
80002620:	00c12083          	lw	ra,12(sp)
80002624:	00412483          	lw	s1,4(sp)
80002628:	00090513          	mv	a0,s2
8000262c:	00012903          	lw	s2,0(sp)
80002630:	01010113          	addi	sp,sp,16
80002634:	00008067          	ret
80002638:	00812403          	lw	s0,8(sp)
8000263c:	00412483          	lw	s1,4(sp)
80002640:	00c12083          	lw	ra,12(sp)
80002644:	00012903          	lw	s2,0(sp)
80002648:	01010113          	addi	sp,sp,16
8000264c:	da9ff06f          	j	800023f4 <malloc>

80002650 <calloc>:
80002650:	ff010113          	addi	sp,sp,-16
80002654:	00912223          	sw	s1,4(sp)
80002658:	02b504b3          	mul	s1,a0,a1
8000265c:	00812423          	sw	s0,8(sp)
80002660:	00112623          	sw	ra,12(sp)
80002664:	00048513          	mv	a0,s1
80002668:	d8dff0ef          	jal	800023f4 <malloc>
8000266c:	00050413          	mv	s0,a0
80002670:	00050863          	beqz	a0,80002680 <calloc+0x30>
80002674:	00048613          	mv	a2,s1
80002678:	00000593          	li	a1,0
8000267c:	025000ef          	jal	80002ea0 <memset>
80002680:	00c12083          	lw	ra,12(sp)
80002684:	00040513          	mv	a0,s0
80002688:	00812403          	lw	s0,8(sp)
8000268c:	00412483          	lw	s1,4(sp)
80002690:	01010113          	addi	sp,sp,16
80002694:	00008067          	ret

80002698 <printf>:
80002698:	fc010113          	addi	sp,sp,-64
8000269c:	02410313          	addi	t1,sp,36
800026a0:	02c12423          	sw	a2,40(sp)
800026a4:	8000f637          	lui	a2,0x8000f
800026a8:	02b12223          	sw	a1,36(sp)
800026ac:	02d12623          	sw	a3,44(sp)
800026b0:	92060613          	addi	a2,a2,-1760 # 8000e920 <putc>
800026b4:	00000693          	li	a3,0
800026b8:	00030593          	mv	a1,t1
800026bc:	00112e23          	sw	ra,28(sp)
800026c0:	02e12823          	sw	a4,48(sp)
800026c4:	02f12a23          	sw	a5,52(sp)
800026c8:	03012c23          	sw	a6,56(sp)
800026cc:	03112e23          	sw	a7,60(sp)
800026d0:	00612623          	sw	t1,12(sp)
800026d4:	cf0ff0ef          	jal	80001bc4 <_fdoprnt>
800026d8:	01c12083          	lw	ra,28(sp)
800026dc:	00000513          	li	a0,0
800026e0:	04010113          	addi	sp,sp,64
800026e4:	00008067          	ret

800026e8 <qs1>:
800026e8:	fd010113          	addi	sp,sp,-48
800026ec:	01412c23          	sw	s4,24(sp)
800026f0:	80012a37          	lui	s4,0x80012
800026f4:	01312e23          	sw	s3,28(sp)
800026f8:	820a2983          	lw	s3,-2016(s4) # 80011820 <qses>
800026fc:	02112623          	sw	ra,44(sp)
80002700:	40a587b3          	sub	a5,a1,a0
80002704:	22f9f263          	bgeu	s3,a5,80002928 <qs1+0x240>
80002708:	03212023          	sw	s2,32(sp)
8000270c:	01512a23          	sw	s5,20(sp)
80002710:	01612823          	sw	s6,16(sp)
80002714:	01712623          	sw	s7,12(sp)
80002718:	01812423          	sw	s8,8(sp)
8000271c:	02812423          	sw	s0,40(sp)
80002720:	02912223          	sw	s1,36(sp)
80002724:	01912223          	sw	s9,4(sp)
80002728:	01a12023          	sw	s10,0(sp)
8000272c:	00050b13          	mv	s6,a0
80002730:	00058b93          	mv	s7,a1
80002734:	00199c13          	slli	s8,s3,0x1
80002738:	41300ab3          	neg	s5,s3
8000273c:	80012937          	lui	s2,0x80012
80002740:	0387d7b3          	divu	a5,a5,s8
80002744:	015b8cb3          	add	s9,s7,s5
80002748:	000b0413          	mv	s0,s6
8000274c:	033787b3          	mul	a5,a5,s3
80002750:	00fb04b3          	add	s1,s6,a5
80002754:	00048d13          	mv	s10,s1
80002758:	06947a63          	bgeu	s0,s1,800027cc <qs1+0xe4>
8000275c:	82492783          	lw	a5,-2012(s2) # 80011824 <qscmp>
80002760:	00048593          	mv	a1,s1
80002764:	00040513          	mv	a0,s0
80002768:	000780e7          	jalr	a5
8000276c:	12050e63          	beqz	a0,800028a8 <qs1+0x1c0>
80002770:	04054a63          	bltz	a0,800027c4 <qs1+0xdc>
80002774:	079d7063          	bgeu	s10,s9,800027d4 <qs1+0xec>
80002778:	82492783          	lw	a5,-2012(s2)
8000277c:	000c8593          	mv	a1,s9
80002780:	000d0513          	mv	a0,s10
80002784:	000780e7          	jalr	a5
80002788:	0a050063          	beqz	a0,80002828 <qs1+0x140>
8000278c:	08a05863          	blez	a0,8000281c <qs1+0x134>
80002790:	820a2583          	lw	a1,-2016(s4)
80002794:	0c940663          	beq	s0,s1,80002860 <qs1+0x178>
80002798:	00b405b3          	add	a1,s0,a1
8000279c:	000c8713          	mv	a4,s9
800027a0:	00040793          	mv	a5,s0
800027a4:	00074603          	lbu	a2,0(a4)
800027a8:	0007c683          	lbu	a3,0(a5)
800027ac:	00170713          	addi	a4,a4,1
800027b0:	00178793          	addi	a5,a5,1
800027b4:	fec78fa3          	sb	a2,-1(a5)
800027b8:	fed70fa3          	sb	a3,-1(a4)
800027bc:	feb794e3          	bne	a5,a1,800027a4 <qs1+0xbc>
800027c0:	015c8cb3          	add	s9,s9,s5
800027c4:	01340433          	add	s0,s0,s3
800027c8:	f8946ae3          	bltu	s0,s1,8000275c <qs1+0x74>
800027cc:	fb9d66e3          	bltu	s10,s9,80002778 <qs1+0x90>
800027d0:	10940663          	beq	s0,s1,800028dc <qs1+0x1f4>
800027d4:	820a2583          	lw	a1,-2016(s4)
800027d8:	015484b3          	add	s1,s1,s5
800027dc:	00040713          	mv	a4,s0
800027e0:	00bc85b3          	add	a1,s9,a1
800027e4:	00048793          	mv	a5,s1
800027e8:	00074603          	lbu	a2,0(a4)
800027ec:	000cc683          	lbu	a3,0(s9)
800027f0:	00178793          	addi	a5,a5,1
800027f4:	00cc8023          	sb	a2,0(s9)
800027f8:	fff7c603          	lbu	a2,-1(a5)
800027fc:	001c8c93          	addi	s9,s9,1
80002800:	00170713          	addi	a4,a4,1
80002804:	fec70fa3          	sb	a2,-1(a4)
80002808:	fed78fa3          	sb	a3,-1(a5)
8000280c:	fcbc9ee3          	bne	s9,a1,800027e8 <qs1+0x100>
80002810:	015d0d33          	add	s10,s10,s5
80002814:	000d0c93          	mv	s9,s10
80002818:	f41ff06f          	j	80002758 <qs1+0x70>
8000281c:	015c8cb3          	add	s9,s9,s5
80002820:	f59d6ce3          	bltu	s10,s9,80002778 <qs1+0x90>
80002824:	fadff06f          	j	800027d0 <qs1+0xe8>
80002828:	820a2583          	lw	a1,-2016(s4)
8000282c:	013d0d33          	add	s10,s10,s3
80002830:	000c8713          	mv	a4,s9
80002834:	00bd05b3          	add	a1,s10,a1
80002838:	000d0793          	mv	a5,s10
8000283c:	00074603          	lbu	a2,0(a4)
80002840:	0007c683          	lbu	a3,0(a5)
80002844:	00170713          	addi	a4,a4,1
80002848:	00178793          	addi	a5,a5,1
8000284c:	fec78fa3          	sb	a2,-1(a5)
80002850:	fed70fa3          	sb	a3,-1(a4)
80002854:	feb794e3          	bne	a5,a1,8000283c <qs1+0x154>
80002858:	f39d60e3          	bltu	s10,s9,80002778 <qs1+0x90>
8000285c:	f75ff06f          	j	800027d0 <qs1+0xe8>
80002860:	013d0d33          	add	s10,s10,s3
80002864:	00b405b3          	add	a1,s0,a1
80002868:	000c8713          	mv	a4,s9
8000286c:	000d0793          	mv	a5,s10
80002870:	00074603          	lbu	a2,0(a4)
80002874:	00044683          	lbu	a3,0(s0)
80002878:	00178793          	addi	a5,a5,1
8000287c:	00c40023          	sb	a2,0(s0)
80002880:	fff7c603          	lbu	a2,-1(a5)
80002884:	00140413          	addi	s0,s0,1
80002888:	00170713          	addi	a4,a4,1
8000288c:	fec70fa3          	sb	a2,-1(a4)
80002890:	fed78fa3          	sb	a3,-1(a5)
80002894:	fcb41ee3          	bne	s0,a1,80002870 <qs1+0x188>
80002898:	013484b3          	add	s1,s1,s3
8000289c:	059d7063          	bgeu	s10,s9,800028dc <qs1+0x1f4>
800028a0:	00048413          	mv	s0,s1
800028a4:	ed5ff06f          	j	80002778 <qs1+0x90>
800028a8:	820a2583          	lw	a1,-2016(s4)
800028ac:	015484b3          	add	s1,s1,s5
800028b0:	00048713          	mv	a4,s1
800028b4:	00b405b3          	add	a1,s0,a1
800028b8:	00040793          	mv	a5,s0
800028bc:	00074603          	lbu	a2,0(a4)
800028c0:	0007c683          	lbu	a3,0(a5)
800028c4:	00170713          	addi	a4,a4,1
800028c8:	00178793          	addi	a5,a5,1
800028cc:	fec78fa3          	sb	a2,-1(a5)
800028d0:	fed70fa3          	sb	a3,-1(a4)
800028d4:	feb794e3          	bne	a5,a1,800028bc <qs1+0x1d4>
800028d8:	e81ff06f          	j	80002758 <qs1+0x70>
800028dc:	41ab87b3          	sub	a5,s7,s10
800028e0:	41648433          	sub	s0,s1,s6
800028e4:	013d0d33          	add	s10,s10,s3
800028e8:	04f44a63          	blt	s0,a5,8000293c <qs1+0x254>
800028ec:	000b8593          	mv	a1,s7
800028f0:	000d0513          	mv	a0,s10
800028f4:	df5ff0ef          	jal	800026e8 <qs1>
800028f8:	00048b93          	mv	s7,s1
800028fc:	00040793          	mv	a5,s0
80002900:	e489e0e3          	bltu	s3,s0,80002740 <qs1+0x58>
80002904:	02812403          	lw	s0,40(sp)
80002908:	02412483          	lw	s1,36(sp)
8000290c:	02012903          	lw	s2,32(sp)
80002910:	01412a83          	lw	s5,20(sp)
80002914:	01012b03          	lw	s6,16(sp)
80002918:	00c12b83          	lw	s7,12(sp)
8000291c:	00812c03          	lw	s8,8(sp)
80002920:	00412c83          	lw	s9,4(sp)
80002924:	00012d03          	lw	s10,0(sp)
80002928:	02c12083          	lw	ra,44(sp)
8000292c:	01c12983          	lw	s3,28(sp)
80002930:	01812a03          	lw	s4,24(sp)
80002934:	03010113          	addi	sp,sp,48
80002938:	00008067          	ret
8000293c:	000b0513          	mv	a0,s6
80002940:	00048593          	mv	a1,s1
80002944:	da5ff0ef          	jal	800026e8 <qs1>
80002948:	41ab8433          	sub	s0,s7,s10
8000294c:	000d0b13          	mv	s6,s10
80002950:	fadff06f          	j	800028fc <qs1+0x214>

80002954 <qsort>:
80002954:	02b605b3          	mul	a1,a2,a1
80002958:	800127b7          	lui	a5,0x80012
8000295c:	82d7a223          	sw	a3,-2012(a5) # 80011824 <qscmp>
80002960:	800127b7          	lui	a5,0x80012
80002964:	82c7a023          	sw	a2,-2016(a5) # 80011820 <qses>
80002968:	00b505b3          	add	a1,a0,a1
8000296c:	d7dff06f          	j	800026e8 <qs1>

80002970 <rand>:
80002970:	80011737          	lui	a4,0x80011
80002974:	f1072503          	lw	a0,-240(a4) # 80010f10 <rand_seed>
80002978:	000047b7          	lui	a5,0x4
8000297c:	1a778793          	addi	a5,a5,423 # 41a7 <__stack_size+0x21a7>
80002980:	02f50533          	mul	a0,a0,a5
80002984:	800007b7          	lui	a5,0x80000
80002988:	ffe78793          	addi	a5,a5,-2 # 7ffffffe <__stack_size+0x7fffdffe>
8000298c:	02f57533          	remu	a0,a0,a5
80002990:	f0a72823          	sw	a0,-240(a4)
80002994:	00008067          	ret

80002998 <rand_r>:
80002998:	00052783          	lw	a5,0(a0)
8000299c:	000046b7          	lui	a3,0x4
800029a0:	1a768693          	addi	a3,a3,423 # 41a7 <__stack_size+0x21a7>
800029a4:	02d787b3          	mul	a5,a5,a3
800029a8:	800006b7          	lui	a3,0x80000
800029ac:	ffe68693          	addi	a3,a3,-2 # 7ffffffe <__stack_size+0x7fffdffe>
800029b0:	00050713          	mv	a4,a0
800029b4:	02d7f533          	remu	a0,a5,a3
800029b8:	00a72023          	sw	a0,0(a4)
800029bc:	00008067          	ret

800029c0 <srand>:
800029c0:	800117b7          	lui	a5,0x80011
800029c4:	f0a7a823          	sw	a0,-240(a5) # 80010f10 <rand_seed>
800029c8:	00008067          	ret

800029cc <sprntf>:
800029cc:	00052783          	lw	a5,0(a0)
800029d0:	00178713          	addi	a4,a5,1
800029d4:	00e52023          	sw	a4,0(a0)
800029d8:	00b78023          	sb	a1,0(a5)
800029dc:	0ff5f513          	zext.b	a0,a1
800029e0:	00008067          	ret

800029e4 <sprintf>:
800029e4:	fc010113          	addi	sp,sp,-64
800029e8:	02c12423          	sw	a2,40(sp)
800029ec:	80003637          	lui	a2,0x80003
800029f0:	00812c23          	sw	s0,24(sp)
800029f4:	02d12623          	sw	a3,44(sp)
800029f8:	00050413          	mv	s0,a0
800029fc:	00c10693          	addi	a3,sp,12
80002a00:	00058513          	mv	a0,a1
80002a04:	9cc60613          	addi	a2,a2,-1588 # 800029cc <sprntf>
80002a08:	02810593          	addi	a1,sp,40
80002a0c:	00112e23          	sw	ra,28(sp)
80002a10:	02f12a23          	sw	a5,52(sp)
80002a14:	00812623          	sw	s0,12(sp)
80002a18:	02e12823          	sw	a4,48(sp)
80002a1c:	03012c23          	sw	a6,56(sp)
80002a20:	03112e23          	sw	a7,60(sp)
80002a24:	00b12423          	sw	a1,8(sp)
80002a28:	99cff0ef          	jal	80001bc4 <_fdoprnt>
80002a2c:	00c12783          	lw	a5,12(sp)
80002a30:	00040513          	mv	a0,s0
80002a34:	00078023          	sb	zero,0(a5)
80002a38:	01c12083          	lw	ra,28(sp)
80002a3c:	01812403          	lw	s0,24(sp)
80002a40:	04010113          	addi	sp,sp,64
80002a44:	00008067          	ret

80002a48 <labs>:
80002a48:	41f55793          	srai	a5,a0,0x1f
80002a4c:	00a7c533          	xor	a0,a5,a0
80002a50:	40f50533          	sub	a0,a0,a5
80002a54:	00008067          	ret

80002a58 <abs>:
80002a58:	41f55793          	srai	a5,a0,0x1f
80002a5c:	00a7c533          	xor	a0,a5,a0
80002a60:	40f50533          	sub	a0,a0,a5
80002a64:	00008067          	ret

80002a68 <strndup>:
80002a68:	ff010113          	addi	sp,sp,-16
80002a6c:	00112623          	sw	ra,12(sp)
80002a70:	00812423          	sw	s0,8(sp)
80002a74:	00912223          	sw	s1,4(sp)
80002a78:	01212023          	sw	s2,0(sp)
80002a7c:	00050913          	mv	s2,a0
80002a80:	015000ef          	jal	80003294 <strnlen>
80002a84:	00050413          	mv	s0,a0
80002a88:	00150513          	addi	a0,a0,1
80002a8c:	969ff0ef          	jal	800023f4 <malloc>
80002a90:	00050493          	mv	s1,a0
80002a94:	00050c63          	beqz	a0,80002aac <strndup+0x44>
80002a98:	00040613          	mv	a2,s0
80002a9c:	00090593          	mv	a1,s2
80002aa0:	00848433          	add	s0,s1,s0
80002aa4:	5c8000ef          	jal	8000306c <strncpy>
80002aa8:	00040023          	sb	zero,0(s0)
80002aac:	00c12083          	lw	ra,12(sp)
80002ab0:	00812403          	lw	s0,8(sp)
80002ab4:	00012903          	lw	s2,0(sp)
80002ab8:	00048513          	mv	a0,s1
80002abc:	00412483          	lw	s1,4(sp)
80002ac0:	01010113          	addi	sp,sp,16
80002ac4:	00008067          	ret

80002ac8 <strdup>:
80002ac8:	ff010113          	addi	sp,sp,-16
80002acc:	00112623          	sw	ra,12(sp)
80002ad0:	00812423          	sw	s0,8(sp)
80002ad4:	00912223          	sw	s1,4(sp)
80002ad8:	01212023          	sw	s2,0(sp)
80002adc:	00050913          	mv	s2,a0
80002ae0:	47c000ef          	jal	80002f5c <strlen>
80002ae4:	00050593          	mv	a1,a0
80002ae8:	00090513          	mv	a0,s2
80002aec:	7a8000ef          	jal	80003294 <strnlen>
80002af0:	00050413          	mv	s0,a0
80002af4:	00150513          	addi	a0,a0,1
80002af8:	8fdff0ef          	jal	800023f4 <malloc>
80002afc:	00050493          	mv	s1,a0
80002b00:	00050c63          	beqz	a0,80002b18 <strdup+0x50>
80002b04:	00040613          	mv	a2,s0
80002b08:	00090593          	mv	a1,s2
80002b0c:	00848433          	add	s0,s1,s0
80002b10:	55c000ef          	jal	8000306c <strncpy>
80002b14:	00040023          	sb	zero,0(s0)
80002b18:	00c12083          	lw	ra,12(sp)
80002b1c:	00812403          	lw	s0,8(sp)
80002b20:	00012903          	lw	s2,0(sp)
80002b24:	00048513          	mv	a0,s1
80002b28:	00412483          	lw	s1,4(sp)
80002b2c:	01010113          	addi	sp,sp,16
80002b30:	00008067          	ret

80002b34 <atol>:
80002b34:	02b00793          	li	a5,43
80002b38:	00054603          	lbu	a2,0(a0)
80002b3c:	04f60663          	beq	a2,a5,80002b88 <atol+0x54>
80002b40:	00900713          	li	a4,9
80002b44:	00c7ec63          	bltu	a5,a2,80002b5c <atol+0x28>
80002b48:	02000693          	li	a3,32
80002b4c:	08e60c63          	beq	a2,a4,80002be4 <atol+0xb0>
80002b50:	08d60a63          	beq	a2,a3,80002be4 <atol+0xb0>
80002b54:	00000513          	li	a0,0
80002b58:	00008067          	ret
80002b5c:	02d00793          	li	a5,45
80002b60:	00050693          	mv	a3,a0
80002b64:	02f61663          	bne	a2,a5,80002b90 <atol+0x5c>
80002b68:	00154603          	lbu	a2,1(a0)
80002b6c:	00900713          	li	a4,9
80002b70:	00150693          	addi	a3,a0,1
80002b74:	fd060793          	addi	a5,a2,-48
80002b78:	0ff7f793          	zext.b	a5,a5
80002b7c:	00100813          	li	a6,1
80002b80:	02f77263          	bgeu	a4,a5,80002ba4 <atol+0x70>
80002b84:	fd1ff06f          	j	80002b54 <atol+0x20>
80002b88:	00154603          	lbu	a2,1(a0)
80002b8c:	00150693          	addi	a3,a0,1
80002b90:	fd060793          	addi	a5,a2,-48
80002b94:	0ff7f793          	zext.b	a5,a5
80002b98:	00900713          	li	a4,9
80002b9c:	00000813          	li	a6,0
80002ba0:	faf76ae3          	bltu	a4,a5,80002b54 <atol+0x20>
80002ba4:	00000513          	li	a0,0
80002ba8:	00900593          	li	a1,9
80002bac:	00251793          	slli	a5,a0,0x2
80002bb0:	00a787b3          	add	a5,a5,a0
80002bb4:	00168693          	addi	a3,a3,1
80002bb8:	00179793          	slli	a5,a5,0x1
80002bbc:	00c787b3          	add	a5,a5,a2
80002bc0:	0006c603          	lbu	a2,0(a3)
80002bc4:	fd078513          	addi	a0,a5,-48
80002bc8:	fd060713          	addi	a4,a2,-48
80002bcc:	0ff77713          	zext.b	a4,a4
80002bd0:	fce5fee3          	bgeu	a1,a4,80002bac <atol+0x78>
80002bd4:	00080663          	beqz	a6,80002be0 <atol+0xac>
80002bd8:	03000513          	li	a0,48
80002bdc:	40f50533          	sub	a0,a0,a5
80002be0:	00008067          	ret
80002be4:	00150513          	addi	a0,a0,1
80002be8:	f51ff06f          	j	80002b38 <atol+0x4>

80002bec <atoi>:
80002bec:	fe010113          	addi	sp,sp,-32
80002bf0:	00812c23          	sw	s0,24(sp)
80002bf4:	00912a23          	sw	s1,20(sp)
80002bf8:	01312623          	sw	s3,12(sp)
80002bfc:	01412423          	sw	s4,8(sp)
80002c00:	00112e23          	sw	ra,28(sp)
80002c04:	01212823          	sw	s2,16(sp)
80002c08:	00050a13          	mv	s4,a0
80002c0c:	00050493          	mv	s1,a0
80002c10:	00000413          	li	s0,0
80002c14:	800109b7          	lui	s3,0x80010
80002c18:	0080006f          	j	80002c20 <atoi+0x34>
80002c1c:	00140413          	addi	s0,s0,1
80002c20:	0004c503          	lbu	a0,0(s1)
80002c24:	f2098593          	addi	a1,s3,-224 # 8000ff20 <_ctype_+0xb4>
80002c28:	00048913          	mv	s2,s1
80002c2c:	4a4000ef          	jal	800030d0 <chrnlst>
80002c30:	00148493          	addi	s1,s1,1
80002c34:	fe0514e3          	bnez	a0,80002c1c <atoi+0x30>
80002c38:	00094603          	lbu	a2,0(s2)
80002c3c:	02d00793          	li	a5,45
80002c40:	08f60e63          	beq	a2,a5,80002cdc <atoi+0xf0>
80002c44:	02b00793          	li	a5,43
80002c48:	06f60863          	beq	a2,a5,80002cb8 <atoi+0xcc>
80002c4c:	fd060693          	addi	a3,a2,-48
80002c50:	0ff6f713          	zext.b	a4,a3
80002c54:	00900793          	li	a5,9
80002c58:	00000813          	li	a6,0
80002c5c:	02e7ee63          	bltu	a5,a4,80002c98 <atoi+0xac>
80002c60:	00140713          	addi	a4,s0,1
80002c64:	00ea0733          	add	a4,s4,a4
80002c68:	00900593          	li	a1,9
80002c6c:	00074603          	lbu	a2,0(a4)
80002c70:	00251793          	slli	a5,a0,0x2
80002c74:	00a787b3          	add	a5,a5,a0
80002c78:	00179793          	slli	a5,a5,0x1
80002c7c:	00f68533          	add	a0,a3,a5
80002c80:	fd060693          	addi	a3,a2,-48
80002c84:	0ff6f793          	zext.b	a5,a3
80002c88:	00170713          	addi	a4,a4,1
80002c8c:	fef5f0e3          	bgeu	a1,a5,80002c6c <atoi+0x80>
80002c90:	00080463          	beqz	a6,80002c98 <atoi+0xac>
80002c94:	40a00533          	neg	a0,a0
80002c98:	01c12083          	lw	ra,28(sp)
80002c9c:	01812403          	lw	s0,24(sp)
80002ca0:	01412483          	lw	s1,20(sp)
80002ca4:	01012903          	lw	s2,16(sp)
80002ca8:	00c12983          	lw	s3,12(sp)
80002cac:	00812a03          	lw	s4,8(sp)
80002cb0:	02010113          	addi	sp,sp,32
80002cb4:	00008067          	ret
80002cb8:	00140413          	addi	s0,s0,1
80002cbc:	008a07b3          	add	a5,s4,s0
80002cc0:	0007c603          	lbu	a2,0(a5)
80002cc4:	00900793          	li	a5,9
80002cc8:	fd060693          	addi	a3,a2,-48
80002ccc:	0ff6f713          	zext.b	a4,a3
80002cd0:	fce7e4e3          	bltu	a5,a4,80002c98 <atoi+0xac>
80002cd4:	00000813          	li	a6,0
80002cd8:	f89ff06f          	j	80002c60 <atoi+0x74>
80002cdc:	00140413          	addi	s0,s0,1
80002ce0:	008a07b3          	add	a5,s4,s0
80002ce4:	0007c603          	lbu	a2,0(a5)
80002ce8:	00900793          	li	a5,9
80002cec:	00100813          	li	a6,1
80002cf0:	fd060693          	addi	a3,a2,-48
80002cf4:	0ff6f713          	zext.b	a4,a3
80002cf8:	f6e7f4e3          	bgeu	a5,a4,80002c60 <atoi+0x74>
80002cfc:	f9dff06f          	j	80002c98 <atoi+0xac>

80002d00 <uitoa>:
80002d00:	800107b7          	lui	a5,0x80010
80002d04:	f2878793          	addi	a5,a5,-216 # 8000ff28 <_ctype_+0xbc>
80002d08:	0007af83          	lw	t6,0(a5)
80002d0c:	0047af03          	lw	t5,4(a5)
80002d10:	0087ae83          	lw	t4,8(a5)
80002d14:	00c7ae03          	lw	t3,12(a5)
80002d18:	0107a303          	lw	t1,16(a5)
80002d1c:	0147a883          	lw	a7,20(a5)
80002d20:	0187a803          	lw	a6,24(a5)
80002d24:	01c7a703          	lw	a4,28(a5)
80002d28:	0207a783          	lw	a5,32(a5)
80002d2c:	fc010113          	addi	sp,sp,-64
80002d30:	02112e23          	sw	ra,60(sp)
80002d34:	01f12623          	sw	t6,12(sp)
80002d38:	01e12823          	sw	t5,16(sp)
80002d3c:	01d12a23          	sw	t4,20(sp)
80002d40:	01c12c23          	sw	t3,24(sp)
80002d44:	00612e23          	sw	t1,28(sp)
80002d48:	03112023          	sw	a7,32(sp)
80002d4c:	03012223          	sw	a6,36(sp)
80002d50:	02e12423          	sw	a4,40(sp)
80002d54:	02f12623          	sw	a5,44(sp)
80002d58:	06060c63          	beqz	a2,80002dd0 <uitoa+0xd0>
80002d5c:	02812c23          	sw	s0,56(sp)
80002d60:	ffe68793          	addi	a5,a3,-2
80002d64:	00058413          	mv	s0,a1
80002d68:	02200593          	li	a1,34
80002d6c:	06f5e063          	bltu	a1,a5,80002dcc <uitoa+0xcc>
80002d70:	00050713          	mv	a4,a0
80002d74:	00000813          	li	a6,0
80002d78:	0100006f          	j	80002d88 <uitoa+0x88>
80002d7c:	02d757b3          	divu	a5,a4,a3
80002d80:	02d76463          	bltu	a4,a3,80002da8 <uitoa+0xa8>
80002d84:	00078713          	mv	a4,a5
80002d88:	00180813          	addi	a6,a6,1
80002d8c:	010408b3          	add	a7,s0,a6
80002d90:	02d777b3          	remu	a5,a4,a3
80002d94:	03078793          	addi	a5,a5,48
80002d98:	002787b3          	add	a5,a5,sp
80002d9c:	fdc7c783          	lbu	a5,-36(a5)
80002da0:	fef88fa3          	sb	a5,-1(a7)
80002da4:	fcc81ce3          	bne	a6,a2,80002d7c <uitoa+0x7c>
80002da8:	03060263          	beq	a2,a6,80002dcc <uitoa+0xcc>
80002dac:	00040513          	mv	a0,s0
80002db0:	00088023          	sb	zero,0(a7)
80002db4:	1d0000ef          	jal	80002f84 <strreverse>
80002db8:	03c12083          	lw	ra,60(sp)
80002dbc:	00040513          	mv	a0,s0
80002dc0:	03812403          	lw	s0,56(sp)
80002dc4:	04010113          	addi	sp,sp,64
80002dc8:	00008067          	ret
80002dcc:	03812403          	lw	s0,56(sp)
80002dd0:	03c12083          	lw	ra,60(sp)
80002dd4:	00000513          	li	a0,0
80002dd8:	04010113          	addi	sp,sp,64
80002ddc:	00008067          	ret

80002de0 <itoa>:
80002de0:	00050793          	mv	a5,a0
80002de4:	02060c63          	beqz	a2,80002e1c <itoa+0x3c>
80002de8:	ffe68713          	addi	a4,a3,-2
80002dec:	02200513          	li	a0,34
80002df0:	02e56663          	bltu	a0,a4,80002e1c <itoa+0x3c>
80002df4:	00078513          	mv	a0,a5
80002df8:	0007c663          	bltz	a5,80002e04 <itoa+0x24>
80002dfc:	00078c63          	beqz	a5,80002e14 <itoa+0x34>
80002e00:	f01ff06f          	j	80002d00 <uitoa>
80002e04:	02d00713          	li	a4,45
80002e08:	00e58023          	sb	a4,0(a1)
80002e0c:	fff60613          	addi	a2,a2,-1
80002e10:	00158593          	addi	a1,a1,1
80002e14:	40f00533          	neg	a0,a5
80002e18:	ee9ff06f          	j	80002d00 <uitoa>
80002e1c:	00000513          	li	a0,0
80002e20:	00008067          	ret

80002e24 <bzero>:
80002e24:	00b05a63          	blez	a1,80002e38 <bzero+0x14>
80002e28:	00b505b3          	add	a1,a0,a1
80002e2c:	00150513          	addi	a0,a0,1
80002e30:	fe050fa3          	sb	zero,-1(a0)
80002e34:	feb51ce3          	bne	a0,a1,80002e2c <bzero+0x8>
80002e38:	00008067          	ret

80002e3c <memchr>:
80002e3c:	02060063          	beqz	a2,80002e5c <memchr+0x20>
80002e40:	00c50633          	add	a2,a0,a2
80002e44:	00c0006f          	j	80002e50 <memchr+0x14>
80002e48:	00150513          	addi	a0,a0,1
80002e4c:	00a60863          	beq	a2,a0,80002e5c <memchr+0x20>
80002e50:	00054783          	lbu	a5,0(a0)
80002e54:	feb79ae3          	bne	a5,a1,80002e48 <memchr+0xc>
80002e58:	00008067          	ret
80002e5c:	00000513          	li	a0,0
80002e60:	00008067          	ret

80002e64 <memcmp>:
80002e64:	02060a63          	beqz	a2,80002e98 <memcmp+0x34>
80002e68:	00c50633          	add	a2,a0,a2
80002e6c:	0080006f          	j	80002e74 <memcmp+0x10>
80002e70:	02c50463          	beq	a0,a2,80002e98 <memcmp+0x34>
80002e74:	00054703          	lbu	a4,0(a0)
80002e78:	0005c783          	lbu	a5,0(a1)
80002e7c:	00150513          	addi	a0,a0,1
80002e80:	00158593          	addi	a1,a1,1
80002e84:	fef706e3          	beq	a4,a5,80002e70 <memcmp+0xc>
80002e88:	fff00513          	li	a0,-1
80002e8c:	00e7f863          	bgeu	a5,a4,80002e9c <memcmp+0x38>
80002e90:	00100513          	li	a0,1
80002e94:	00008067          	ret
80002e98:	00000513          	li	a0,0
80002e9c:	00008067          	ret

80002ea0 <memset>:
80002ea0:	00c50633          	add	a2,a0,a2
80002ea4:	00c57863          	bgeu	a0,a2,80002eb4 <memset+0x14>
80002ea8:	00b50023          	sb	a1,0(a0)
80002eac:	00150513          	addi	a0,a0,1
80002eb0:	fea61ce3          	bne	a2,a0,80002ea8 <memset+0x8>
80002eb4:	00008067          	ret

80002eb8 <memcpy>:
80002eb8:	02c05063          	blez	a2,80002ed8 <memcpy+0x20>
80002ebc:	00c50633          	add	a2,a0,a2
80002ec0:	00050793          	mv	a5,a0
80002ec4:	0005c703          	lbu	a4,0(a1)
80002ec8:	00178793          	addi	a5,a5,1
80002ecc:	00158593          	addi	a1,a1,1
80002ed0:	fee78fa3          	sb	a4,-1(a5)
80002ed4:	fef618e3          	bne	a2,a5,80002ec4 <memcpy+0xc>
80002ed8:	00008067          	ret

80002edc <memmove>:
80002edc:	02a5e263          	bltu	a1,a0,80002f00 <memmove+0x24>
80002ee0:	00c58733          	add	a4,a1,a2
80002ee4:	04060263          	beqz	a2,80002f28 <memmove+0x4c>
80002ee8:	0005c783          	lbu	a5,0(a1)
80002eec:	00158593          	addi	a1,a1,1
80002ef0:	00150513          	addi	a0,a0,1
80002ef4:	fef50fa3          	sb	a5,-1(a0)
80002ef8:	fee598e3          	bne	a1,a4,80002ee8 <memmove+0xc>
80002efc:	00008067          	ret
80002f00:	fe060ee3          	beqz	a2,80002efc <memmove+0x20>
80002f04:	fff60613          	addi	a2,a2,-1
80002f08:	fff00693          	li	a3,-1
80002f0c:	00c587b3          	add	a5,a1,a2
80002f10:	0007c703          	lbu	a4,0(a5)
80002f14:	00c507b3          	add	a5,a0,a2
80002f18:	fff60613          	addi	a2,a2,-1
80002f1c:	00e78023          	sb	a4,0(a5)
80002f20:	fed616e3          	bne	a2,a3,80002f0c <memmove+0x30>
80002f24:	00008067          	ret
80002f28:	00008067          	ret

80002f2c <strchr>:
80002f2c:	00054783          	lbu	a5,0(a0)
80002f30:	02f58463          	beq	a1,a5,80002f58 <strchr+0x2c>
80002f34:	00078a63          	beqz	a5,80002f48 <strchr+0x1c>
80002f38:	00154783          	lbu	a5,1(a0)
80002f3c:	00150513          	addi	a0,a0,1
80002f40:	feb79ae3          	bne	a5,a1,80002f34 <strchr+0x8>
80002f44:	00008067          	ret
80002f48:	0015b593          	seqz	a1,a1
80002f4c:	40b005b3          	neg	a1,a1
80002f50:	00b57533          	and	a0,a0,a1
80002f54:	00008067          	ret
80002f58:	00008067          	ret

80002f5c <strlen>:
80002f5c:	00054783          	lbu	a5,0(a0)
80002f60:	00050713          	mv	a4,a0
80002f64:	00000513          	li	a0,0
80002f68:	00078c63          	beqz	a5,80002f80 <strlen+0x24>
80002f6c:	00150513          	addi	a0,a0,1
80002f70:	00a707b3          	add	a5,a4,a0
80002f74:	0007c783          	lbu	a5,0(a5)
80002f78:	fe079ae3          	bnez	a5,80002f6c <strlen+0x10>
80002f7c:	00008067          	ret
80002f80:	00008067          	ret

80002f84 <strreverse>:
80002f84:	04050063          	beqz	a0,80002fc4 <strreverse+0x40>
80002f88:	00054783          	lbu	a5,0(a0)
80002f8c:	02078c63          	beqz	a5,80002fc4 <strreverse+0x40>
80002f90:	00050713          	mv	a4,a0
80002f94:	00174683          	lbu	a3,1(a4)
80002f98:	00070793          	mv	a5,a4
80002f9c:	00170713          	addi	a4,a4,1
80002fa0:	fe069ae3          	bnez	a3,80002f94 <strreverse+0x10>
80002fa4:	02f57063          	bgeu	a0,a5,80002fc4 <strreverse+0x40>
80002fa8:	0007c683          	lbu	a3,0(a5)
80002fac:	00054703          	lbu	a4,0(a0)
80002fb0:	fff78793          	addi	a5,a5,-1
80002fb4:	00150513          	addi	a0,a0,1
80002fb8:	fed50fa3          	sb	a3,-1(a0)
80002fbc:	00e780a3          	sb	a4,1(a5)
80002fc0:	fef564e3          	bltu	a0,a5,80002fa8 <strreverse+0x24>
80002fc4:	00008067          	ret

80002fc8 <strcmp>:
80002fc8:	00054783          	lbu	a5,0(a0)
80002fcc:	0005c703          	lbu	a4,0(a1)
80002fd0:	00e79e63          	bne	a5,a4,80002fec <strcmp+0x24>
80002fd4:	00150513          	addi	a0,a0,1
80002fd8:	00158593          	addi	a1,a1,1
80002fdc:	fe0796e3          	bnez	a5,80002fc8 <strcmp>
80002fe0:	00e03733          	snez	a4,a4
80002fe4:	40e00533          	neg	a0,a4
80002fe8:	00008067          	ret
80002fec:	00f77663          	bgeu	a4,a5,80002ff8 <strcmp+0x30>
80002ff0:	00100513          	li	a0,1
80002ff4:	00008067          	ret
80002ff8:	fff00513          	li	a0,-1
80002ffc:	00008067          	ret

80003000 <strncmp>:
80003000:	00054783          	lbu	a5,0(a0)
80003004:	0005c703          	lbu	a4,0(a1)
80003008:	00e78e63          	beq	a5,a4,80003024 <strncmp+0x24>
8000300c:	0540006f          	j	80003060 <strncmp+0x60>
80003010:	02060a63          	beqz	a2,80003044 <strncmp+0x44>
80003014:	00054783          	lbu	a5,0(a0)
80003018:	0005c703          	lbu	a4,0(a1)
8000301c:	fff60613          	addi	a2,a2,-1
80003020:	02e79063          	bne	a5,a4,80003040 <strncmp+0x40>
80003024:	00150513          	addi	a0,a0,1
80003028:	00158593          	addi	a1,a1,1
8000302c:	fe0792e3          	bnez	a5,80003010 <strncmp+0x10>
80003030:	00060a63          	beqz	a2,80003044 <strncmp+0x44>
80003034:	00e03733          	snez	a4,a4
80003038:	40e00533          	neg	a0,a4
8000303c:	00008067          	ret
80003040:	00061663          	bnez	a2,8000304c <strncmp+0x4c>
80003044:	00000513          	li	a0,0
80003048:	00008067          	ret
8000304c:	00f77663          	bgeu	a4,a5,80003058 <strncmp+0x58>
80003050:	00100513          	li	a0,1
80003054:	00008067          	ret
80003058:	fff00513          	li	a0,-1
8000305c:	00008067          	ret
80003060:	00000513          	li	a0,0
80003064:	fe0614e3          	bnez	a2,8000304c <strncmp+0x4c>
80003068:	00008067          	ret

8000306c <strncpy>:
8000306c:	0005c683          	lbu	a3,0(a1)
80003070:	fff60713          	addi	a4,a2,-1
80003074:	04068863          	beqz	a3,800030c4 <strncpy+0x58>
80003078:	04c05263          	blez	a2,800030bc <strncpy+0x50>
8000307c:	00050793          	mv	a5,a0
80003080:	fff00813          	li	a6,-1
80003084:	0080006f          	j	8000308c <strncpy+0x20>
80003088:	03070c63          	beq	a4,a6,800030c0 <strncpy+0x54>
8000308c:	00d78023          	sb	a3,0(a5)
80003090:	0015c683          	lbu	a3,1(a1)
80003094:	00070613          	mv	a2,a4
80003098:	00158593          	addi	a1,a1,1
8000309c:	00178793          	addi	a5,a5,1
800030a0:	fff70713          	addi	a4,a4,-1
800030a4:	fe0692e3          	bnez	a3,80003088 <strncpy+0x1c>
800030a8:	00c78733          	add	a4,a5,a2
800030ac:	02c05063          	blez	a2,800030cc <strncpy+0x60>
800030b0:	00178793          	addi	a5,a5,1
800030b4:	fe078fa3          	sb	zero,-1(a5)
800030b8:	fef71ce3          	bne	a4,a5,800030b0 <strncpy+0x44>
800030bc:	00008067          	ret
800030c0:	00008067          	ret
800030c4:	00050793          	mv	a5,a0
800030c8:	fe1ff06f          	j	800030a8 <strncpy+0x3c>
800030cc:	00008067          	ret

800030d0 <chrnlst>:
800030d0:	0005c783          	lbu	a5,0(a1)
800030d4:	02078263          	beqz	a5,800030f8 <chrnlst+0x28>
800030d8:	00158593          	addi	a1,a1,1
800030dc:	00c0006f          	j	800030e8 <chrnlst+0x18>
800030e0:	fff5c783          	lbu	a5,-1(a1)
800030e4:	00078a63          	beqz	a5,800030f8 <chrnlst+0x28>
800030e8:	00158593          	addi	a1,a1,1
800030ec:	fef51ae3          	bne	a0,a5,800030e0 <chrnlst+0x10>
800030f0:	00100513          	li	a0,1
800030f4:	00008067          	ret
800030f8:	00000513          	li	a0,0
800030fc:	00008067          	ret

80003100 <strncat>:
80003100:	00050713          	mv	a4,a0
80003104:	00074683          	lbu	a3,0(a4)
80003108:	00070793          	mv	a5,a4
8000310c:	00170713          	addi	a4,a4,1
80003110:	fe069ae3          	bnez	a3,80003104 <strncat+0x4>
80003114:	00c78633          	add	a2,a5,a2
80003118:	0080006f          	j	80003120 <strncat+0x20>
8000311c:	0206c263          	bltz	a3,80003140 <strncat+0x40>
80003120:	0005c703          	lbu	a4,0(a1)
80003124:	00078813          	mv	a6,a5
80003128:	00178793          	addi	a5,a5,1
8000312c:	fee78fa3          	sb	a4,-1(a5)
80003130:	00158593          	addi	a1,a1,1
80003134:	40f606b3          	sub	a3,a2,a5
80003138:	fe0712e3          	bnez	a4,8000311c <strncat+0x1c>
8000313c:	00008067          	ret
80003140:	00080023          	sb	zero,0(a6)
80003144:	00008067          	ret

80003148 <strstr>:
80003148:	00054783          	lbu	a5,0(a0)
8000314c:	00078c63          	beqz	a5,80003164 <strstr+0x1c>
80003150:	0005c803          	lbu	a6,0(a1)
80003154:	00f80c63          	beq	a6,a5,8000316c <strstr+0x24>
80003158:	00154783          	lbu	a5,1(a0)
8000315c:	00150513          	addi	a0,a0,1
80003160:	fe079ae3          	bnez	a5,80003154 <strstr+0xc>
80003164:	00000513          	li	a0,0
80003168:	00008067          	ret
8000316c:	00054783          	lbu	a5,0(a0)
80003170:	fe0784e3          	beqz	a5,80003158 <strstr+0x10>
80003174:	00058693          	mv	a3,a1
80003178:	00050713          	mv	a4,a0
8000317c:	00080613          	mv	a2,a6
80003180:	00170713          	addi	a4,a4,1
80003184:	00168693          	addi	a3,a3,1
80003188:	fcf618e3          	bne	a2,a5,80003158 <strstr+0x10>
8000318c:	00074783          	lbu	a5,0(a4)
80003190:	0006c603          	lbu	a2,0(a3)
80003194:	00078663          	beqz	a5,800031a0 <strstr+0x58>
80003198:	fe0614e3          	bnez	a2,80003180 <strstr+0x38>
8000319c:	00008067          	ret
800031a0:	fa061ce3          	bnez	a2,80003158 <strstr+0x10>
800031a4:	00008067          	ret

800031a8 <strcpy>:
800031a8:	0005c783          	lbu	a5,0(a1)
800031ac:	00150513          	addi	a0,a0,1
800031b0:	00158593          	addi	a1,a1,1
800031b4:	fef50fa3          	sb	a5,-1(a0)
800031b8:	fe0798e3          	bnez	a5,800031a8 <strcpy>
800031bc:	00000513          	li	a0,0
800031c0:	00008067          	ret

800031c4 <strspn>:
800031c4:	00054683          	lbu	a3,0(a0)
800031c8:	04068063          	beqz	a3,80003208 <strspn+0x44>
800031cc:	0005c803          	lbu	a6,0(a1)
800031d0:	02080c63          	beqz	a6,80003208 <strspn+0x44>
800031d4:	00050613          	mv	a2,a0
800031d8:	00058793          	mv	a5,a1
800031dc:	00080713          	mv	a4,a6
800031e0:	00c0006f          	j	800031ec <strspn+0x28>
800031e4:	0007c703          	lbu	a4,0(a5)
800031e8:	00070c63          	beqz	a4,80003200 <strspn+0x3c>
800031ec:	00178793          	addi	a5,a5,1
800031f0:	fed71ae3          	bne	a4,a3,800031e4 <strspn+0x20>
800031f4:	00164683          	lbu	a3,1(a2)
800031f8:	00160613          	addi	a2,a2,1
800031fc:	fc069ee3          	bnez	a3,800031d8 <strspn+0x14>
80003200:	40a60533          	sub	a0,a2,a0
80003204:	00008067          	ret
80003208:	00000513          	li	a0,0
8000320c:	00008067          	ret

80003210 <strcat>:
80003210:	00054783          	lbu	a5,0(a0)
80003214:	02078863          	beqz	a5,80003244 <strcat+0x34>
80003218:	00000713          	li	a4,0
8000321c:	00170713          	addi	a4,a4,1
80003220:	00e507b3          	add	a5,a0,a4
80003224:	0007c683          	lbu	a3,0(a5)
80003228:	fe069ae3          	bnez	a3,8000321c <strcat+0xc>
8000322c:	0005c703          	lbu	a4,0(a1)
80003230:	00178793          	addi	a5,a5,1
80003234:	00158593          	addi	a1,a1,1
80003238:	fee78fa3          	sb	a4,-1(a5)
8000323c:	fe0718e3          	bnez	a4,8000322c <strcat+0x1c>
80003240:	00008067          	ret
80003244:	0005c703          	lbu	a4,0(a1)
80003248:	00050793          	mv	a5,a0
8000324c:	00178793          	addi	a5,a5,1
80003250:	fee78fa3          	sb	a4,-1(a5)
80003254:	00158593          	addi	a1,a1,1
80003258:	fc071ae3          	bnez	a4,8000322c <strcat+0x1c>
8000325c:	00008067          	ret

80003260 <strcspn>:
80003260:	00050613          	mv	a2,a0
80003264:	00064683          	lbu	a3,0(a2)
80003268:	00160813          	addi	a6,a2,1
8000326c:	00058793          	mv	a5,a1
80003270:	0080006f          	j	80003278 <strcspn+0x18>
80003274:	00070c63          	beqz	a4,8000328c <strcspn+0x2c>
80003278:	0007c703          	lbu	a4,0(a5)
8000327c:	00178793          	addi	a5,a5,1
80003280:	fee69ae3          	bne	a3,a4,80003274 <strcspn+0x14>
80003284:	40a60533          	sub	a0,a2,a0
80003288:	00008067          	ret
8000328c:	00080613          	mv	a2,a6
80003290:	fd5ff06f          	j	80003264 <strcspn+0x4>

80003294 <strnlen>:
80003294:	00054783          	lbu	a5,0(a0)
80003298:	00050713          	mv	a4,a0
8000329c:	00000513          	li	a0,0
800032a0:	02078463          	beqz	a5,800032c8 <strnlen+0x34>
800032a4:	00b04663          	bgtz	a1,800032b0 <strnlen+0x1c>
800032a8:	00008067          	ret
800032ac:	00a58c63          	beq	a1,a0,800032c4 <strnlen+0x30>
800032b0:	00150513          	addi	a0,a0,1
800032b4:	00a707b3          	add	a5,a4,a0
800032b8:	0007c783          	lbu	a5,0(a5)
800032bc:	fe0798e3          	bnez	a5,800032ac <strnlen+0x18>
800032c0:	00008067          	ret
800032c4:	00008067          	ret
800032c8:	00008067          	ret

800032cc <strtok>:
800032cc:	800128b7          	lui	a7,0x80012
800032d0:	06050a63          	beqz	a0,80003344 <strtok+0x78>
800032d4:	00054683          	lbu	a3,0(a0)
800032d8:	00150613          	addi	a2,a0,1
800032dc:	00058793          	mv	a5,a1
800032e0:	0080006f          	j	800032e8 <strtok+0x1c>
800032e4:	04e68263          	beq	a3,a4,80003328 <strtok+0x5c>
800032e8:	0007c703          	lbu	a4,0(a5)
800032ec:	00178793          	addi	a5,a5,1
800032f0:	fe071ae3          	bnez	a4,800032e4 <strtok+0x18>
800032f4:	06068063          	beqz	a3,80003354 <strtok+0x88>
800032f8:	00064683          	lbu	a3,0(a2)
800032fc:	00160813          	addi	a6,a2,1
80003300:	00058793          	mv	a5,a1
80003304:	0080006f          	j	8000330c <strtok+0x40>
80003308:	02070463          	beqz	a4,80003330 <strtok+0x64>
8000330c:	0007c703          	lbu	a4,0(a5)
80003310:	00178793          	addi	a5,a5,1
80003314:	fee69ae3          	bne	a3,a4,80003308 <strtok+0x3c>
80003318:	02068063          	beqz	a3,80003338 <strtok+0x6c>
8000331c:	00060023          	sb	zero,0(a2)
80003320:	8308a423          	sw	a6,-2008(a7) # 80011828 <last.0>
80003324:	00008067          	ret
80003328:	00060513          	mv	a0,a2
8000332c:	fa9ff06f          	j	800032d4 <strtok+0x8>
80003330:	00080613          	mv	a2,a6
80003334:	fc5ff06f          	j	800032f8 <strtok+0x2c>
80003338:	00000813          	li	a6,0
8000333c:	8308a423          	sw	a6,-2008(a7)
80003340:	00008067          	ret
80003344:	8288a503          	lw	a0,-2008(a7)
80003348:	f80516e3          	bnez	a0,800032d4 <strtok+0x8>
8000334c:	00000513          	li	a0,0
80003350:	00008067          	ret
80003354:	8208a423          	sw	zero,-2008(a7)
80003358:	00000513          	li	a0,0
8000335c:	00008067          	ret

80003360 <strrchr>:
80003360:	00054703          	lbu	a4,0(a0)
80003364:	00050793          	mv	a5,a0
80003368:	0ff5f593          	zext.b	a1,a1
8000336c:	00000513          	li	a0,0
80003370:	00070c63          	beqz	a4,80003388 <strrchr+0x28>
80003374:	00e59463          	bne	a1,a4,8000337c <strrchr+0x1c>
80003378:	00078513          	mv	a0,a5
8000337c:	0017c703          	lbu	a4,1(a5)
80003380:	00178793          	addi	a5,a5,1
80003384:	fe0718e3          	bnez	a4,80003374 <strrchr+0x14>
80003388:	00058463          	beqz	a1,80003390 <strrchr+0x30>
8000338c:	00008067          	ret
80003390:	00078513          	mv	a0,a5
80003394:	00008067          	ret

80003398 <__subdf3>:
80003398:	800007b7          	lui	a5,0x80000
8000339c:	00f6c6b3          	xor	a3,a3,a5

800033a0 <__adddf3>:
800033a0:	ffe007b7          	lui	a5,0xffe00
800033a4:	00159813          	slli	a6,a1,0x1
800033a8:	00169893          	slli	a7,a3,0x1
800033ac:	38f87a63          	bgeu	a6,a5,80003740 <infnan>
800033b0:	38f8f063          	bgeu	a7,a5,80003730 <infnan_B_only>
800033b4:	01184733          	xor	a4,a6,a7
800033b8:	00c54333          	xor	t1,a0,a2
800033bc:	00676733          	or	a4,a4,t1
800033c0:	30070263          	beqz	a4,800036c4 <equal>
800033c4:	00a86733          	or	a4,a6,a0
800033c8:	2e070463          	beqz	a4,800036b0 <zero_operand>
800033cc:	00c8e333          	or	t1,a7,a2
800033d0:	2e030063          	beqz	t1,800036b0 <zero_operand>
800033d4:	01585813          	srli	a6,a6,0x15
800033d8:	0158d893          	srli	a7,a7,0x15
800033dc:	411802b3          	sub	t0,a6,a7
800033e0:	03187263          	bgeu	a6,a7,80003404 <__adddf3+0x64>
800033e4:	405002b3          	neg	t0,t0
800033e8:	00088813          	mv	a6,a7
800033ec:	00c54633          	xor	a2,a0,a2
800033f0:	00d5c6b3          	xor	a3,a1,a3
800033f4:	00a64533          	xor	a0,a2,a0
800033f8:	00b6c5b3          	xor	a1,a3,a1
800033fc:	00c54633          	xor	a2,a0,a2
80003400:	00d5c6b3          	xor	a3,a1,a3
80003404:	0372b893          	sltiu	a7,t0,55
80003408:	14088463          	beqz	a7,80003550 <exit>
8000340c:	fff7c793          	not	a5,a5
80003410:	01489893          	slli	a7,a7,0x14
80003414:	0115e5b3          	or	a1,a1,a7
80003418:	0116e6b3          	or	a3,a3,a7
8000341c:	00b89893          	slli	a7,a7,0xb
80003420:	0115b333          	sltu	t1,a1,a7
80003424:	00f5f5b3          	and	a1,a1,a5
80003428:	00031a63          	bnez	t1,8000343c <__adddf3+0x9c>
8000342c:	00153313          	seqz	t1,a0
80003430:	fff5c593          	not	a1,a1
80003434:	40a00533          	neg	a0,a0
80003438:	006585b3          	add	a1,a1,t1
8000343c:	0116b333          	sltu	t1,a3,a7
80003440:	00f6f6b3          	and	a3,a3,a5
80003444:	00031a63          	bnez	t1,80003458 <__adddf3+0xb8>
80003448:	00163313          	seqz	t1,a2
8000344c:	fff6c693          	not	a3,a3
80003450:	40c00633          	neg	a2,a2
80003454:	006686b3          	add	a3,a3,t1
80003458:	22580c63          	beq	a6,t0,80003690 <denormal>

8000345c <sum>:
8000345c:	fff80813          	addi	a6,a6,-1
80003460:	00000713          	li	a4,0
80003464:	02000313          	li	t1,32
80003468:	0062ea63          	bltu	t0,t1,8000347c <sum+0x20>
8000346c:	00060713          	mv	a4,a2
80003470:	00068613          	mv	a2,a3
80003474:	41f6d693          	srai	a3,a3,0x1f
80003478:	fe028293          	addi	t0,t0,-32
8000347c:	02028863          	beqz	t0,800034ac <sum+0x50>
80003480:	405308b3          	sub	a7,t1,t0
80003484:	01171333          	sll	t1,a4,a7
80003488:	00575733          	srl	a4,a4,t0
8000348c:	011617b3          	sll	a5,a2,a7
80003490:	00f76733          	or	a4,a4,a5
80003494:	00565633          	srl	a2,a2,t0
80003498:	011697b3          	sll	a5,a3,a7
8000349c:	00f66633          	or	a2,a2,a5
800034a0:	4056d6b3          	sra	a3,a3,t0
800034a4:	00603333          	snez	t1,t1
800034a8:	00676733          	or	a4,a4,t1
800034ac:	00c50533          	add	a0,a0,a2
800034b0:	00c53633          	sltu	a2,a0,a2
800034b4:	00c686b3          	add	a3,a3,a2
800034b8:	00d585b3          	add	a1,a1,a3
800034bc:	01f5d893          	srli	a7,a1,0x1f
800034c0:	01f89893          	slli	a7,a7,0x1f
800034c4:	0205d263          	bgez	a1,800034e8 <pos_or_zero>
800034c8:	40e00733          	neg	a4,a4
800034cc:	00173793          	seqz	a5,a4
800034d0:	fff54513          	not	a0,a0
800034d4:	00f50533          	add	a0,a0,a5
800034d8:	00153313          	seqz	t1,a0
800034dc:	00f37333          	and	t1,t1,a5
800034e0:	fff5c593          	not	a1,a1
800034e4:	006585b3          	add	a1,a1,t1

800034e8 <pos_or_zero>:
800034e8:	001007b7          	lui	a5,0x100
800034ec:	06f5e463          	bltu	a1,a5,80003554 <num_canc>
800034f0:	00179793          	slli	a5,a5,0x1
800034f4:	02f5ea63          	bltu	a1,a5,80003528 <rounding>
800034f8:	00177793          	andi	a5,a4,1
800034fc:	00175713          	srli	a4,a4,0x1
80003500:	00f76733          	or	a4,a4,a5
80003504:	01f51793          	slli	a5,a0,0x1f
80003508:	00f76733          	or	a4,a4,a5
8000350c:	00155513          	srli	a0,a0,0x1
80003510:	01f59793          	slli	a5,a1,0x1f
80003514:	00f56533          	or	a0,a0,a5
80003518:	0015d593          	srli	a1,a1,0x1
8000351c:	00180813          	addi	a6,a6,1
80003520:	7fe00793          	li	a5,2046
80003524:	1ef85e63          	bge	a6,a5,80003720 <inf>

80003528 <rounding>:
80003528:	800007b7          	lui	a5,0x80000
8000352c:	01481813          	slli	a6,a6,0x14
80003530:	010585b3          	add	a1,a1,a6
80003534:	00f76c63          	bltu	a4,a5,8000354c <complete_sum>
80003538:	00150513          	addi	a0,a0,1
8000353c:	00153613          	seqz	a2,a0
80003540:	00c585b3          	add	a1,a1,a2
80003544:	00f71463          	bne	a4,a5,8000354c <complete_sum>
80003548:	ffe57513          	andi	a0,a0,-2

8000354c <complete_sum>:
8000354c:	0115e5b3          	or	a1,a1,a7

80003550 <exit>:
80003550:	00008067          	ret

80003554 <num_canc>:
80003554:	00159593          	slli	a1,a1,0x1
80003558:	01f55793          	srli	a5,a0,0x1f
8000355c:	00f5e5b3          	or	a1,a1,a5
80003560:	00151513          	slli	a0,a0,0x1
80003564:	01f75793          	srli	a5,a4,0x1f
80003568:	00f56533          	or	a0,a0,a5
8000356c:	00171713          	slli	a4,a4,0x1
80003570:	00080793          	mv	a5,a6
80003574:	fff80813          	addi	a6,a6,-1
80003578:	00078663          	beqz	a5,80003584 <denormal_or_str_canc>
8000357c:	001007b7          	lui	a5,0x100
80003580:	faf5f4e3          	bgeu	a1,a5,80003528 <rounding>

80003584 <denormal_or_str_canc>:
80003584:	00059863          	bnez	a1,80003594 <denormal_or_str_canc+0x10>
80003588:	00050593          	mv	a1,a0
8000358c:	00000513          	li	a0,0
80003590:	02000713          	li	a4,32
80003594:	00058693          	mv	a3,a1
80003598:	000107b7          	lui	a5,0x10
8000359c:	00f6f663          	bgeu	a3,a5,800035a8 <denormal_or_str_canc+0x24>
800035a0:	01069693          	slli	a3,a3,0x10
800035a4:	01070713          	addi	a4,a4,16
800035a8:	00479793          	slli	a5,a5,0x4
800035ac:	00f6f663          	bgeu	a3,a5,800035b8 <denormal_or_str_canc+0x34>
800035b0:	00c69693          	slli	a3,a3,0xc
800035b4:	00c70713          	addi	a4,a4,12
800035b8:	00479793          	slli	a5,a5,0x4
800035bc:	00f6f663          	bgeu	a3,a5,800035c8 <denormal_or_str_canc+0x44>
800035c0:	00869693          	slli	a3,a3,0x8
800035c4:	00870713          	addi	a4,a4,8
800035c8:	00479793          	slli	a5,a5,0x4
800035cc:	00f6f663          	bgeu	a3,a5,800035d8 <denormal_or_str_canc+0x54>
800035d0:	00469693          	slli	a3,a3,0x4
800035d4:	00470713          	addi	a4,a4,4
800035d8:	00279793          	slli	a5,a5,0x2
800035dc:	00f6f663          	bgeu	a3,a5,800035e8 <denormal_or_str_canc+0x64>
800035e0:	00269693          	slli	a3,a3,0x2
800035e4:	00270713          	addi	a4,a4,2
800035e8:	00179793          	slli	a5,a5,0x1
800035ec:	00f6f663          	bgeu	a3,a5,800035f8 <denormal_or_str_canc+0x74>
800035f0:	00169693          	slli	a3,a3,0x1
800035f4:	00170713          	addi	a4,a4,1
800035f8:	ff570713          	addi	a4,a4,-11
800035fc:	04070e63          	beqz	a4,80003658 <denormal_canc>
80003600:	fe070613          	addi	a2,a4,-32
80003604:	02065263          	bgez	a2,80003628 <denormal_or_str_canc+0xa4>
80003608:	00c60613          	addi	a2,a2,12
8000360c:	00c05c63          	blez	a2,80003624 <denormal_or_str_canc+0xa0>
80003610:	00c00693          	li	a3,12
80003614:	40c68633          	sub	a2,a3,a2
80003618:	00e59533          	sll	a0,a1,a4
8000361c:	00c5d5b3          	srl	a1,a1,a2
80003620:	0200006f          	j	80003640 <denormal_or_str_canc+0xbc>
80003624:	01460613          	addi	a2,a2,20
80003628:	00c595b3          	sll	a1,a1,a2
8000362c:	02000693          	li	a3,32
80003630:	40c686b3          	sub	a3,a3,a2
80003634:	00d556b3          	srl	a3,a0,a3
80003638:	00d5e5b3          	or	a1,a1,a3
8000363c:	00c51533          	sll	a0,a0,a2
80003640:	40e80833          	sub	a6,a6,a4
80003644:	00084a63          	bltz	a6,80003658 <denormal_canc>
80003648:	01481813          	slli	a6,a6,0x14
8000364c:	010585b3          	add	a1,a1,a6
80003650:	0115e5b3          	or	a1,a1,a7
80003654:	efdff06f          	j	80003550 <exit>

80003658 <denormal_canc>:
80003658:	41000833          	neg	a6,a6
8000365c:	fe080813          	addi	a6,a6,-32
80003660:	02085263          	bgez	a6,80003684 <denormal_canc+0x2c>
80003664:	02080713          	addi	a4,a6,32
80003668:	41000833          	neg	a6,a6
8000366c:	00e55533          	srl	a0,a0,a4
80003670:	01059833          	sll	a6,a1,a6
80003674:	01056533          	or	a0,a0,a6
80003678:	00e5d5b3          	srl	a1,a1,a4
8000367c:	0115e5b3          	or	a1,a1,a7
80003680:	ed1ff06f          	j	80003550 <exit>
80003684:	0105d533          	srl	a0,a1,a6
80003688:	00088593          	mv	a1,a7
8000368c:	ec5ff06f          	j	80003550 <exit>

80003690 <denormal>:
80003690:	001007b7          	lui	a5,0x100
80003694:	00f6c6b3          	xor	a3,a3,a5
80003698:	00080663          	beqz	a6,800036a4 <denormal+0x14>
8000369c:	fff28293          	addi	t0,t0,-1
800036a0:	00081663          	bnez	a6,800036ac <denormal+0x1c>
800036a4:	00f5c5b3          	xor	a1,a1,a5
800036a8:	00180813          	addi	a6,a6,1
800036ac:	db1ff06f          	j	8000345c <sum>

800036b0 <zero_operand>:
800036b0:	00a867b3          	or	a5,a6,a0
800036b4:	00079663          	bnez	a5,800036c0 <zero_operand_return>
800036b8:	00068593          	mv	a1,a3
800036bc:	00060513          	mv	a0,a2

800036c0 <zero_operand_return>:
800036c0:	e91ff06f          	j	80003550 <exit>

800036c4 <equal>:
800036c4:	00d58863          	beq	a1,a3,800036d4 <equal_samesign>
800036c8:	00000593          	li	a1,0
800036cc:	00000513          	li	a0,0
800036d0:	e81ff06f          	j	80003550 <exit>

800036d4 <equal_samesign>:
800036d4:	0107f7b3          	and	a5,a5,a6
800036d8:	02079263          	bnez	a5,800036fc <equal_nodenormal>
800036dc:	00080593          	mv	a1,a6
800036e0:	01f55713          	srli	a4,a0,0x1f
800036e4:	00e5e5b3          	or	a1,a1,a4
800036e8:	00151513          	slli	a0,a0,0x1
800036ec:	00d5f663          	bgeu	a1,a3,800036f8 <equal_samesign+0x24>
800036f0:	800007b7          	lui	a5,0x80000
800036f4:	00f5e5b3          	or	a1,a1,a5
800036f8:	e59ff06f          	j	80003550 <exit>

800036fc <equal_nodenormal>:
800036fc:	01585813          	srli	a6,a6,0x15
80003700:	7fe00713          	li	a4,2046
80003704:	00e837b3          	sltu	a5,a6,a4
80003708:	00078863          	beqz	a5,80003718 <equal_nodenormal+0x1c>
8000370c:	01479793          	slli	a5,a5,0x14
80003710:	00f585b3          	add	a1,a1,a5
80003714:	e3dff06f          	j	80003550 <exit>
80003718:	800007b7          	lui	a5,0x80000
8000371c:	00b7f8b3          	and	a7,a5,a1

80003720 <inf>:
80003720:	7ff005b7          	lui	a1,0x7ff00
80003724:	00000513          	li	a0,0
80003728:	0115e5b3          	or	a1,a1,a7
8000372c:	e25ff06f          	j	80003550 <exit>

80003730 <infnan_B_only>:
80003730:	00068593          	mv	a1,a3
80003734:	00060513          	mv	a0,a2
80003738:	00088813          	mv	a6,a7
8000373c:	0100006f          	j	8000374c <infnan_end>

80003740 <infnan>:
80003740:	00f8f663          	bgeu	a7,a5,8000374c <infnan_end>
80003744:	00058693          	mv	a3,a1
80003748:	00050613          	mv	a2,a0

8000374c <infnan_end>:
8000374c:	00b81813          	slli	a6,a6,0xb
80003750:	00a86833          	or	a6,a6,a0
80003754:	00081863          	bnez	a6,80003764 <produce_nan>
80003758:	00c51663          	bne	a0,a2,80003764 <produce_nan>
8000375c:	00d59463          	bne	a1,a3,80003764 <produce_nan>
80003760:	df1ff06f          	j	80003550 <exit>

80003764 <produce_nan>:
80003764:	7ff805b7          	lui	a1,0x7ff80
80003768:	00000513          	li	a0,0
8000376c:	de5ff06f          	j	80003550 <exit>

80003770 <__subsf3>:
80003770:	800007b7          	lui	a5,0x80000
80003774:	00f5c5b3          	xor	a1,a1,a5

80003778 <__addsf3>:
80003778:	80000337          	lui	t1,0x80000
8000377c:	00b543b3          	xor	t2,a0,a1
80003780:	00657733          	and	a4,a0,t1
80003784:	00151613          	slli	a2,a0,0x1
80003788:	00159693          	slli	a3,a1,0x1
8000378c:	00d67863          	bgeu	a2,a3,8000379c <__addsf3+0x24>
80003790:	0065f733          	and	a4,a1,t1
80003794:	00159613          	slli	a2,a1,0x1
80003798:	00151693          	slli	a3,a0,0x1
8000379c:	ff0007b7          	lui	a5,0xff000
800037a0:	16f67463          	bgeu	a2,a5,80003908 <infnan>
800037a4:	16f6f263          	bgeu	a3,a5,80003908 <infnan>
800037a8:	10d60863          	beq	a2,a3,800038b8 <equal>
800037ac:	00761513          	slli	a0,a2,0x7
800037b0:	00769593          	slli	a1,a3,0x7
800037b4:	01865613          	srli	a2,a2,0x18
800037b8:	0186d693          	srli	a3,a3,0x18
800037bc:	40d602b3          	sub	t0,a2,a3
800037c0:	01a2b893          	sltiu	a7,t0,26
800037c4:	0e088463          	beqz	a7,800038ac <return_greater>
800037c8:	0c060c63          	beqz	a2,800038a0 <both_denormal_zero>
800037cc:	fff60613          	addi	a2,a2,-1
800037d0:	00656533          	or	a0,a0,t1
800037d4:	0a068663          	beqz	a3,80003880 <lower_denormal>
800037d8:	0065e5b3          	or	a1,a1,t1

800037dc <sum>:
800037dc:	0055d7b3          	srl	a5,a1,t0
800037e0:	00128293          	addi	t0,t0,1
800037e4:	405002b3          	neg	t0,t0
800037e8:	005595b3          	sll	a1,a1,t0
800037ec:	0403c863          	bltz	t2,8000383c <diff_sign>
800037f0:	00f50533          	add	a0,a0,a5

800037f4 <pos_or_zero>:
800037f4:	00f57c63          	bgeu	a0,a5,8000380c <adjust>
800037f8:	00155513          	srli	a0,a0,0x1
800037fc:	00656533          	or	a0,a0,t1
80003800:	00160613          	addi	a2,a2,1
80003804:	0fe00793          	li	a5,254
80003808:	0ef65c63          	bge	a2,a5,80003900 <inf>

8000380c <adjust>:
8000380c:	0015d593          	srli	a1,a1,0x1
80003810:	01851693          	slli	a3,a0,0x18
80003814:	00b6e6b3          	or	a3,a3,a1

80003818 <return_a0>:
80003818:	00855513          	srli	a0,a0,0x8

8000381c <rounding>:
8000381c:	0066e863          	bltu	a3,t1,8000382c <exp_sign_and_exit>
80003820:	00150513          	addi	a0,a0,1
80003824:	00669463          	bne	a3,t1,8000382c <exp_sign_and_exit>
80003828:	ffe57513          	andi	a0,a0,-2

8000382c <exp_sign_and_exit>:
8000382c:	01761613          	slli	a2,a2,0x17
80003830:	00c50533          	add	a0,a0,a2

80003834 <sign_and_exit>:
80003834:	00e56533          	or	a0,a0,a4

80003838 <exit>:
80003838:	00008067          	ret

8000383c <diff_sign>:
8000383c:	00b036b3          	snez	a3,a1
80003840:	00d7e7b3          	or	a5,a5,a3
80003844:	40f50533          	sub	a0,a0,a5
80003848:	fc0542e3          	bltz	a0,8000380c <adjust>

8000384c <num_canc>:
8000384c:	00151513          	slli	a0,a0,0x1
80003850:	00060793          	mv	a5,a2
80003854:	fff60613          	addi	a2,a2,-1
80003858:	00078863          	beqz	a5,80003868 <denormal_or_strong_cancellation>
8000385c:	fa6578e3          	bgeu	a0,t1,8000380c <adjust>

80003860 <clz_loop>:
80003860:	00151513          	slli	a0,a0,0x1
80003864:	fff60613          	addi	a2,a2,-1

80003868 <denormal_or_strong_cancellation>:
80003868:	fe656ce3          	bltu	a0,t1,80003860 <clz_loop>
8000386c:	00855513          	srli	a0,a0,0x8
80003870:	fa065ee3          	bgez	a2,8000382c <exp_sign_and_exit>

80003874 <denormal_cancellation>:
80003874:	40c00633          	neg	a2,a2
80003878:	00c55533          	srl	a0,a0,a2
8000387c:	fb9ff06f          	j	80003834 <sign_and_exit>

80003880 <lower_denormal>:
80003880:	fff34893          	not	a7,t1
80003884:	0115f5b3          	and	a1,a1,a7
80003888:	fff28293          	addi	t0,t0,-1
8000388c:	f51ff06f          	j	800037dc <sum>

80003890 <both_denormal>:
80003890:	fff34893          	not	a7,t1
80003894:	0115f5b3          	and	a1,a1,a7
80003898:	01157533          	and	a0,a0,a7
8000389c:	f41ff06f          	j	800037dc <sum>

800038a0 <both_denormal_zero>:
800038a0:	fe0598e3          	bnez	a1,80003890 <both_denormal>
800038a4:	00855513          	srli	a0,a0,0x8
800038a8:	f85ff06f          	j	8000382c <exp_sign_and_exit>

800038ac <return_greater>:
800038ac:	00151513          	slli	a0,a0,0x1
800038b0:	00955513          	srli	a0,a0,0x9
800038b4:	f79ff06f          	j	8000382c <exp_sign_and_exit>

800038b8 <equal>:
800038b8:	0003d663          	bgez	t2,800038c4 <equal_samesign>

800038bc <zero>:
800038bc:	00000513          	li	a0,0
800038c0:	00008067          	ret

800038c4 <equal_samesign>:
800038c4:	00c7f7b3          	and	a5,a5,a2
800038c8:	00079c63          	bnez	a5,800038e0 <equal_nodenormal>
800038cc:	00060513          	mv	a0,a2
800038d0:	f6b674e3          	bgeu	a2,a1,80003838 <exit>
800038d4:	800007b7          	lui	a5,0x80000
800038d8:	00f56533          	or	a0,a0,a5
800038dc:	00008067          	ret

800038e0 <equal_nodenormal>:
800038e0:	01865613          	srli	a2,a2,0x18
800038e4:	0fe63793          	sltiu	a5,a2,254
800038e8:	00078863          	beqz	a5,800038f8 <equal_nodenormal+0x18>
800038ec:	008007b7          	lui	a5,0x800
800038f0:	00f50533          	add	a0,a0,a5
800038f4:	00008067          	ret
800038f8:	01f79793          	slli	a5,a5,0x1f
800038fc:	00a7f6b3          	and	a3,a5,a0

80003900 <inf>:
80003900:	7f800537          	lui	a0,0x7f800
80003904:	f31ff06f          	j	80003834 <sign_and_exit>

80003908 <infnan>:
80003908:	00c7e663          	bltu	a5,a2,80003914 <produce_nan>
8000390c:	fed61ae3          	bne	a2,a3,80003900 <inf>

80003910 <inf_inf>:
80003910:	f2b504e3          	beq	a0,a1,80003838 <exit>

80003914 <produce_nan>:
80003914:	7fc00537          	lui	a0,0x7fc00
80003918:	00008067          	ret

8000391c <__bswapsi2>:
8000391c:	01851293          	slli	t0,a0,0x18
80003920:	01855313          	srli	t1,a0,0x18
80003924:	00851393          	slli	t2,a0,0x8
80003928:	00ff0e37          	lui	t3,0xff0
8000392c:	01c3f3b3          	and	t2,t2,t3
80003930:	00855e13          	srli	t3,a0,0x8
80003934:	00010eb7          	lui	t4,0x10
80003938:	f00e8e93          	addi	t4,t4,-256 # ff00 <__stack_size+0xdf00>
8000393c:	01de7e33          	and	t3,t3,t4
80003940:	0062e2b3          	or	t0,t0,t1
80003944:	0072e2b3          	or	t0,t0,t2
80003948:	01c2e2b3          	or	t0,t0,t3
8000394c:	00028513          	mv	a0,t0
80003950:	00008067          	ret

80003954 <__clzsi2>:
80003954:	02000293          	li	t0,32
80003958:	00051663          	bnez	a0,80003964 <__clzsi2+0x10>
8000395c:	02000513          	li	a0,32
80003960:	00008067          	ret
80003964:	01000313          	li	t1,16
80003968:	01055393          	srli	t2,a0,0x10
8000396c:	00039463          	bnez	t2,80003974 <__clzsi2+0x20>
80003970:	ff028293          	addi	t0,t0,-16
80003974:	00855393          	srli	t2,a0,0x8
80003978:	00039463          	bnez	t2,80003980 <__clzsi2+0x2c>
8000397c:	ff828293          	addi	t0,t0,-8
80003980:	00455393          	srli	t2,a0,0x4
80003984:	00039463          	bnez	t2,8000398c <__clzsi2+0x38>
80003988:	ffc28293          	addi	t0,t0,-4
8000398c:	00255393          	srli	t2,a0,0x2
80003990:	00039463          	bnez	t2,80003998 <__clzsi2+0x44>
80003994:	ffe28293          	addi	t0,t0,-2
80003998:	00155393          	srli	t2,a0,0x1
8000399c:	00039463          	bnez	t2,800039a4 <__clzsi2+0x50>
800039a0:	fff28293          	addi	t0,t0,-1
800039a4:	00055393          	srli	t2,a0,0x0
800039a8:	00039463          	bnez	t2,800039b0 <__clzsi2+0x5c>
800039ac:	fff28293          	addi	t0,t0,-1
800039b0:	00500533          	add	a0,zero,t0
800039b4:	00008067          	ret

800039b8 <__ctzsi2>:
800039b8:	02000293          	li	t0,32
800039bc:	00051663          	bnez	a0,800039c8 <__ctzsi2+0x10>
800039c0:	02000513          	li	a0,32
800039c4:	00008067          	ret
800039c8:	00000293          	li	t0,0
800039cc:	01000313          	li	t1,16
800039d0:	01051393          	slli	t2,a0,0x10
800039d4:	00038663          	beqz	t2,800039e0 <__ctzsi2+0x28>
800039d8:	01028293          	addi	t0,t0,16
800039dc:	01055513          	srli	a0,a0,0x10
800039e0:	00800313          	li	t1,8
800039e4:	01851393          	slli	t2,a0,0x18
800039e8:	00038663          	beqz	t2,800039f4 <__ctzsi2+0x3c>
800039ec:	00828293          	addi	t0,t0,8
800039f0:	00855513          	srli	a0,a0,0x8
800039f4:	00400313          	li	t1,4
800039f8:	01c51393          	slli	t2,a0,0x1c
800039fc:	00038663          	beqz	t2,80003a08 <__ctzsi2+0x50>
80003a00:	00428293          	addi	t0,t0,4
80003a04:	00455513          	srli	a0,a0,0x4
80003a08:	00200313          	li	t1,2
80003a0c:	01e51393          	slli	t2,a0,0x1e
80003a10:	00038663          	beqz	t2,80003a1c <__ctzsi2+0x64>
80003a14:	00228293          	addi	t0,t0,2
80003a18:	00255513          	srli	a0,a0,0x2
80003a1c:	00100313          	li	t1,1
80003a20:	01f51393          	slli	t2,a0,0x1f
80003a24:	00038463          	beqz	t2,80003a2c <__ctzsi2+0x74>
80003a28:	00128293          	addi	t0,t0,1
80003a2c:	00500533          	add	a0,zero,t0
80003a30:	00008067          	ret

80003a34 <__divdf3>:
80003a34:	ffe007b7          	lui	a5,0xffe00
80003a38:	00159713          	slli	a4,a1,0x1
80003a3c:	00169813          	slli	a6,a3,0x1
80003a40:	32f77463          	bgeu	a4,a5,80003d68 <inf_nan>
80003a44:	32f87263          	bgeu	a6,a5,80003d68 <inf_nan>
80003a48:	01575713          	srli	a4,a4,0x15
80003a4c:	01585813          	srli	a6,a6,0x15
80003a50:	2e070663          	beqz	a4,80003d3c <zero_denormal>
80003a54:	2e080463          	beqz	a6,80003d3c <zero_denormal>

80003a58 <normal_case>:
80003a58:	41070733          	sub	a4,a4,a6
80003a5c:	00d5c2b3          	xor	t0,a1,a3
80003a60:	00c69693          	slli	a3,a3,0xc
80003a64:	00c59593          	slli	a1,a1,0xc
80003a68:	100007b7          	lui	a5,0x10000
80003a6c:	0046d693          	srli	a3,a3,0x4
80003a70:	00f6e6b3          	or	a3,a3,a5
80003a74:	01865313          	srli	t1,a2,0x18
80003a78:	0066e6b3          	or	a3,a3,t1
80003a7c:	00861613          	slli	a2,a2,0x8
80003a80:	0045d313          	srli	t1,a1,0x4
80003a84:	0067e7b3          	or	a5,a5,t1
80003a88:	01855313          	srli	t1,a0,0x18
80003a8c:	0067e7b3          	or	a5,a5,t1
80003a90:	00851813          	slli	a6,a0,0x8
80003a94:	80000337          	lui	t1,0x80000
80003a98:	0062f5b3          	and	a1,t0,t1
80003a9c:	40d78333          	sub	t1,a5,a3
80003aa0:	00133313          	seqz	t1,t1
80003aa4:	00c833b3          	sltu	t2,a6,a2
80003aa8:	00737333          	and	t1,t1,t2
80003aac:	00d7b2b3          	sltu	t0,a5,a3
80003ab0:	00536333          	or	t1,t1,t0
80003ab4:	3fe70713          	addi	a4,a4,1022
80003ab8:	40670733          	sub	a4,a4,t1
80003abc:	00030a63          	beqz	t1,80003ad0 <normal_case+0x78>
80003ac0:	00165613          	srli	a2,a2,0x1
80003ac4:	01f69313          	slli	t1,a3,0x1f
80003ac8:	00666633          	or	a2,a2,t1
80003acc:	0016d693          	srli	a3,a3,0x1
80003ad0:	00c833b3          	sltu	t2,a6,a2
80003ad4:	40c80833          	sub	a6,a6,a2
80003ad8:	40d787b3          	sub	a5,a5,a3
80003adc:	407787b3          	sub	a5,a5,t2
80003ae0:	00165613          	srli	a2,a2,0x1
80003ae4:	01f69313          	slli	t1,a3,0x1f
80003ae8:	00666633          	or	a2,a2,t1
80003aec:	0016d693          	srli	a3,a3,0x1
80003af0:	00100537          	lui	a0,0x100
80003af4:	000803b7          	lui	t2,0x80

80003af8 <div_loop_start>:
80003af8:	00c83333          	sltu	t1,a6,a2
80003afc:	40d782b3          	sub	t0,a5,a3
80003b00:	406282b3          	sub	t0,t0,t1
80003b04:	0002c863          	bltz	t0,80003b14 <div_loop_start+0x1c>
80003b08:	40c80833          	sub	a6,a6,a2
80003b0c:	00028793          	mv	a5,t0
80003b10:	00756533          	or	a0,a0,t2
80003b14:	00165613          	srli	a2,a2,0x1
80003b18:	01f69293          	slli	t0,a3,0x1f
80003b1c:	00566633          	or	a2,a2,t0
80003b20:	0016d693          	srli	a3,a3,0x1
80003b24:	00c83333          	sltu	t1,a6,a2
80003b28:	40d782b3          	sub	t0,a5,a3
80003b2c:	406282b3          	sub	t0,t0,t1
80003b30:	0002ca63          	bltz	t0,80003b44 <div_loop_start+0x4c>
80003b34:	40c80833          	sub	a6,a6,a2
80003b38:	00028793          	mv	a5,t0
80003b3c:	0013d293          	srli	t0,t2,0x1
80003b40:	00556533          	or	a0,a0,t0
80003b44:	00165613          	srli	a2,a2,0x1
80003b48:	01f69293          	slli	t0,a3,0x1f
80003b4c:	00566633          	or	a2,a2,t0
80003b50:	0016d693          	srli	a3,a3,0x1
80003b54:	00c83333          	sltu	t1,a6,a2
80003b58:	40d782b3          	sub	t0,a5,a3
80003b5c:	406282b3          	sub	t0,t0,t1
80003b60:	0002ca63          	bltz	t0,80003b74 <div_loop_start+0x7c>
80003b64:	40c80833          	sub	a6,a6,a2
80003b68:	00028793          	mv	a5,t0
80003b6c:	0023d293          	srli	t0,t2,0x2
80003b70:	00556533          	or	a0,a0,t0
80003b74:	00165613          	srli	a2,a2,0x1
80003b78:	01f69293          	slli	t0,a3,0x1f
80003b7c:	00566633          	or	a2,a2,t0
80003b80:	0016d693          	srli	a3,a3,0x1
80003b84:	00c83333          	sltu	t1,a6,a2
80003b88:	40d782b3          	sub	t0,a5,a3
80003b8c:	406282b3          	sub	t0,t0,t1
80003b90:	0002ca63          	bltz	t0,80003ba4 <div_loop_start+0xac>
80003b94:	40c80833          	sub	a6,a6,a2
80003b98:	00028793          	mv	a5,t0
80003b9c:	0033d293          	srli	t0,t2,0x3
80003ba0:	00556533          	or	a0,a0,t0
80003ba4:	0107e2b3          	or	t0,a5,a6
80003ba8:	04028463          	beqz	t0,80003bf0 <div_loop_exit>
80003bac:	00479793          	slli	a5,a5,0x4
80003bb0:	01c85293          	srli	t0,a6,0x1c
80003bb4:	0057e7b3          	or	a5,a5,t0
80003bb8:	00481813          	slli	a6,a6,0x4
80003bbc:	00369693          	slli	a3,a3,0x3
80003bc0:	01d65293          	srli	t0,a2,0x1d
80003bc4:	0056e6b3          	or	a3,a3,t0
80003bc8:	00361613          	slli	a2,a2,0x3
80003bcc:	0043d393          	srli	t2,t2,0x4
80003bd0:	f20394e3          	bnez	t2,80003af8 <div_loop_start>
80003bd4:	001002b7          	lui	t0,0x100
80003bd8:	00b2f2b3          	and	t0,t0,a1
80003bdc:	02029463          	bnez	t0,80003c04 <checks>
80003be0:	00a5e5b3          	or	a1,a1,a0
80003be4:	00000513          	li	a0,0
80003be8:	800003b7          	lui	t2,0x80000
80003bec:	f0dff06f          	j	80003af8 <div_loop_start>

80003bf0 <div_loop_exit>:
80003bf0:	001002b7          	lui	t0,0x100
80003bf4:	00b2f2b3          	and	t0,t0,a1
80003bf8:	00029663          	bnez	t0,80003c04 <checks>
80003bfc:	00a5e5b3          	or	a1,a1,a0
80003c00:	00000513          	li	a0,0

80003c04 <checks>:
80003c04:	f0370393          	addi	t2,a4,-253
80003c08:	00e3f663          	bgeu	t2,a4,80003c14 <exp_round>
80003c0c:	70000293          	li	t0,1792
80003c10:	0272ea63          	bltu	t0,t2,80003c44 <und_ov_flow>

80003c14 <exp_round>:
80003c14:	01471713          	slli	a4,a4,0x14
80003c18:	00e585b3          	add	a1,a1,a4
80003c1c:	02d7e263          	bltu	a5,a3,80003c40 <exit>
80003c20:	00f6ea63          	bltu	a3,a5,80003c34 <round_up>
80003c24:	00c86e63          	bltu	a6,a2,80003c40 <exit>
80003c28:	01066663          	bltu	a2,a6,80003c34 <round_up>
80003c2c:	01f51293          	slli	t0,a0,0x1f
80003c30:	00028863          	beqz	t0,80003c40 <exit>

80003c34 <round_up>:
80003c34:	00150513          	addi	a0,a0,1 # 100001 <__stack_size+0xfe001>
80003c38:	00153293          	seqz	t0,a0
80003c3c:	005585b3          	add	a1,a1,t0

80003c40 <exit>:
80003c40:	00008067          	ret

80003c44 <und_ov_flow>:
80003c44:	1472c463          	blt	t0,t2,80003d8c <ovf>
80003c48:	fcb00313          	li	t1,-53
80003c4c:	10674663          	blt	a4,t1,80003d58 <signed_zero>

80003c50 <denormal_end>:
80003c50:	00f86833          	or	a6,a6,a5
80003c54:	01003833          	snez	a6,a6
80003c58:	80000f37          	lui	t5,0x80000
80003c5c:	00000e93          	li	t4,0
80003c60:	00bf7f33          	and	t5,t5,a1
80003c64:	01e5c5b3          	xor	a1,a1,t5
80003c68:	40e00733          	neg	a4,a4
80003c6c:	02000793          	li	a5,32
80003c70:	04f75663          	bge	a4,a5,80003cbc <den_rounding+0x28>
80003c74:	40e787b3          	sub	a5,a5,a4
80003c78:	01d03633          	snez	a2,t4
80003c7c:	00f51eb3          	sll	t4,a0,a5
80003c80:	00ceeeb3          	or	t4,t4,a2
80003c84:	00e55533          	srl	a0,a0,a4
80003c88:	00f59633          	sll	a2,a1,a5
80003c8c:	00c56533          	or	a0,a0,a2
80003c90:	00e5d5b3          	srl	a1,a1,a4

80003c94 <den_rounding>:
80003c94:	01e5e5b3          	or	a1,a1,t5
80003c98:	fa0ed4e3          	bgez	t4,80003c40 <exit>
80003c9c:	00150513          	addi	a0,a0,1
80003ca0:	00153293          	seqz	t0,a0
80003ca4:	005585b3          	add	a1,a1,t0
80003ca8:	001e9e93          	slli	t4,t4,0x1
80003cac:	010eeeb3          	or	t4,t4,a6
80003cb0:	f80e98e3          	bnez	t4,80003c40 <exit>
80003cb4:	ffe57513          	andi	a0,a0,-2
80003cb8:	00008067          	ret
80003cbc:	fe070713          	addi	a4,a4,-32
80003cc0:	00050e93          	mv	t4,a0
80003cc4:	00058513          	mv	a0,a1
80003cc8:	00000593          	li	a1,0
80003ccc:	fc0704e3          	beqz	a4,80003c94 <den_rounding>
80003cd0:	40e787b3          	sub	a5,a5,a4
80003cd4:	fa5ff06f          	j	80003c78 <denormal_end+0x28>

80003cd8 <denormal>:
80003cd8:	800007b7          	lui	a5,0x80000
80003cdc:	00b7de13          	srli	t3,a5,0xb
80003ce0:	00f5f333          	and	t1,a1,a5
80003ce4:	02071263          	bnez	a4,80003d08 <denormal+0x30>
80003ce8:	00159593          	slli	a1,a1,0x1
80003cec:	01f55f13          	srli	t5,a0,0x1f
80003cf0:	01e5e5b3          	or	a1,a1,t5
80003cf4:	00151513          	slli	a0,a0,0x1
80003cf8:	01c5f3b3          	and	t2,a1,t3
80003cfc:	00039663          	bnez	t2,80003d08 <denormal+0x30>
80003d00:	fff70713          	addi	a4,a4,-1
80003d04:	fe5ff06f          	j	80003ce8 <denormal+0x10>
80003d08:	0065e5b3          	or	a1,a1,t1
80003d0c:	00d7f7b3          	and	a5,a5,a3
80003d10:	02081263          	bnez	a6,80003d34 <denormal+0x5c>
80003d14:	00169693          	slli	a3,a3,0x1
80003d18:	01f65f13          	srli	t5,a2,0x1f
80003d1c:	01e6e6b3          	or	a3,a3,t5
80003d20:	00161613          	slli	a2,a2,0x1
80003d24:	01c6f3b3          	and	t2,a3,t3
80003d28:	00039663          	bnez	t2,80003d34 <denormal+0x5c>
80003d2c:	fff80813          	addi	a6,a6,-1
80003d30:	fe5ff06f          	j	80003d14 <denormal+0x3c>
80003d34:	00f6e6b3          	or	a3,a3,a5
80003d38:	d21ff06f          	j	80003a58 <normal_case>

80003d3c <zero_denormal>:
80003d3c:	00169793          	slli	a5,a3,0x1
80003d40:	00c7e7b3          	or	a5,a5,a2
80003d44:	00159393          	slli	t2,a1,0x1
80003d48:	00a3e3b3          	or	t2,t2,a0
80003d4c:	04078c63          	beqz	a5,80003da4 <div_by_zero>
80003d50:	f80394e3          	bnez	t2,80003cd8 <denormal>

80003d54 <zero>:
80003d54:	00d5c5b3          	xor	a1,a1,a3

80003d58 <signed_zero>:
80003d58:	01f5d593          	srli	a1,a1,0x1f
80003d5c:	01f59593          	slli	a1,a1,0x1f
80003d60:	00000513          	li	a0,0
80003d64:	00008067          	ret

80003d68 <inf_nan>:
80003d68:	00a032b3          	snez	t0,a0
80003d6c:	00e2e2b3          	or	t0,t0,a4
80003d70:	0257ec63          	bltu	a5,t0,80003da8 <nan>
80003d74:	00c032b3          	snez	t0,a2
80003d78:	0102e2b3          	or	t0,t0,a6
80003d7c:	0257e663          	bltu	a5,t0,80003da8 <nan>
80003d80:	03070463          	beq	a4,a6,80003da8 <nan>
80003d84:	fcf808e3          	beq	a6,a5,80003d54 <zero>

80003d88 <inf>:
80003d88:	00d5c5b3          	xor	a1,a1,a3

80003d8c <ovf>:
80003d8c:	7ff006b7          	lui	a3,0x7ff00
80003d90:	01f5d593          	srli	a1,a1,0x1f
80003d94:	01f59593          	slli	a1,a1,0x1f
80003d98:	00d5e5b3          	or	a1,a1,a3
80003d9c:	00000513          	li	a0,0
80003da0:	00008067          	ret

80003da4 <div_by_zero>:
80003da4:	fe0392e3          	bnez	t2,80003d88 <inf>

80003da8 <nan>:
80003da8:	7ff805b7          	lui	a1,0x7ff80
80003dac:	00000513          	li	a0,0
80003db0:	00008067          	ret

80003db4 <__divsf3>:
80003db4:	800002b7          	lui	t0,0x80000
80003db8:	ff0007b7          	lui	a5,0xff000
80003dbc:	00151613          	slli	a2,a0,0x1
80003dc0:	00159693          	slli	a3,a1,0x1
80003dc4:	14f67463          	bgeu	a2,a5,80003f0c <inf_nan>
80003dc8:	14f6f263          	bgeu	a3,a5,80003f0c <inf_nan>
80003dcc:	01865613          	srli	a2,a2,0x18
80003dd0:	0186d693          	srli	a3,a3,0x18
80003dd4:	10060e63          	beqz	a2,80003ef0 <zero_denormal>
80003dd8:	10068c63          	beqz	a3,80003ef0 <zero_denormal>

80003ddc <normal_case>:
80003ddc:	40d60633          	sub	a2,a2,a3
80003de0:	00b543b3          	xor	t2,a0,a1
80003de4:	00951513          	slli	a0,a0,0x9
80003de8:	00959593          	slli	a1,a1,0x9
80003dec:	100006b7          	lui	a3,0x10000
80003df0:	00455513          	srli	a0,a0,0x4
80003df4:	0045d593          	srli	a1,a1,0x4
80003df8:	00d5e5b3          	or	a1,a1,a3
80003dfc:	00a6e6b3          	or	a3,a3,a0
80003e00:	0053f533          	and	a0,t2,t0
80003e04:	00b6a7b3          	slt	a5,a3,a1
80003e08:	00f696b3          	sll	a3,a3,a5
80003e0c:	07e60613          	addi	a2,a2,126
80003e10:	40f60633          	sub	a2,a2,a5
80003e14:	008007b7          	lui	a5,0x800

80003e18 <div_loop_start>:
80003e18:	00b6c663          	blt	a3,a1,80003e24 <div_loop_start+0xc>
80003e1c:	40b686b3          	sub	a3,a3,a1
80003e20:	00f56533          	or	a0,a0,a5
80003e24:	00169693          	slli	a3,a3,0x1
80003e28:	00068663          	beqz	a3,80003e34 <div_loop_exit>
80003e2c:	0017d793          	srli	a5,a5,0x1
80003e30:	fe0794e3          	bnez	a5,80003e18 <div_loop_start>

80003e34 <div_loop_exit>:
80003e34:	0fe00393          	li	t2,254
80003e38:	02767063          	bgeu	a2,t2,80003e58 <und_ov_flow>
80003e3c:	01761613          	slli	a2,a2,0x17
80003e40:	00c50533          	add	a0,a0,a2
80003e44:	00b6e863          	bltu	a3,a1,80003e54 <exit>
80003e48:	00150513          	addi	a0,a0,1
80003e4c:	00b69463          	bne	a3,a1,80003e54 <exit>
80003e50:	ffe57513          	andi	a0,a0,-2

80003e54 <exit>:
80003e54:	00008067          	ret

80003e58 <und_ov_flow>:
80003e58:	0cc04463          	bgtz	a2,80003f20 <ovf>
80003e5c:	01a60393          	addi	t2,a2,26
80003e60:	0003d663          	bgez	t2,80003e6c <denormal_end>
80003e64:	00557533          	and	a0,a0,t0
80003e68:	00008067          	ret

80003e6c <denormal_end>:
80003e6c:	40c007b3          	neg	a5,a2
80003e70:	00a2f3b3          	and	t2,t0,a0
80003e74:	00754533          	xor	a0,a0,t2
80003e78:	02060613          	addi	a2,a2,32
80003e7c:	00c51633          	sll	a2,a0,a2
80003e80:	00f55533          	srl	a0,a0,a5
80003e84:	00756533          	or	a0,a0,t2
80003e88:	0016d693          	srli	a3,a3,0x1
80003e8c:	00d66633          	or	a2,a2,a3
80003e90:	fc5662e3          	bltu	a2,t0,80003e54 <exit>
80003e94:	00150513          	addi	a0,a0,1
80003e98:	fa561ee3          	bne	a2,t0,80003e54 <exit>
80003e9c:	ffe57513          	andi	a0,a0,-2
80003ea0:	00008067          	ret

80003ea4 <denormal>:
80003ea4:	008003b7          	lui	t2,0x800
80003ea8:	00a2f733          	and	a4,t0,a0
80003eac:	00061c63          	bnez	a2,80003ec4 <denormal+0x20>
80003eb0:	00151513          	slli	a0,a0,0x1
80003eb4:	007577b3          	and	a5,a0,t2
80003eb8:	00079663          	bnez	a5,80003ec4 <denormal+0x20>
80003ebc:	fff60613          	addi	a2,a2,-1
80003ec0:	ff1ff06f          	j	80003eb0 <denormal+0xc>
80003ec4:	00e56533          	or	a0,a0,a4
80003ec8:	80000737          	lui	a4,0x80000
80003ecc:	00b77733          	and	a4,a4,a1
80003ed0:	00069c63          	bnez	a3,80003ee8 <denormal+0x44>
80003ed4:	00159593          	slli	a1,a1,0x1
80003ed8:	0075f7b3          	and	a5,a1,t2
80003edc:	00079663          	bnez	a5,80003ee8 <denormal+0x44>
80003ee0:	fff68693          	addi	a3,a3,-1 # fffffff <__stack_size+0xfffdfff>
80003ee4:	ff1ff06f          	j	80003ed4 <denormal+0x30>
80003ee8:	00e5e5b3          	or	a1,a1,a4
80003eec:	ef1ff06f          	j	80003ddc <normal_case>

80003ef0 <zero_denormal>:
80003ef0:	00159793          	slli	a5,a1,0x1
80003ef4:	00151393          	slli	t2,a0,0x1
80003ef8:	02078c63          	beqz	a5,80003f30 <div_by_zero>
80003efc:	fa0394e3          	bnez	t2,80003ea4 <denormal>

80003f00 <zero>:
80003f00:	00b54533          	xor	a0,a0,a1
80003f04:	00557533          	and	a0,a0,t0
80003f08:	00008067          	ret

80003f0c <inf_nan>:
80003f0c:	02c7e463          	bltu	a5,a2,80003f34 <nan>
80003f10:	02d7e263          	bltu	a5,a3,80003f34 <nan>
80003f14:	02d60063          	beq	a2,a3,80003f34 <nan>
80003f18:	fef684e3          	beq	a3,a5,80003f00 <zero>

80003f1c <inf>:
80003f1c:	00b54533          	xor	a0,a0,a1

80003f20 <ovf>:
80003f20:	00557533          	and	a0,a0,t0
80003f24:	7f8002b7          	lui	t0,0x7f800
80003f28:	00556533          	or	a0,a0,t0
80003f2c:	00008067          	ret

80003f30 <div_by_zero>:
80003f30:	fe0396e3          	bnez	t2,80003f1c <inf>

80003f34 <nan>:
80003f34:	7fc00537          	lui	a0,0x7fc00
80003f38:	00008067          	ret

80003f3c <__eqdf2>:
80003f3c:	00a03733          	snez	a4,a0
80003f40:	00159793          	slli	a5,a1,0x1
80003f44:	00e7e7b3          	or	a5,a5,a4
80003f48:	ffe00737          	lui	a4,0xffe00
80003f4c:	02f76a63          	bltu	a4,a5,80003f80 <nan>
80003f50:	00c037b3          	snez	a5,a2
80003f54:	00169293          	slli	t0,a3,0x1
80003f58:	00f2e2b3          	or	t0,t0,a5
80003f5c:	02576263          	bltu	a4,t0,80003f80 <nan>
80003f60:	00d5e733          	or	a4,a1,a3
80003f64:	00171713          	slli	a4,a4,0x1
80003f68:	00a76733          	or	a4,a4,a0
80003f6c:	00c76733          	or	a4,a4,a2
80003f70:	00070863          	beqz	a4,80003f80 <nan>
80003f74:	00c54533          	xor	a0,a0,a2
80003f78:	00d5c5b3          	xor	a1,a1,a3
80003f7c:	00a5e733          	or	a4,a1,a0

80003f80 <nan>:
80003f80:	00e03533          	snez	a0,a4
80003f84:	00008067          	ret

80003f88 <__eqsf2>:
80003f88:	ff0007b7          	lui	a5,0xff000
80003f8c:	00151613          	slli	a2,a0,0x1
80003f90:	00c7ec63          	bltu	a5,a2,80003fa8 <end>
80003f94:	00159693          	slli	a3,a1,0x1
80003f98:	00d7e863          	bltu	a5,a3,80003fa8 <end>
80003f9c:	00d667b3          	or	a5,a2,a3
80003fa0:	00078463          	beqz	a5,80003fa8 <end>
80003fa4:	00b547b3          	xor	a5,a0,a1

80003fa8 <end>:
80003fa8:	00f03533          	snez	a0,a5
80003fac:	00008067          	ret

80003fb0 <__extendsfdf2>:
80003fb0:	800005b7          	lui	a1,0x80000
80003fb4:	00a5f5b3          	and	a1,a1,a0
80003fb8:	00151693          	slli	a3,a0,0x1
80003fbc:	4186d713          	srai	a4,a3,0x18
80003fc0:	02070e63          	beqz	a4,80003ffc <zero_den>
80003fc4:	4036d793          	srai	a5,a3,0x3
80003fc8:	0017d793          	srli	a5,a5,0x1
80003fcc:	01c69513          	slli	a0,a3,0x1c
80003fd0:	00f5e5b3          	or	a1,a1,a5
80003fd4:	00170713          	addi	a4,a4,1 # ffe00001 <fs+0x7fd83001>
80003fd8:	00070863          	beqz	a4,80003fe8 <inf_nan>
80003fdc:	380007b7          	lui	a5,0x38000
80003fe0:	00f5c5b3          	xor	a1,a1,a5

80003fe4 <exit>:
80003fe4:	00008067          	ret

80003fe8 <inf_nan>:
80003fe8:	00869693          	slli	a3,a3,0x8
80003fec:	fe068ce3          	beqz	a3,80003fe4 <exit>
80003ff0:	00080737          	lui	a4,0x80
80003ff4:	00e5e5b3          	or	a1,a1,a4
80003ff8:	00008067          	ret

80003ffc <zero_den>:
80003ffc:	00069663          	bnez	a3,80004008 <denormal>
80004000:	00000513          	li	a0,0
80004004:	00008067          	ret

80004008 <denormal>:
80004008:	010007b7          	lui	a5,0x1000
8000400c:	38000713          	li	a4,896

80004010 <clz_loop>:
80004010:	00169693          	slli	a3,a3,0x1
80004014:	fff70713          	addi	a4,a4,-1 # 7ffff <__stack_size+0x7dfff>
80004018:	fef6ece3          	bltu	a3,a5,80004010 <clz_loop>
8000401c:	01c69513          	slli	a0,a3,0x1c
80004020:	0046d693          	srli	a3,a3,0x4
80004024:	01471713          	slli	a4,a4,0x14
80004028:	00e686b3          	add	a3,a3,a4
8000402c:	00d5e5b3          	or	a1,a1,a3
80004030:	00008067          	ret

80004034 <__fixdfdi>:
80004034:	80000737          	lui	a4,0x80000
80004038:	41f5d793          	srai	a5,a1,0x1f
8000403c:	00159593          	slli	a1,a1,0x1
80004040:	0155d613          	srli	a2,a1,0x15
80004044:	c0160613          	addi	a2,a2,-1023
80004048:	08064663          	bltz	a2,800040d4 <undflow>
8000404c:	00a59593          	slli	a1,a1,0xa
80004050:	01555693          	srli	a3,a0,0x15
80004054:	00d5e5b3          	or	a1,a1,a3
80004058:	00b51513          	slli	a0,a0,0xb
8000405c:	00e5e5b3          	or	a1,a1,a4
80004060:	40c00633          	neg	a2,a2
80004064:	01f60613          	addi	a2,a2,31
80004068:	02064263          	bltz	a2,8000408c <ge_32>
8000406c:	00c5d533          	srl	a0,a1,a2
80004070:	00000593          	li	a1,0
80004074:	00078a63          	beqz	a5,80004088 <__fixdfdi+0x54>
80004078:	40a00533          	neg	a0,a0
8000407c:	fff5c593          	not	a1,a1
80004080:	00153713          	seqz	a4,a0
80004084:	00e585b3          	add	a1,a1,a4
80004088:	00008067          	ret

8000408c <ge_32>:
8000408c:	02060613          	addi	a2,a2,32
80004090:	02c05863          	blez	a2,800040c0 <ovflow>
80004094:	40c00733          	neg	a4,a2
80004098:	00e596b3          	sll	a3,a1,a4
8000409c:	00c55533          	srl	a0,a0,a2
800040a0:	00d56533          	or	a0,a0,a3
800040a4:	00c5d5b3          	srl	a1,a1,a2
800040a8:	00078a63          	beqz	a5,800040bc <ge_32+0x30>
800040ac:	40a00533          	neg	a0,a0
800040b0:	fff5c593          	not	a1,a1
800040b4:	00153713          	seqz	a4,a0
800040b8:	00e585b3          	add	a1,a1,a4
800040bc:	00008067          	ret

800040c0 <ovflow>:
800040c0:	fff00513          	li	a0,-1
800040c4:	fff74593          	not	a1,a4
800040c8:	00f54533          	xor	a0,a0,a5
800040cc:	00f5c5b3          	xor	a1,a1,a5
800040d0:	00008067          	ret

800040d4 <undflow>:
800040d4:	00000513          	li	a0,0
800040d8:	00000593          	li	a1,0
800040dc:	00008067          	ret

800040e0 <__fixdfsi>:
800040e0:	80000737          	lui	a4,0x80000
800040e4:	41f5d793          	srai	a5,a1,0x1f
800040e8:	00159593          	slli	a1,a1,0x1
800040ec:	0155d613          	srli	a2,a1,0x15
800040f0:	c0160613          	addi	a2,a2,-1023
800040f4:	02064e63          	bltz	a2,80004130 <undflow>
800040f8:	40c00633          	neg	a2,a2
800040fc:	01f60613          	addi	a2,a2,31
80004100:	02c05263          	blez	a2,80004124 <ovflow>
80004104:	00a59593          	slli	a1,a1,0xa
80004108:	01555513          	srli	a0,a0,0x15
8000410c:	00a5e5b3          	or	a1,a1,a0
80004110:	00e5e5b3          	or	a1,a1,a4
80004114:	00c5d533          	srl	a0,a1,a2
80004118:	00f54533          	xor	a0,a0,a5
8000411c:	40f50533          	sub	a0,a0,a5
80004120:	00008067          	ret

80004124 <ovflow>:
80004124:	fff70513          	addi	a0,a4,-1 # 7fffffff <__stack_size+0x7fffdfff>
80004128:	00f54533          	xor	a0,a0,a5
8000412c:	00008067          	ret

80004130 <undflow>:
80004130:	00000513          	li	a0,0
80004134:	00008067          	ret

80004138 <__fixsfdi>:
80004138:	80000737          	lui	a4,0x80000
8000413c:	41f55793          	srai	a5,a0,0x1f
80004140:	00151513          	slli	a0,a0,0x1
80004144:	01855613          	srli	a2,a0,0x18
80004148:	f8160613          	addi	a2,a2,-127
8000414c:	08064063          	bltz	a2,800041cc <undflow>
80004150:	00751513          	slli	a0,a0,0x7
80004154:	00e56533          	or	a0,a0,a4
80004158:	40c00633          	neg	a2,a2
8000415c:	01f60613          	addi	a2,a2,31
80004160:	02064263          	bltz	a2,80004184 <ge_32>
80004164:	00000593          	li	a1,0
80004168:	00c55533          	srl	a0,a0,a2
8000416c:	00078a63          	beqz	a5,80004180 <__fixsfdi+0x48>
80004170:	40a00533          	neg	a0,a0
80004174:	fff5c593          	not	a1,a1
80004178:	00153713          	seqz	a4,a0
8000417c:	00e585b3          	add	a1,a1,a4
80004180:	00008067          	ret

80004184 <ge_32>:
80004184:	02060613          	addi	a2,a2,32
80004188:	02c05863          	blez	a2,800041b8 <ovflow>
8000418c:	00050593          	mv	a1,a0
80004190:	00000513          	li	a0,0
80004194:	40c00733          	neg	a4,a2
80004198:	00e59533          	sll	a0,a1,a4
8000419c:	00c5d5b3          	srl	a1,a1,a2
800041a0:	00078a63          	beqz	a5,800041b4 <ge_32+0x30>
800041a4:	40a00533          	neg	a0,a0
800041a8:	fff5c593          	not	a1,a1
800041ac:	00153713          	seqz	a4,a0
800041b0:	00e585b3          	add	a1,a1,a4
800041b4:	00008067          	ret

800041b8 <ovflow>:
800041b8:	fff00513          	li	a0,-1
800041bc:	fff74593          	not	a1,a4
800041c0:	00f54533          	xor	a0,a0,a5
800041c4:	00f5c5b3          	xor	a1,a1,a5
800041c8:	00008067          	ret

800041cc <undflow>:
800041cc:	00000513          	li	a0,0
800041d0:	00000593          	li	a1,0
800041d4:	00008067          	ret

800041d8 <__fixsfsi>:
800041d8:	80000737          	lui	a4,0x80000
800041dc:	41f55793          	srai	a5,a0,0x1f
800041e0:	00151513          	slli	a0,a0,0x1
800041e4:	01855593          	srli	a1,a0,0x18
800041e8:	f8158593          	addi	a1,a1,-127 # 7fffff81 <__stack_size+0x7fffdf81>
800041ec:	0205ca63          	bltz	a1,80004220 <undflow>
800041f0:	40b005b3          	neg	a1,a1
800041f4:	01f58593          	addi	a1,a1,31
800041f8:	00b05e63          	blez	a1,80004214 <ovflow>
800041fc:	00751513          	slli	a0,a0,0x7
80004200:	00e56533          	or	a0,a0,a4
80004204:	00b55533          	srl	a0,a0,a1
80004208:	00f54533          	xor	a0,a0,a5
8000420c:	40f50533          	sub	a0,a0,a5
80004210:	00008067          	ret

80004214 <ovflow>:
80004214:	fff70513          	addi	a0,a4,-1 # 7fffffff <__stack_size+0x7fffdfff>
80004218:	00f54533          	xor	a0,a0,a5
8000421c:	00008067          	ret

80004220 <undflow>:
80004220:	00000513          	li	a0,0
80004224:	00008067          	ret

80004228 <__fixunsdfdi>:
80004228:	0605ca63          	bltz	a1,8000429c <undflow>
8000422c:	80000737          	lui	a4,0x80000
80004230:	00159593          	slli	a1,a1,0x1
80004234:	0155d613          	srli	a2,a1,0x15
80004238:	c0160613          	addi	a2,a2,-1023
8000423c:	06064063          	bltz	a2,8000429c <undflow>
80004240:	00a59593          	slli	a1,a1,0xa
80004244:	01555693          	srli	a3,a0,0x15
80004248:	00d5e5b3          	or	a1,a1,a3
8000424c:	00b51513          	slli	a0,a0,0xb
80004250:	00e5e5b3          	or	a1,a1,a4
80004254:	40c00633          	neg	a2,a2
80004258:	01f60613          	addi	a2,a2,31
8000425c:	00064863          	bltz	a2,8000426c <ge_32>
80004260:	00c5d533          	srl	a0,a1,a2
80004264:	00000593          	li	a1,0
80004268:	00008067          	ret

8000426c <ge_32>:
8000426c:	02060613          	addi	a2,a2,32
80004270:	02064063          	bltz	a2,80004290 <ovflow>
80004274:	00060c63          	beqz	a2,8000428c <eq_63_end>
80004278:	40c00733          	neg	a4,a2
8000427c:	00e596b3          	sll	a3,a1,a4
80004280:	00c55533          	srl	a0,a0,a2
80004284:	00d56533          	or	a0,a0,a3
80004288:	00c5d5b3          	srl	a1,a1,a2

8000428c <eq_63_end>:
8000428c:	00008067          	ret

80004290 <ovflow>:
80004290:	fff00513          	li	a0,-1
80004294:	00050593          	mv	a1,a0
80004298:	00008067          	ret

8000429c <undflow>:
8000429c:	00000513          	li	a0,0
800042a0:	00000593          	li	a1,0
800042a4:	00008067          	ret

800042a8 <__fixunsdfsi>:
800042a8:	04b05263          	blez	a1,800042ec <undflow>
800042ac:	00159593          	slli	a1,a1,0x1
800042b0:	0155d613          	srli	a2,a1,0x15
800042b4:	c0160613          	addi	a2,a2,-1023
800042b8:	02064a63          	bltz	a2,800042ec <undflow>
800042bc:	40c00633          	neg	a2,a2
800042c0:	01f60613          	addi	a2,a2,31
800042c4:	02064063          	bltz	a2,800042e4 <ovflow>
800042c8:	00a59593          	slli	a1,a1,0xa
800042cc:	01555513          	srli	a0,a0,0x15
800042d0:	00a5e5b3          	or	a1,a1,a0
800042d4:	80000737          	lui	a4,0x80000
800042d8:	00e5e5b3          	or	a1,a1,a4
800042dc:	00c5d533          	srl	a0,a1,a2
800042e0:	00008067          	ret

800042e4 <ovflow>:
800042e4:	fff00513          	li	a0,-1
800042e8:	00008067          	ret

800042ec <undflow>:
800042ec:	00000513          	li	a0,0
800042f0:	00008067          	ret

800042f4 <__fixunssfdi>:
800042f4:	06a05063          	blez	a0,80004354 <undflow>
800042f8:	80000737          	lui	a4,0x80000
800042fc:	00151513          	slli	a0,a0,0x1
80004300:	01855613          	srli	a2,a0,0x18
80004304:	f8160613          	addi	a2,a2,-127
80004308:	04064663          	bltz	a2,80004354 <undflow>
8000430c:	00751513          	slli	a0,a0,0x7
80004310:	00e56533          	or	a0,a0,a4
80004314:	40c00633          	neg	a2,a2
80004318:	01f60613          	addi	a2,a2,31
8000431c:	00064863          	bltz	a2,8000432c <ge_32>
80004320:	00000593          	li	a1,0
80004324:	00c55533          	srl	a0,a0,a2
80004328:	00008067          	ret

8000432c <ge_32>:
8000432c:	02060613          	addi	a2,a2,32
80004330:	00064c63          	bltz	a2,80004348 <ovflow>
80004334:	00c555b3          	srl	a1,a0,a2
80004338:	02060063          	beqz	a2,80004358 <eq_63_end>
8000433c:	40c00733          	neg	a4,a2
80004340:	00e51533          	sll	a0,a0,a4
80004344:	00008067          	ret

80004348 <ovflow>:
80004348:	fff00513          	li	a0,-1
8000434c:	fff00593          	li	a1,-1
80004350:	00008067          	ret

80004354 <undflow>:
80004354:	00000593          	li	a1,0

80004358 <eq_63_end>:
80004358:	00000513          	li	a0,0
8000435c:	00008067          	ret

80004360 <__fixunssfsi>:
80004360:	02a05e63          	blez	a0,8000439c <undflow>
80004364:	00151513          	slli	a0,a0,0x1
80004368:	01855593          	srli	a1,a0,0x18
8000436c:	f8158593          	addi	a1,a1,-127
80004370:	0205c663          	bltz	a1,8000439c <undflow>
80004374:	40b005b3          	neg	a1,a1
80004378:	01f58593          	addi	a1,a1,31
8000437c:	0005cc63          	bltz	a1,80004394 <ovflow>
80004380:	00751513          	slli	a0,a0,0x7
80004384:	80000737          	lui	a4,0x80000
80004388:	00e56533          	or	a0,a0,a4
8000438c:	00b55533          	srl	a0,a0,a1
80004390:	00008067          	ret

80004394 <ovflow>:
80004394:	fff00513          	li	a0,-1
80004398:	00008067          	ret

8000439c <undflow>:
8000439c:	00000513          	li	a0,0
800043a0:	00008067          	ret

800043a4 <__floatdidf>:
800043a4:	01f5d793          	srli	a5,a1,0x1f
800043a8:	0005da63          	bgez	a1,800043bc <__floatdidf+0x18>
800043ac:	40a00533          	neg	a0,a0
800043b0:	fff5c593          	not	a1,a1
800043b4:	00153613          	seqz	a2,a0
800043b8:	00c585b3          	add	a1,a1,a2
800043bc:	01f79793          	slli	a5,a5,0x1f
800043c0:	43d00613          	li	a2,1085
800043c4:	00059a63          	bnez	a1,800043d8 <__floatdidf+0x34>
800043c8:	06050a63          	beqz	a0,8000443c <exit>
800043cc:	00050593          	mv	a1,a0
800043d0:	00000513          	li	a0,0
800043d4:	fe060613          	addi	a2,a2,-32
800043d8:	0005c863          	bltz	a1,800043e8 <__floatdidf+0x44>
800043dc:	fff60613          	addi	a2,a2,-1
800043e0:	00159593          	slli	a1,a1,0x1
800043e4:	feb04ce3          	bgtz	a1,800043dc <__floatdidf+0x38>
800043e8:	be360713          	addi	a4,a2,-1053
800043ec:	00e556b3          	srl	a3,a0,a4
800043f0:	00d5e5b3          	or	a1,a1,a3
800043f4:	40e00733          	neg	a4,a4
800043f8:	00e51533          	sll	a0,a0,a4
800043fc:	01551713          	slli	a4,a0,0x15
80004400:	00b55513          	srli	a0,a0,0xb
80004404:	01559693          	slli	a3,a1,0x15
80004408:	00b5d593          	srli	a1,a1,0xb
8000440c:	00d56533          	or	a0,a0,a3
80004410:	02075063          	bgez	a4,80004430 <__floatdidf+0x8c>
80004414:	00150513          	addi	a0,a0,1 # 7fc00001 <__stack_size+0x7fbfe001>
80004418:	00153693          	seqz	a3,a0
8000441c:	00d585b3          	add	a1,a1,a3
80004420:	00171713          	slli	a4,a4,0x1
80004424:	00173713          	seqz	a4,a4
80004428:	fff74713          	not	a4,a4
8000442c:	00e57533          	and	a0,a0,a4
80004430:	01461613          	slli	a2,a2,0x14
80004434:	00c585b3          	add	a1,a1,a2
80004438:	00f5e5b3          	or	a1,a1,a5

8000443c <exit>:
8000443c:	00008067          	ret

80004440 <__floatdisf>:
80004440:	01f5d793          	srli	a5,a1,0x1f
80004444:	0005da63          	bgez	a1,80004458 <__floatdisf+0x18>
80004448:	40a00533          	neg	a0,a0
8000444c:	fff5c593          	not	a1,a1
80004450:	00153613          	seqz	a2,a0
80004454:	00c585b3          	add	a1,a1,a2
80004458:	01f79793          	slli	a5,a5,0x1f
8000445c:	0bd00613          	li	a2,189
80004460:	00059a63          	bnez	a1,80004474 <__floatdisf+0x34>
80004464:	06050463          	beqz	a0,800044cc <exit>
80004468:	00050593          	mv	a1,a0
8000446c:	00000513          	li	a0,0
80004470:	fe060613          	addi	a2,a2,-32
80004474:	0005c863          	bltz	a1,80004484 <__floatdisf+0x44>
80004478:	fff60613          	addi	a2,a2,-1
8000447c:	00159593          	slli	a1,a1,0x1
80004480:	feb04ce3          	bgtz	a1,80004478 <__floatdisf+0x38>
80004484:	f6360713          	addi	a4,a2,-157
80004488:	00e556b3          	srl	a3,a0,a4
8000448c:	00d5e5b3          	or	a1,a1,a3
80004490:	40e00733          	neg	a4,a4
80004494:	00e51533          	sll	a0,a0,a4
80004498:	00a03733          	snez	a4,a0
8000449c:	0085d513          	srli	a0,a1,0x8
800044a0:	01859593          	slli	a1,a1,0x18
800044a4:	00e5e5b3          	or	a1,a1,a4
800044a8:	0005dc63          	bgez	a1,800044c0 <__floatdisf+0x80>
800044ac:	00150513          	addi	a0,a0,1
800044b0:	00159593          	slli	a1,a1,0x1
800044b4:	0015b593          	seqz	a1,a1
800044b8:	fff5c593          	not	a1,a1
800044bc:	00b57533          	and	a0,a0,a1
800044c0:	01761613          	slli	a2,a2,0x17
800044c4:	00c50533          	add	a0,a0,a2
800044c8:	00f56533          	or	a0,a0,a5

800044cc <exit>:
800044cc:	00008067          	ret

800044d0 <__floatsidf>:
800044d0:	41f55793          	srai	a5,a0,0x1f
800044d4:	00f545b3          	xor	a1,a0,a5
800044d8:	40f585b3          	sub	a1,a1,a5
800044dc:	02050863          	beqz	a0,8000450c <exit>
800044e0:	01f79793          	slli	a5,a5,0x1f
800044e4:	41d00613          	li	a2,1053
800044e8:	0005c863          	bltz	a1,800044f8 <__floatsidf+0x28>
800044ec:	fff60613          	addi	a2,a2,-1
800044f0:	00159593          	slli	a1,a1,0x1
800044f4:	feb04ce3          	bgtz	a1,800044ec <__floatsidf+0x1c>
800044f8:	01559513          	slli	a0,a1,0x15
800044fc:	00b5d593          	srli	a1,a1,0xb
80004500:	01461613          	slli	a2,a2,0x14
80004504:	00c585b3          	add	a1,a1,a2
80004508:	00f5e5b3          	or	a1,a1,a5

8000450c <exit>:
8000450c:	00008067          	ret

80004510 <__floatsisf>:
80004510:	04050a63          	beqz	a0,80004564 <exit>
80004514:	41f55793          	srai	a5,a0,0x1f
80004518:	00f54533          	xor	a0,a0,a5
8000451c:	40f50533          	sub	a0,a0,a5
80004520:	01f79793          	slli	a5,a5,0x1f
80004524:	09d00593          	li	a1,157
80004528:	00054863          	bltz	a0,80004538 <__floatsisf+0x28>
8000452c:	fff58593          	addi	a1,a1,-1
80004530:	00151513          	slli	a0,a0,0x1
80004534:	fea04ce3          	bgtz	a0,8000452c <__floatsisf+0x1c>
80004538:	01851613          	slli	a2,a0,0x18
8000453c:	00855513          	srli	a0,a0,0x8
80004540:	00065c63          	bgez	a2,80004558 <__floatsisf+0x48>
80004544:	00150513          	addi	a0,a0,1
80004548:	00161613          	slli	a2,a2,0x1
8000454c:	00163613          	seqz	a2,a2
80004550:	fff64613          	not	a2,a2
80004554:	00c57533          	and	a0,a0,a2
80004558:	01759593          	slli	a1,a1,0x17
8000455c:	00b50533          	add	a0,a0,a1
80004560:	00f56533          	or	a0,a0,a5

80004564 <exit>:
80004564:	00008067          	ret

80004568 <__floatundidf>:
80004568:	43d00613          	li	a2,1085
8000456c:	00059a63          	bnez	a1,80004580 <__floatundidf+0x18>
80004570:	06050a63          	beqz	a0,800045e4 <exit>
80004574:	00050593          	mv	a1,a0
80004578:	00000513          	li	a0,0
8000457c:	fe060613          	addi	a2,a2,-32
80004580:	0005c863          	bltz	a1,80004590 <__floatundidf+0x28>
80004584:	fff60613          	addi	a2,a2,-1
80004588:	00159593          	slli	a1,a1,0x1
8000458c:	feb04ce3          	bgtz	a1,80004584 <__floatundidf+0x1c>
80004590:	bc360713          	addi	a4,a2,-1085
80004594:	00070a63          	beqz	a4,800045a8 <__floatundidf+0x40>
80004598:	00e556b3          	srl	a3,a0,a4
8000459c:	00d5e5b3          	or	a1,a1,a3
800045a0:	40e00733          	neg	a4,a4
800045a4:	00e51533          	sll	a0,a0,a4
800045a8:	01551713          	slli	a4,a0,0x15
800045ac:	00b55513          	srli	a0,a0,0xb
800045b0:	01559693          	slli	a3,a1,0x15
800045b4:	00b5d593          	srli	a1,a1,0xb
800045b8:	00d56533          	or	a0,a0,a3
800045bc:	02075063          	bgez	a4,800045dc <__floatundidf+0x74>
800045c0:	00150513          	addi	a0,a0,1
800045c4:	00153693          	seqz	a3,a0
800045c8:	00d585b3          	add	a1,a1,a3
800045cc:	00171713          	slli	a4,a4,0x1
800045d0:	00173713          	seqz	a4,a4
800045d4:	fff74713          	not	a4,a4
800045d8:	00e57533          	and	a0,a0,a4
800045dc:	01461613          	slli	a2,a2,0x14
800045e0:	00c585b3          	add	a1,a1,a2

800045e4 <exit>:
800045e4:	00008067          	ret

800045e8 <__floatundisf>:
800045e8:	0bd00613          	li	a2,189
800045ec:	00059a63          	bnez	a1,80004600 <__floatundisf+0x18>
800045f0:	06050463          	beqz	a0,80004658 <exit>
800045f4:	00050593          	mv	a1,a0
800045f8:	00000513          	li	a0,0
800045fc:	fe060613          	addi	a2,a2,-32
80004600:	0005c863          	bltz	a1,80004610 <__floatundisf+0x28>
80004604:	fff60613          	addi	a2,a2,-1
80004608:	00159593          	slli	a1,a1,0x1
8000460c:	feb04ce3          	bgtz	a1,80004604 <__floatundisf+0x1c>
80004610:	f4360713          	addi	a4,a2,-189
80004614:	00070a63          	beqz	a4,80004628 <__floatundisf+0x40>
80004618:	00e556b3          	srl	a3,a0,a4
8000461c:	00d5e5b3          	or	a1,a1,a3
80004620:	40e00733          	neg	a4,a4
80004624:	00e51533          	sll	a0,a0,a4
80004628:	00a03733          	snez	a4,a0
8000462c:	0085d513          	srli	a0,a1,0x8
80004630:	01859593          	slli	a1,a1,0x18
80004634:	00e5e5b3          	or	a1,a1,a4
80004638:	0005dc63          	bgez	a1,80004650 <__floatundisf+0x68>
8000463c:	00150513          	addi	a0,a0,1
80004640:	00159593          	slli	a1,a1,0x1
80004644:	0015b593          	seqz	a1,a1
80004648:	fff5c593          	not	a1,a1
8000464c:	00b57533          	and	a0,a0,a1
80004650:	01761613          	slli	a2,a2,0x17
80004654:	00c50533          	add	a0,a0,a2

80004658 <exit>:
80004658:	00008067          	ret

8000465c <__floatunsidf>:
8000465c:	00050593          	mv	a1,a0
80004660:	02050463          	beqz	a0,80004688 <exit>
80004664:	41d00613          	li	a2,1053
80004668:	0005c863          	bltz	a1,80004678 <__floatunsidf+0x1c>
8000466c:	fff60613          	addi	a2,a2,-1
80004670:	00159593          	slli	a1,a1,0x1
80004674:	fe05dce3          	bgez	a1,8000466c <__floatunsidf+0x10>
80004678:	01559513          	slli	a0,a1,0x15
8000467c:	00b5d593          	srli	a1,a1,0xb
80004680:	01461613          	slli	a2,a2,0x14
80004684:	00c585b3          	add	a1,a1,a2

80004688 <exit>:
80004688:	00008067          	ret

8000468c <__floatunsisf>:
8000468c:	04050063          	beqz	a0,800046cc <exit>
80004690:	09d00593          	li	a1,157
80004694:	00054863          	bltz	a0,800046a4 <__floatunsisf+0x18>
80004698:	fff58593          	addi	a1,a1,-1
8000469c:	00151513          	slli	a0,a0,0x1
800046a0:	fea04ce3          	bgtz	a0,80004698 <__floatunsisf+0xc>
800046a4:	01851613          	slli	a2,a0,0x18
800046a8:	00855513          	srli	a0,a0,0x8
800046ac:	00065c63          	bgez	a2,800046c4 <__floatunsisf+0x38>
800046b0:	00150513          	addi	a0,a0,1
800046b4:	00161613          	slli	a2,a2,0x1
800046b8:	00163613          	seqz	a2,a2
800046bc:	fff64613          	not	a2,a2
800046c0:	00c57533          	and	a0,a0,a2
800046c4:	01759593          	slli	a1,a1,0x17
800046c8:	00b50533          	add	a0,a0,a1

800046cc <exit>:
800046cc:	00008067          	ret

800046d0 <__gedf2>:
800046d0:	00a03733          	snez	a4,a0
800046d4:	00159793          	slli	a5,a1,0x1
800046d8:	00e7e7b3          	or	a5,a5,a4
800046dc:	ffe00737          	lui	a4,0xffe00
800046e0:	06f76263          	bltu	a4,a5,80004744 <nan>
800046e4:	00c037b3          	snez	a5,a2
800046e8:	00169293          	slli	t0,a3,0x1
800046ec:	00f2e2b3          	or	t0,t0,a5
800046f0:	04576a63          	bltu	a4,t0,80004744 <nan>
800046f4:	00d5e733          	or	a4,a1,a3
800046f8:	00171713          	slli	a4,a4,0x1
800046fc:	00a76733          	or	a4,a4,a0
80004700:	00c76733          	or	a4,a4,a2
80004704:	00070c63          	beqz	a4,8000471c <xor_end>
80004708:	00d5c733          	xor	a4,a1,a3
8000470c:	02074e63          	bltz	a4,80004748 <pn_np>
80004710:	00d58c63          	beq	a1,a3,80004728 <pp_nn_h_eq>
80004714:	00d5b733          	sltu	a4,a1,a3
80004718:	0006a533          	sltz	a0,a3

8000471c <xor_end>:
8000471c:	00e54533          	xor	a0,a0,a4
80004720:	01f51513          	slli	a0,a0,0x1f
80004724:	00008067          	ret

80004728 <pp_nn_h_eq>:
80004728:	00c50a63          	beq	a0,a2,8000473c <ret_0>
8000472c:	00a63733          	sltu	a4,a2,a0
80004730:	0005a533          	sltz	a0,a1
80004734:	00154513          	xori	a0,a0,1
80004738:	fe5ff06f          	j	8000471c <xor_end>

8000473c <ret_0>:
8000473c:	00000513          	li	a0,0
80004740:	00008067          	ret

80004744 <nan>:
80004744:	00070593          	mv	a1,a4

80004748 <pn_np>:
80004748:	0005a533          	sltz	a0,a1
8000474c:	01f51513          	slli	a0,a0,0x1f
80004750:	00008067          	ret

80004754 <__gesf2>:
80004754:	ff0006b7          	lui	a3,0xff000
80004758:	00151613          	slli	a2,a0,0x1
8000475c:	02c6ea63          	bltu	a3,a2,80004790 <ret_m1>
80004760:	00159613          	slli	a2,a1,0x1
80004764:	02c6e663          	bltu	a3,a2,80004790 <ret_m1>
80004768:	00b566b3          	or	a3,a0,a1
8000476c:	00169693          	slli	a3,a3,0x1
80004770:	00068c63          	beqz	a3,80004788 <ret_0>
80004774:	00b576b3          	and	a3,a0,a1
80004778:	0206c063          	bltz	a3,80004798 <nn>
8000477c:	00b52533          	slt	a0,a0,a1
80004780:	01f51513          	slli	a0,a0,0x1f
80004784:	00008067          	ret

80004788 <ret_0>:
80004788:	00000513          	li	a0,0
8000478c:	00008067          	ret

80004790 <ret_m1>:
80004790:	fff00513          	li	a0,-1
80004794:	00008067          	ret

80004798 <nn>:
80004798:	00a5a533          	slt	a0,a1,a0
8000479c:	01f51513          	slli	a0,a0,0x1f
800047a0:	00008067          	ret

800047a4 <__gtdf2>:
800047a4:	00a03733          	snez	a4,a0
800047a8:	00159793          	slli	a5,a1,0x1
800047ac:	00e7e7b3          	or	a5,a5,a4
800047b0:	ffe00737          	lui	a4,0xffe00
800047b4:	04f76863          	bltu	a4,a5,80004804 <ret_0>
800047b8:	00c037b3          	snez	a5,a2
800047bc:	00169293          	slli	t0,a3,0x1
800047c0:	00f2e2b3          	or	t0,t0,a5
800047c4:	04576063          	bltu	a4,t0,80004804 <ret_0>
800047c8:	00d5e733          	or	a4,a1,a3
800047cc:	00171713          	slli	a4,a4,0x1
800047d0:	00a76733          	or	a4,a4,a0
800047d4:	00c76733          	or	a4,a4,a2
800047d8:	02070663          	beqz	a4,80004804 <ret_0>
800047dc:	00d5c733          	xor	a4,a1,a3
800047e0:	02074663          	bltz	a4,8000480c <pn_np>
800047e4:	00d58a63          	beq	a1,a3,800047f8 <pp_nn_h_eq>
800047e8:	00b6b733          	sltu	a4,a3,a1

800047ec <end>:
800047ec:	0006a533          	sltz	a0,a3
800047f0:	00e54533          	xor	a0,a0,a4
800047f4:	00008067          	ret

800047f8 <pp_nn_h_eq>:
800047f8:	00c50663          	beq	a0,a2,80004804 <ret_0>
800047fc:	00a63733          	sltu	a4,a2,a0
80004800:	fedff06f          	j	800047ec <end>

80004804 <ret_0>:
80004804:	00000513          	li	a0,0
80004808:	00008067          	ret

8000480c <pn_np>:
8000480c:	0006a533          	sltz	a0,a3
80004810:	00008067          	ret

80004814 <__gtsf2>:
80004814:	ff0006b7          	lui	a3,0xff000
80004818:	00151613          	slli	a2,a0,0x1
8000481c:	02c6e463          	bltu	a3,a2,80004844 <ret_0>
80004820:	00159613          	slli	a2,a1,0x1
80004824:	02c6e063          	bltu	a3,a2,80004844 <ret_0>
80004828:	00b566b3          	or	a3,a0,a1
8000482c:	00169693          	slli	a3,a3,0x1
80004830:	00068a63          	beqz	a3,80004844 <ret_0>
80004834:	00b576b3          	and	a3,a0,a1
80004838:	0006ca63          	bltz	a3,8000484c <nn>
8000483c:	00a5a533          	slt	a0,a1,a0
80004840:	00008067          	ret

80004844 <ret_0>:
80004844:	00000513          	li	a0,0
80004848:	00008067          	ret

8000484c <nn>:
8000484c:	00b52533          	slt	a0,a0,a1
80004850:	00008067          	ret

80004854 <__ledf2>:
80004854:	00a03733          	snez	a4,a0
80004858:	00159793          	slli	a5,a1,0x1
8000485c:	00e7e7b3          	or	a5,a5,a4
80004860:	ffe00737          	lui	a4,0xffe00
80004864:	04f76e63          	bltu	a4,a5,800048c0 <nan>
80004868:	00c037b3          	snez	a5,a2
8000486c:	00169293          	slli	t0,a3,0x1
80004870:	00f2e2b3          	or	t0,t0,a5
80004874:	04576663          	bltu	a4,t0,800048c0 <nan>
80004878:	00d5e733          	or	a4,a1,a3
8000487c:	00171713          	slli	a4,a4,0x1
80004880:	00a76733          	or	a4,a4,a0
80004884:	00c76733          	or	a4,a4,a2
80004888:	00070c63          	beqz	a4,800048a0 <xor_end>
8000488c:	00d5c733          	xor	a4,a1,a3
80004890:	02074a63          	bltz	a4,800048c4 <pn_np>
80004894:	00d58a63          	beq	a1,a3,800048a8 <pp_nn_h_eq>
80004898:	00b6b733          	sltu	a4,a3,a1
8000489c:	0005a533          	sltz	a0,a1

800048a0 <xor_end>:
800048a0:	00e54533          	xor	a0,a0,a4
800048a4:	00008067          	ret

800048a8 <pp_nn_h_eq>:
800048a8:	00c50863          	beq	a0,a2,800048b8 <ret_0>
800048ac:	00a63733          	sltu	a4,a2,a0
800048b0:	0005a533          	sltz	a0,a1
800048b4:	fedff06f          	j	800048a0 <xor_end>

800048b8 <ret_0>:
800048b8:	00000513          	li	a0,0
800048bc:	00008067          	ret

800048c0 <nan>:
800048c0:	00070693          	mv	a3,a4

800048c4 <pn_np>:
800048c4:	0006a533          	sltz	a0,a3
800048c8:	00008067          	ret

800048cc <__lesf2>:
800048cc:	ff0006b7          	lui	a3,0xff000
800048d0:	00151613          	slli	a2,a0,0x1
800048d4:	02c6e663          	bltu	a3,a2,80004900 <ret_1>
800048d8:	00159613          	slli	a2,a1,0x1
800048dc:	02c6e263          	bltu	a3,a2,80004900 <ret_1>
800048e0:	00b566b3          	or	a3,a0,a1
800048e4:	00169693          	slli	a3,a3,0x1
800048e8:	02068063          	beqz	a3,80004908 <ret_0>
800048ec:	00b50e63          	beq	a0,a1,80004908 <ret_0>
800048f0:	00b576b3          	and	a3,a0,a1
800048f4:	0006ce63          	bltz	a3,80004910 <nn>
800048f8:	00a5a533          	slt	a0,a1,a0
800048fc:	00008067          	ret

80004900 <ret_1>:
80004900:	00100513          	li	a0,1
80004904:	00008067          	ret

80004908 <ret_0>:
80004908:	00000513          	li	a0,0
8000490c:	00008067          	ret

80004910 <nn>:
80004910:	00b52533          	slt	a0,a0,a1
80004914:	00008067          	ret

80004918 <__ltdf2>:
80004918:	00a03733          	snez	a4,a0
8000491c:	00159793          	slli	a5,a1,0x1
80004920:	00e7e7b3          	or	a5,a5,a4
80004924:	ffe00737          	lui	a4,0xffe00
80004928:	04f76a63          	bltu	a4,a5,8000497c <ret_0>
8000492c:	00c037b3          	snez	a5,a2
80004930:	00169293          	slli	t0,a3,0x1
80004934:	00f2e2b3          	or	t0,t0,a5
80004938:	04576263          	bltu	a4,t0,8000497c <ret_0>
8000493c:	00d5e733          	or	a4,a1,a3
80004940:	00171713          	slli	a4,a4,0x1
80004944:	00a76733          	or	a4,a4,a0
80004948:	00c76733          	or	a4,a4,a2
8000494c:	02070863          	beqz	a4,8000497c <ret_0>
80004950:	00d5c733          	xor	a4,a1,a3
80004954:	02074863          	bltz	a4,80004984 <pn_np>
80004958:	00d58c63          	beq	a1,a3,80004970 <pp_nn_h_eq>
8000495c:	00d5b733          	sltu	a4,a1,a3

80004960 <end>:
80004960:	0005a533          	sltz	a0,a1
80004964:	00e54533          	xor	a0,a0,a4
80004968:	01f51513          	slli	a0,a0,0x1f
8000496c:	00008067          	ret

80004970 <pp_nn_h_eq>:
80004970:	00c50663          	beq	a0,a2,8000497c <ret_0>
80004974:	00c53733          	sltu	a4,a0,a2
80004978:	fe9ff06f          	j	80004960 <end>

8000497c <ret_0>:
8000497c:	00000513          	li	a0,0
80004980:	00008067          	ret

80004984 <pn_np>:
80004984:	0005a533          	sltz	a0,a1
80004988:	01f51513          	slli	a0,a0,0x1f
8000498c:	00008067          	ret

80004990 <__ltsf2>:
80004990:	ff0006b7          	lui	a3,0xff000
80004994:	00151613          	slli	a2,a0,0x1
80004998:	02c6e663          	bltu	a3,a2,800049c4 <ret_0>
8000499c:	00159613          	slli	a2,a1,0x1
800049a0:	02c6e263          	bltu	a3,a2,800049c4 <ret_0>
800049a4:	00b566b3          	or	a3,a0,a1
800049a8:	00169693          	slli	a3,a3,0x1
800049ac:	00068c63          	beqz	a3,800049c4 <ret_0>
800049b0:	00b576b3          	and	a3,a0,a1
800049b4:	0006cc63          	bltz	a3,800049cc <nn>
800049b8:	00b52533          	slt	a0,a0,a1
800049bc:	01f51513          	slli	a0,a0,0x1f
800049c0:	00008067          	ret

800049c4 <ret_0>:
800049c4:	00000513          	li	a0,0
800049c8:	00008067          	ret

800049cc <nn>:
800049cc:	00a5a533          	slt	a0,a1,a0
800049d0:	01f51513          	slli	a0,a0,0x1f
800049d4:	00008067          	ret

800049d8 <__muldf3>:
800049d8:	7ff00793          	li	a5,2047
800049dc:	0145d713          	srli	a4,a1,0x14
800049e0:	00f77733          	and	a4,a4,a5
800049e4:	0146d813          	srli	a6,a3,0x14
800049e8:	00f87833          	and	a6,a6,a5
800049ec:	20f70263          	beq	a4,a5,80004bf0 <inf_nan>
800049f0:	20f80063          	beq	a6,a5,80004bf0 <inf_nan>
800049f4:	1c070663          	beqz	a4,80004bc0 <zero_denormal>
800049f8:	1c080463          	beqz	a6,80004bc0 <zero_denormal>

800049fc <normal_case>:
800049fc:	01070733          	add	a4,a4,a6
80004a00:	00d5c833          	xor	a6,a1,a3
80004a04:	800007b7          	lui	a5,0x80000
80004a08:	00f872b3          	and	t0,a6,a5
80004a0c:	fff007b7          	lui	a5,0xfff00
80004a10:	fff7c793          	not	a5,a5
80004a14:	00f5f5b3          	and	a1,a1,a5
80004a18:	00f6f6b3          	and	a3,a3,a5
80004a1c:	001007b7          	lui	a5,0x100
80004a20:	00f5e5b3          	or	a1,a1,a5
80004a24:	00f6e6b3          	or	a3,a3,a5
80004a28:	02c58333          	mul	t1,a1,a2
80004a2c:	02c5b3b3          	mulhu	t2,a1,a2
80004a30:	02d50833          	mul	a6,a0,a3
80004a34:	02d538b3          	mulhu	a7,a0,a3
80004a38:	01030333          	add	t1,t1,a6
80004a3c:	01033833          	sltu	a6,t1,a6
80004a40:	010888b3          	add	a7,a7,a6
80004a44:	011383b3          	add	t2,t2,a7
80004a48:	02c50e33          	mul	t3,a0,a2
80004a4c:	02c53eb3          	mulhu	t4,a0,a2
80004a50:	02d58833          	mul	a6,a1,a3
80004a54:	02d5b8b3          	mulhu	a7,a1,a3
80004a58:	006e8eb3          	add	t4,t4,t1
80004a5c:	006eb333          	sltu	t1,t4,t1
80004a60:	006383b3          	add	t2,t2,t1
80004a64:	00780833          	add	a6,a6,t2
80004a68:	007833b3          	sltu	t2,a6,t2
80004a6c:	007888b3          	add	a7,a7,t2
80004a70:	01c037b3          	snez	a5,t3
80004a74:	00feeeb3          	or	t4,t4,a5
80004a78:	20000393          	li	t2,512
80004a7c:	0278f263          	bgeu	a7,t2,80004aa0 <normal_case+0xa4>
80004a80:	00189893          	slli	a7,a7,0x1
80004a84:	01f85793          	srli	a5,a6,0x1f
80004a88:	00f8e8b3          	or	a7,a7,a5
80004a8c:	00181813          	slli	a6,a6,0x1
80004a90:	01fed793          	srli	a5,t4,0x1f
80004a94:	00f86833          	or	a6,a6,a5
80004a98:	001e9e93          	slli	t4,t4,0x1
80004a9c:	fff70713          	addi	a4,a4,-1 # ffdfffff <fs+0x7fd82fff>
80004aa0:	00b89593          	slli	a1,a7,0xb
80004aa4:	01585793          	srli	a5,a6,0x15
80004aa8:	00f5e5b3          	or	a1,a1,a5
80004aac:	00b81513          	slli	a0,a6,0xb
80004ab0:	015ed793          	srli	a5,t4,0x15
80004ab4:	00f56533          	or	a0,a0,a5
80004ab8:	00be9e93          	slli	t4,t4,0xb
80004abc:	c0170713          	addi	a4,a4,-1023
80004ac0:	7fe00313          	li	t1,2046
80004ac4:	02677863          	bgeu	a4,t1,80004af4 <und_ov_flow>
80004ac8:	01471713          	slli	a4,a4,0x14
80004acc:	00e585b3          	add	a1,a1,a4

80004ad0 <rounding>:
80004ad0:	800007b7          	lui	a5,0x80000
80004ad4:	00feec63          	bltu	t4,a5,80004aec <exit>
80004ad8:	00150513          	addi	a0,a0,1
80004adc:	00153313          	seqz	t1,a0
80004ae0:	006585b3          	add	a1,a1,t1
80004ae4:	00fe9463          	bne	t4,a5,80004aec <exit>
80004ae8:	ffe57513          	andi	a0,a0,-2

80004aec <exit>:
80004aec:	0055e5b3          	or	a1,a1,t0
80004af0:	00008067          	ret

80004af4 <und_ov_flow>:
80004af4:	12e04e63          	bgtz	a4,80004c30 <pre_ovf>
80004af8:	fcb00313          	li	t1,-53
80004afc:	00675863          	bge	a4,t1,80004b0c <denormal_end>
80004b00:	00000513          	li	a0,0
80004b04:	00028593          	mv	a1,t0
80004b08:	00008067          	ret

80004b0c <denormal_end>:
80004b0c:	40e00733          	neg	a4,a4
80004b10:	02000793          	li	a5,32
80004b14:	02f75463          	bge	a4,a5,80004b3c <denormal_end+0x30>
80004b18:	40e787b3          	sub	a5,a5,a4
80004b1c:	01d03633          	snez	a2,t4
80004b20:	00f51eb3          	sll	t4,a0,a5
80004b24:	00ceeeb3          	or	t4,t4,a2
80004b28:	00e55533          	srl	a0,a0,a4
80004b2c:	00f59633          	sll	a2,a1,a5
80004b30:	00c56533          	or	a0,a0,a2
80004b34:	00e5d5b3          	srl	a1,a1,a4
80004b38:	f99ff06f          	j	80004ad0 <rounding>
80004b3c:	fe070713          	addi	a4,a4,-32
80004b40:	01d03633          	snez	a2,t4
80004b44:	00050e93          	mv	t4,a0
80004b48:	00058513          	mv	a0,a1
80004b4c:	00000593          	li	a1,0
80004b50:	00ceeeb3          	or	t4,t4,a2
80004b54:	f6070ee3          	beqz	a4,80004ad0 <rounding>
80004b58:	40e787b3          	sub	a5,a5,a4
80004b5c:	fc1ff06f          	j	80004b1c <denormal_end+0x10>

80004b60 <denormal>:
80004b60:	00b7de13          	srli	t3,a5,0xb
80004b64:	00f5f333          	and	t1,a1,a5
80004b68:	02071263          	bnez	a4,80004b8c <denormal+0x2c>
80004b6c:	00159593          	slli	a1,a1,0x1
80004b70:	01f55f13          	srli	t5,a0,0x1f
80004b74:	01e5e5b3          	or	a1,a1,t5
80004b78:	00151513          	slli	a0,a0,0x1
80004b7c:	01c5f3b3          	and	t2,a1,t3
80004b80:	00039663          	bnez	t2,80004b8c <denormal+0x2c>
80004b84:	fff70713          	addi	a4,a4,-1
80004b88:	fe5ff06f          	j	80004b6c <denormal+0xc>
80004b8c:	0065e5b3          	or	a1,a1,t1
80004b90:	00d7f7b3          	and	a5,a5,a3
80004b94:	02081263          	bnez	a6,80004bb8 <denormal+0x58>
80004b98:	00169693          	slli	a3,a3,0x1
80004b9c:	01f65f13          	srli	t5,a2,0x1f
80004ba0:	01e6e6b3          	or	a3,a3,t5
80004ba4:	00161613          	slli	a2,a2,0x1
80004ba8:	01c6f3b3          	and	t2,a3,t3
80004bac:	00039663          	bnez	t2,80004bb8 <denormal+0x58>
80004bb0:	fff80813          	addi	a6,a6,-1
80004bb4:	fe5ff06f          	j	80004b98 <denormal+0x38>
80004bb8:	00f6e6b3          	or	a3,a3,a5
80004bbc:	e41ff06f          	j	800049fc <normal_case>

80004bc0 <zero_denormal>:
80004bc0:	01f79793          	slli	a5,a5,0x1f
80004bc4:	fff7ce13          	not	t3,a5
80004bc8:	01c5f8b3          	and	a7,a1,t3
80004bcc:	00a8e8b3          	or	a7,a7,a0
80004bd0:	00088863          	beqz	a7,80004be0 <zero>
80004bd4:	01c6f8b3          	and	a7,a3,t3
80004bd8:	00c8e8b3          	or	a7,a7,a2
80004bdc:	f80892e3          	bnez	a7,80004b60 <denormal>

80004be0 <zero>:
80004be0:	00d5c5b3          	xor	a1,a1,a3
80004be4:	00f5f5b3          	and	a1,a1,a5
80004be8:	00000513          	li	a0,0
80004bec:	00008067          	ret

80004bf0 <inf_nan>:
80004bf0:	00159893          	slli	a7,a1,0x1
80004bf4:	00a8e8b3          	or	a7,a7,a0
80004bf8:	04088a63          	beqz	a7,80004c4c <nan>
80004bfc:	00169893          	slli	a7,a3,0x1
80004c00:	00c8e8b3          	or	a7,a7,a2
80004c04:	04088463          	beqz	a7,80004c4c <nan>
80004c08:	00f71863          	bne	a4,a5,80004c18 <inf_nan+0x28>
80004c0c:	00c59893          	slli	a7,a1,0xc
80004c10:	00a8e8b3          	or	a7,a7,a0
80004c14:	02089c63          	bnez	a7,80004c4c <nan>
80004c18:	00f81863          	bne	a6,a5,80004c28 <inf>
80004c1c:	00c69713          	slli	a4,a3,0xc
80004c20:	00c76733          	or	a4,a4,a2
80004c24:	02071463          	bnez	a4,80004c4c <nan>

80004c28 <inf>:
80004c28:	00d5c5b3          	xor	a1,a1,a3
80004c2c:	0080006f          	j	80004c34 <ovf>

80004c30 <pre_ovf>:
80004c30:	0055e5b3          	or	a1,a1,t0

80004c34 <ovf>:
80004c34:	7ff006b7          	lui	a3,0x7ff00
80004c38:	0145d593          	srli	a1,a1,0x14
80004c3c:	01459593          	slli	a1,a1,0x14
80004c40:	00d5e5b3          	or	a1,a1,a3
80004c44:	00000513          	li	a0,0
80004c48:	00008067          	ret

80004c4c <nan>:
80004c4c:	7ff805b7          	lui	a1,0x7ff80
80004c50:	00000513          	li	a0,0
80004c54:	00008067          	ret

80004c58 <__mulsf3>:
80004c58:	80000737          	lui	a4,0x80000
80004c5c:	0ff00813          	li	a6,255
80004c60:	01755613          	srli	a2,a0,0x17
80004c64:	01067633          	and	a2,a2,a6
80004c68:	0175d693          	srli	a3,a1,0x17
80004c6c:	0106f6b3          	and	a3,a3,a6
80004c70:	15060463          	beq	a2,a6,80004db8 <inf_nan>
80004c74:	15068263          	beq	a3,a6,80004db8 <inf_nan>
80004c78:	12060063          	beqz	a2,80004d98 <zero_denormal>
80004c7c:	10068e63          	beqz	a3,80004d98 <zero_denormal>

80004c80 <normal_case>:
80004c80:	00d60633          	add	a2,a2,a3
80004c84:	00b54833          	xor	a6,a0,a1
80004c88:	80000737          	lui	a4,0x80000
80004c8c:	00e87833          	and	a6,a6,a4
80004c90:	00951513          	slli	a0,a0,0x9
80004c94:	00959593          	slli	a1,a1,0x9
80004c98:	080006b7          	lui	a3,0x8000
80004c9c:	00555513          	srli	a0,a0,0x5
80004ca0:	0055d593          	srli	a1,a1,0x5
80004ca4:	00d56533          	or	a0,a0,a3
80004ca8:	00d5e5b3          	or	a1,a1,a3
80004cac:	02b506b3          	mul	a3,a0,a1
80004cb0:	02b535b3          	mulhu	a1,a0,a1
80004cb4:	00080513          	mv	a0,a6
80004cb8:	00800837          	lui	a6,0x800
80004cbc:	0105fc63          	bgeu	a1,a6,80004cd4 <normal_case+0x54>
80004cc0:	00159593          	slli	a1,a1,0x1
80004cc4:	01f6d813          	srli	a6,a3,0x1f
80004cc8:	0105e5b3          	or	a1,a1,a6
80004ccc:	00169693          	slli	a3,a3,0x1
80004cd0:	fff60613          	addi	a2,a2,-1
80004cd4:	00b56533          	or	a0,a0,a1
80004cd8:	f8160613          	addi	a2,a2,-127
80004cdc:	0fe00813          	li	a6,254
80004ce0:	03067063          	bgeu	a2,a6,80004d00 <und_ov_flow>
80004ce4:	01761613          	slli	a2,a2,0x17
80004ce8:	00c50533          	add	a0,a0,a2
80004cec:	00e6e863          	bltu	a3,a4,80004cfc <exit>
80004cf0:	00150513          	addi	a0,a0,1
80004cf4:	00e69463          	bne	a3,a4,80004cfc <exit>
80004cf8:	ffe57513          	andi	a0,a0,-2

80004cfc <exit>:
80004cfc:	00008067          	ret

80004d00 <und_ov_flow>:
80004d00:	0ec04063          	bgtz	a2,80004de0 <ovf>
80004d04:	01a60813          	addi	a6,a2,26
80004d08:	00085663          	bgez	a6,80004d14 <denormal_end>
80004d0c:	00e57533          	and	a0,a0,a4
80004d10:	00008067          	ret

80004d14 <denormal_end>:
80004d14:	40c007b3          	neg	a5,a2
80004d18:	00a77833          	and	a6,a4,a0
80004d1c:	01054533          	xor	a0,a0,a6
80004d20:	02060613          	addi	a2,a2,32
80004d24:	00c51633          	sll	a2,a0,a2
80004d28:	00f55533          	srl	a0,a0,a5
80004d2c:	01056533          	or	a0,a0,a6
80004d30:	0016d693          	srli	a3,a3,0x1
80004d34:	00d66633          	or	a2,a2,a3
80004d38:	fce662e3          	bltu	a2,a4,80004cfc <exit>
80004d3c:	00150513          	addi	a0,a0,1
80004d40:	fae61ee3          	bne	a2,a4,80004cfc <exit>
80004d44:	ffe57513          	andi	a0,a0,-2
80004d48:	00008067          	ret

80004d4c <denormal>:
80004d4c:	00800837          	lui	a6,0x800
80004d50:	00a77733          	and	a4,a4,a0
80004d54:	00061c63          	bnez	a2,80004d6c <denormal+0x20>
80004d58:	00151513          	slli	a0,a0,0x1
80004d5c:	010577b3          	and	a5,a0,a6
80004d60:	00079663          	bnez	a5,80004d6c <denormal+0x20>
80004d64:	fff60613          	addi	a2,a2,-1
80004d68:	ff1ff06f          	j	80004d58 <denormal+0xc>
80004d6c:	00e56533          	or	a0,a0,a4
80004d70:	80000737          	lui	a4,0x80000
80004d74:	00b77733          	and	a4,a4,a1
80004d78:	00069c63          	bnez	a3,80004d90 <denormal+0x44>
80004d7c:	00159593          	slli	a1,a1,0x1
80004d80:	0105f7b3          	and	a5,a1,a6
80004d84:	00079663          	bnez	a5,80004d90 <denormal+0x44>
80004d88:	fff68693          	addi	a3,a3,-1 # 7ffffff <__stack_size+0x7ffdfff>
80004d8c:	ff1ff06f          	j	80004d7c <denormal+0x30>
80004d90:	00e5e5b3          	or	a1,a1,a4
80004d94:	eedff06f          	j	80004c80 <normal_case>

80004d98 <zero_denormal>:
80004d98:	fff74813          	not	a6,a4
80004d9c:	00a877b3          	and	a5,a6,a0
80004da0:	00078663          	beqz	a5,80004dac <zero>
80004da4:	00b87833          	and	a6,a6,a1
80004da8:	fa0812e3          	bnez	a6,80004d4c <denormal>

80004dac <zero>:
80004dac:	00b54533          	xor	a0,a0,a1
80004db0:	00e57533          	and	a0,a0,a4
80004db4:	00008067          	ret

80004db8 <inf_nan>:
80004db8:	02050c63          	beqz	a0,80004df0 <nan>
80004dbc:	02058a63          	beqz	a1,80004df0 <nan>
80004dc0:	02e50863          	beq	a0,a4,80004df0 <nan>
80004dc4:	02e58663          	beq	a1,a4,80004df0 <nan>
80004dc8:	01881813          	slli	a6,a6,0x18
80004dcc:	00151793          	slli	a5,a0,0x1
80004dd0:	02f86063          	bltu	a6,a5,80004df0 <nan>
80004dd4:	00159793          	slli	a5,a1,0x1
80004dd8:	00f86c63          	bltu	a6,a5,80004df0 <nan>

80004ddc <inf>:
80004ddc:	00b54533          	xor	a0,a0,a1

80004de0 <ovf>:
80004de0:	00e57533          	and	a0,a0,a4
80004de4:	7f800737          	lui	a4,0x7f800
80004de8:	00e56533          	or	a0,a0,a4
80004dec:	00008067          	ret

80004df0 <nan>:
80004df0:	7fc00537          	lui	a0,0x7fc00
80004df4:	00008067          	ret

80004df8 <__popcountsi2>:
80004df8:	00000293          	li	t0,0
80004dfc:	00157313          	andi	t1,a0,1
80004e00:	006282b3          	add	t0,t0,t1
80004e04:	00155513          	srli	a0,a0,0x1
80004e08:	fe051ae3          	bnez	a0,80004dfc <__popcountsi2+0x4>
80004e0c:	00500533          	add	a0,zero,t0
80004e10:	00008067          	ret

80004e14 <__truncdfsf2>:
80004e14:	80000637          	lui	a2,0x80000
80004e18:	00b676b3          	and	a3,a2,a1
80004e1c:	00159593          	slli	a1,a1,0x1
80004e20:	0155d713          	srli	a4,a1,0x15
80004e24:	c8070713          	addi	a4,a4,-896 # 7f7ffc80 <__stack_size+0x7f7fdc80>
80004e28:	06e05263          	blez	a4,80004e8c <undflow>
80004e2c:	f0270793          	addi	a5,a4,-254
80004e30:	02f04c63          	bgtz	a5,80004e68 <inf_nan>
80004e34:	00351793          	slli	a5,a0,0x3
80004e38:	01d55513          	srli	a0,a0,0x1d
80004e3c:	00b59593          	slli	a1,a1,0xb
80004e40:	0095d593          	srli	a1,a1,0x9
80004e44:	00b56533          	or	a0,a0,a1
80004e48:	01771713          	slli	a4,a4,0x17
80004e4c:	00e50533          	add	a0,a0,a4

80004e50 <round>:
80004e50:	0007d863          	bgez	a5,80004e60 <sign_exit>
80004e54:	00150513          	addi	a0,a0,1 # 7fc00001 <__stack_size+0x7fbfe001>
80004e58:	00c79463          	bne	a5,a2,80004e60 <sign_exit>
80004e5c:	ffe57513          	andi	a0,a0,-2

80004e60 <sign_exit>:
80004e60:	00d56533          	or	a0,a0,a3
80004e64:	00008067          	ret

80004e68 <inf_nan>:
80004e68:	00a03533          	snez	a0,a0
80004e6c:	00a5e5b3          	or	a1,a1,a0
80004e70:	ffe00537          	lui	a0,0xffe00
80004e74:	00b56863          	bltu	a0,a1,80004e84 <nan>
80004e78:	7f800537          	lui	a0,0x7f800
80004e7c:	00d56533          	or	a0,a0,a3
80004e80:	00008067          	ret

80004e84 <nan>:
80004e84:	7fc00537          	lui	a0,0x7fc00
80004e88:	00008067          	ret

80004e8c <undflow>:
80004e8c:	01770313          	addi	t1,a4,23
80004e90:	04034463          	bltz	t1,80004ed8 <zero>
80004e94:	002002b7          	lui	t0,0x200
80004e98:	0055e5b3          	or	a1,a1,t0
80004e9c:	00a59593          	slli	a1,a1,0xa
80004ea0:	0085d593          	srli	a1,a1,0x8
80004ea4:	01d55713          	srli	a4,a0,0x1d
80004ea8:	00e5e5b3          	or	a1,a1,a4
80004eac:	00351513          	slli	a0,a0,0x3
80004eb0:	fe830313          	addi	t1,t1,-24 # 7fffffe8 <__stack_size+0x7fffdfe8>
80004eb4:	40600733          	neg	a4,t1
80004eb8:	006512b3          	sll	t0,a0,t1
80004ebc:	00e557b3          	srl	a5,a0,a4
80004ec0:	005032b3          	snez	t0,t0
80004ec4:	0057e7b3          	or	a5,a5,t0
80004ec8:	006593b3          	sll	t2,a1,t1
80004ecc:	0077e7b3          	or	a5,a5,t2
80004ed0:	00e5d533          	srl	a0,a1,a4
80004ed4:	f7dff06f          	j	80004e50 <round>

80004ed8 <zero>:
80004ed8:	00068513          	mv	a0,a3
80004edc:	00008067          	ret

80004ee0 <lfs_alloc_lookahead>:
80004ee0:	06852703          	lw	a4,104(a0) # 7fc00068 <__stack_size+0x7fbfe068>
80004ee4:	05452783          	lw	a5,84(a0)
80004ee8:	05852683          	lw	a3,88(a0)
80004eec:	02072703          	lw	a4,32(a4)
80004ef0:	40f707b3          	sub	a5,a4,a5
80004ef4:	00b787b3          	add	a5,a5,a1
80004ef8:	02e7f5b3          	remu	a1,a5,a4
80004efc:	02d5f463          	bgeu	a1,a3,80004f24 <lfs_alloc_lookahead+0x44>
80004f00:	06452783          	lw	a5,100(a0)
80004f04:	0055d713          	srli	a4,a1,0x5
80004f08:	00271713          	slli	a4,a4,0x2
80004f0c:	00e787b3          	add	a5,a5,a4
80004f10:	0007a703          	lw	a4,0(a5) # 80000000 <_start>
80004f14:	00100693          	li	a3,1
80004f18:	00b696b3          	sll	a3,a3,a1
80004f1c:	00d76733          	or	a4,a4,a3
80004f20:	00e7a023          	sw	a4,0(a5)
80004f24:	00000513          	li	a0,0
80004f28:	00008067          	ret

80004f2c <lfs_dir_traverse_filter>:
80004f2c:	701007b7          	lui	a5,0x70100
80004f30:	00359693          	slli	a3,a1,0x3
80004f34:	00050713          	mv	a4,a0
80004f38:	c0078793          	addi	a5,a5,-1024 # 700ffc00 <__stack_size+0x700fdc00>
80004f3c:	0006d663          	bgez	a3,80004f48 <lfs_dir_traverse_filter+0x1c>
80004f40:	800007b7          	lui	a5,0x80000
80004f44:	c0078793          	addi	a5,a5,-1024 # 7ffffc00 <__stack_size+0x7fffdc00>
80004f48:	00072603          	lw	a2,0(a4)
80004f4c:	00100513          	li	a0,1
80004f50:	00b646b3          	xor	a3,a2,a1
80004f54:	00f6f7b3          	and	a5,a3,a5
80004f58:	04078663          	beqz	a5,80004fa4 <lfs_dir_traverse_filter+0x78>
80004f5c:	01661793          	slli	a5,a2,0x16
80004f60:	4167d793          	srai	a5,a5,0x16
80004f64:	fff00693          	li	a3,-1
80004f68:	02d78e63          	beq	a5,a3,80004fa4 <lfs_dir_traverse_filter+0x78>
80004f6c:	001007b7          	lui	a5,0x100
80004f70:	800006b7          	lui	a3,0x80000
80004f74:	c0078793          	addi	a5,a5,-1024 # ffc00 <__stack_size+0xfdc00>
80004f78:	c0068693          	addi	a3,a3,-1024 # 7ffffc00 <__stack_size+0x7fffdc00>
80004f7c:	00f677b3          	and	a5,a2,a5
80004f80:	4ff00837          	lui	a6,0x4ff00
80004f84:	00d5f6b3          	and	a3,a1,a3
80004f88:	0107e7b3          	or	a5,a5,a6
80004f8c:	00f68c63          	beq	a3,a5,80004fa4 <lfs_dir_traverse_filter+0x78>
80004f90:	0145d793          	srli	a5,a1,0x14
80004f94:	7007f513          	andi	a0,a5,1792
80004f98:	40000693          	li	a3,1024
80004f9c:	00d50663          	beq	a0,a3,80004fa8 <lfs_dir_traverse_filter+0x7c>
80004fa0:	00000513          	li	a0,0
80004fa4:	00008067          	ret
80004fa8:	00a65693          	srli	a3,a2,0xa
80004fac:	00a5d593          	srli	a1,a1,0xa
80004fb0:	3ff6f693          	andi	a3,a3,1023
80004fb4:	3ff5f593          	andi	a1,a1,1023
80004fb8:	feb6e4e3          	bltu	a3,a1,80004fa0 <lfs_dir_traverse_filter+0x74>
80004fbc:	01879793          	slli	a5,a5,0x18
80004fc0:	4187d793          	srai	a5,a5,0x18
80004fc4:	00a79793          	slli	a5,a5,0xa
80004fc8:	00c787b3          	add	a5,a5,a2
80004fcc:	00f72023          	sw	a5,0(a4)
80004fd0:	00000513          	li	a0,0
80004fd4:	00008067          	ret

80004fd8 <lfs_dir_commit_size>:
80004fd8:	01659793          	slli	a5,a1,0x16
80004fdc:	4167d793          	srai	a5,a5,0x16
80004fe0:	00052703          	lw	a4,0(a0)
80004fe4:	00178793          	addi	a5,a5,1
80004fe8:	0017b793          	seqz	a5,a5
80004fec:	00b787b3          	add	a5,a5,a1
80004ff0:	00470713          	addi	a4,a4,4
80004ff4:	3ff7f793          	andi	a5,a5,1023
80004ff8:	00e787b3          	add	a5,a5,a4
80004ffc:	00f52023          	sw	a5,0(a0)
80005000:	00000513          	li	a0,0
80005004:	00008067          	ret

80005008 <lfs_fs_size_count>:
80005008:	00052703          	lw	a4,0(a0)
8000500c:	00050793          	mv	a5,a0
80005010:	00000513          	li	a0,0
80005014:	00170713          	addi	a4,a4,1
80005018:	00e7a023          	sw	a4,0(a5)
8000501c:	00008067          	ret

80005020 <lfs_deinit>:
80005020:	06852783          	lw	a5,104(a0)
80005024:	ff010113          	addi	sp,sp,-16
80005028:	00812423          	sw	s0,8(sp)
8000502c:	0307a703          	lw	a4,48(a5)
80005030:	00112623          	sw	ra,12(sp)
80005034:	00050413          	mv	s0,a0
80005038:	02070463          	beqz	a4,80005060 <lfs_deinit+0x40>
8000503c:	0347a703          	lw	a4,52(a5)
80005040:	02070a63          	beqz	a4,80005074 <lfs_deinit+0x54>
80005044:	0387a783          	lw	a5,56(a5)
80005048:	04078063          	beqz	a5,80005088 <lfs_deinit+0x68>
8000504c:	00c12083          	lw	ra,12(sp)
80005050:	00812403          	lw	s0,8(sp)
80005054:	00000513          	li	a0,0
80005058:	01010113          	addi	sp,sp,16
8000505c:	00008067          	ret
80005060:	00c52503          	lw	a0,12(a0)
80005064:	9c0fd0ef          	jal	80002224 <free>
80005068:	06842783          	lw	a5,104(s0)
8000506c:	0347a703          	lw	a4,52(a5)
80005070:	fc071ae3          	bnez	a4,80005044 <lfs_deinit+0x24>
80005074:	01c42503          	lw	a0,28(s0)
80005078:	9acfd0ef          	jal	80002224 <free>
8000507c:	06842783          	lw	a5,104(s0)
80005080:	0387a783          	lw	a5,56(a5)
80005084:	fc0794e3          	bnez	a5,8000504c <lfs_deinit+0x2c>
80005088:	06442503          	lw	a0,100(s0)
8000508c:	998fd0ef          	jal	80002224 <free>
80005090:	00c12083          	lw	ra,12(sp)
80005094:	00812403          	lw	s0,8(sp)
80005098:	00000513          	li	a0,0
8000509c:	01010113          	addi	sp,sp,16
800050a0:	00008067          	ret

800050a4 <lfs_bd_read>:
800050a4:	fd010113          	addi	sp,sp,-48
800050a8:	01312e23          	sw	s3,28(sp)
800050ac:	00050993          	mv	s3,a0
800050b0:	06852503          	lw	a0,104(a0)
800050b4:	01512a23          	sw	s5,20(sp)
800050b8:	02112623          	sw	ra,44(sp)
800050bc:	01c52503          	lw	a0,28(a0)
800050c0:	00078a93          	mv	s5,a5
800050c4:	011787b3          	add	a5,a5,a7
800050c8:	18f56663          	bltu	a0,a5,80005254 <lfs_bd_read+0x1b0>
800050cc:	02812423          	sw	s0,40(sp)
800050d0:	02912223          	sw	s1,36(sp)
800050d4:	03212023          	sw	s2,32(sp)
800050d8:	01412c23          	sw	s4,24(sp)
800050dc:	01612823          	sw	s6,16(sp)
800050e0:	01712623          	sw	s7,12(sp)
800050e4:	00088493          	mv	s1,a7
800050e8:	00058b93          	mv	s7,a1
800050ec:	00060413          	mv	s0,a2
800050f0:	00070b13          	mv	s6,a4
800050f4:	00080a13          	mv	s4,a6
800050f8:	fff68913          	addi	s2,a3,-1
800050fc:	0e088a63          	beqz	a7,800051f0 <lfs_bd_read+0x14c>
80005100:	100b8a63          	beqz	s7,80005214 <lfs_bd_read+0x170>
80005104:	000ba783          	lw	a5,0(s7)
80005108:	00048713          	mv	a4,s1
8000510c:	0efb0663          	beq	s6,a5,800051f8 <lfs_bd_read+0x154>
80005110:	00042783          	lw	a5,0(s0)
80005114:	00c42683          	lw	a3,12(s0)
80005118:	08fb0663          	beq	s6,a5,800051a4 <lfs_bd_read+0x100>
8000511c:	0689a503          	lw	a0,104(s3)
80005120:	01642023          	sw	s6,0(s0)
80005124:	01452603          	lw	a2,20(a0)
80005128:	01c52803          	lw	a6,28(a0)
8000512c:	00c90733          	add	a4,s2,a2
80005130:	01570733          	add	a4,a4,s5
80005134:	02caf7b3          	remu	a5,s5,a2
80005138:	02c77333          	remu	t1,a4,a2
8000513c:	40fa8633          	sub	a2,s5,a5
80005140:	00c42223          	sw	a2,4(s0)
80005144:	40670733          	sub	a4,a4,t1
80005148:	00e87463          	bgeu	a6,a4,80005150 <lfs_bd_read+0xac>
8000514c:	00080713          	mv	a4,a6
80005150:	02852803          	lw	a6,40(a0)
80005154:	415787b3          	sub	a5,a5,s5
80005158:	00f70733          	add	a4,a4,a5
8000515c:	00e87463          	bgeu	a6,a4,80005164 <lfs_bd_read+0xc0>
80005160:	00080713          	mv	a4,a6
80005164:	00452783          	lw	a5,4(a0)
80005168:	000b0593          	mv	a1,s6
8000516c:	00e42423          	sw	a4,8(s0)
80005170:	000780e7          	jalr	a5
80005174:	f80506e3          	beqz	a0,80005100 <lfs_bd_read+0x5c>
80005178:	02812403          	lw	s0,40(sp)
8000517c:	02412483          	lw	s1,36(sp)
80005180:	02012903          	lw	s2,32(sp)
80005184:	01812a03          	lw	s4,24(sp)
80005188:	01012b03          	lw	s6,16(sp)
8000518c:	00c12b83          	lw	s7,12(sp)
80005190:	02c12083          	lw	ra,44(sp)
80005194:	01c12983          	lw	s3,28(sp)
80005198:	01412a83          	lw	s5,20(sp)
8000519c:	03010113          	addi	sp,sp,48
800051a0:	00008067          	ret
800051a4:	00442583          	lw	a1,4(s0)
800051a8:	00842603          	lw	a2,8(s0)
800051ac:	00c58633          	add	a2,a1,a2
800051b0:	f6caf6e3          	bgeu	s5,a2,8000511c <lfs_bd_read+0x78>
800051b4:	f6bae4e3          	bltu	s5,a1,8000511c <lfs_bd_read+0x78>
800051b8:	01812423          	sw	s8,8(sp)
800051bc:	41560c33          	sub	s8,a2,s5
800051c0:	01877463          	bgeu	a4,s8,800051c8 <lfs_bd_read+0x124>
800051c4:	00070c13          	mv	s8,a4
800051c8:	40ba85b3          	sub	a1,s5,a1
800051cc:	000c0613          	mv	a2,s8
800051d0:	00b685b3          	add	a1,a3,a1
800051d4:	000a0513          	mv	a0,s4
800051d8:	418484b3          	sub	s1,s1,s8
800051dc:	cddfd0ef          	jal	80002eb8 <memcpy>
800051e0:	018a0a33          	add	s4,s4,s8
800051e4:	018a8ab3          	add	s5,s5,s8
800051e8:	00812c03          	lw	s8,8(sp)
800051ec:	f0049ae3          	bnez	s1,80005100 <lfs_bd_read+0x5c>
800051f0:	00000513          	li	a0,0
800051f4:	f85ff06f          	j	80005178 <lfs_bd_read+0xd4>
800051f8:	004ba783          	lw	a5,4(s7)
800051fc:	008ba603          	lw	a2,8(s7)
80005200:	00c78633          	add	a2,a5,a2
80005204:	f0caf6e3          	bgeu	s5,a2,80005110 <lfs_bd_read+0x6c>
80005208:	00fafa63          	bgeu	s5,a5,8000521c <lfs_bd_read+0x178>
8000520c:	41578733          	sub	a4,a5,s5
80005210:	f0e4f0e3          	bgeu	s1,a4,80005110 <lfs_bd_read+0x6c>
80005214:	00048713          	mv	a4,s1
80005218:	ef9ff06f          	j	80005110 <lfs_bd_read+0x6c>
8000521c:	01812423          	sw	s8,8(sp)
80005220:	41560c33          	sub	s8,a2,s5
80005224:	0184ec63          	bltu	s1,s8,8000523c <lfs_bd_read+0x198>
80005228:	00cba583          	lw	a1,12(s7)
8000522c:	40fa87b3          	sub	a5,s5,a5
80005230:	000c0613          	mv	a2,s8
80005234:	00f585b3          	add	a1,a1,a5
80005238:	f9dff06f          	j	800051d4 <lfs_bd_read+0x130>
8000523c:	00cba583          	lw	a1,12(s7)
80005240:	00048c13          	mv	s8,s1
80005244:	40fa87b3          	sub	a5,s5,a5
80005248:	000c0613          	mv	a2,s8
8000524c:	00f585b3          	add	a1,a1,a5
80005250:	f85ff06f          	j	800051d4 <lfs_bd_read+0x130>
80005254:	fac00513          	li	a0,-84
80005258:	f39ff06f          	j	80005190 <lfs_bd_read+0xec>

8000525c <lfs_fs_parent_match>:
8000525c:	00052583          	lw	a1,0(a0)
80005260:	00462783          	lw	a5,4(a2) # 80000004 <_start+0x4>
80005264:	00062703          	lw	a4,0(a2)
80005268:	0685a683          	lw	a3,104(a1) # 7ff80068 <__stack_size+0x7ff7e068>
8000526c:	fe010113          	addi	sp,sp,-32
80005270:	00058613          	mv	a2,a1
80005274:	01c6a683          	lw	a3,28(a3)
80005278:	00812c23          	sw	s0,24(sp)
8000527c:	00800893          	li	a7,8
80005280:	00050413          	mv	s0,a0
80005284:	00810813          	addi	a6,sp,8
80005288:	01058593          	addi	a1,a1,16
8000528c:	00060513          	mv	a0,a2
80005290:	00112e23          	sw	ra,28(sp)
80005294:	e11ff0ef          	jal	800050a4 <lfs_bd_read>
80005298:	02051463          	bnez	a0,800052c0 <lfs_fs_parent_match+0x64>
8000529c:	00812703          	lw	a4,8(sp)
800052a0:	00442783          	lw	a5,4(s0)
800052a4:	00e78e63          	beq	a5,a4,800052c0 <lfs_fs_parent_match+0x64>
800052a8:	00c12603          	lw	a2,12(sp)
800052ac:	00842683          	lw	a3,8(s0)
800052b0:	00d60863          	beq	a2,a3,800052c0 <lfs_fs_parent_match+0x64>
800052b4:	00d70663          	beq	a4,a3,800052c0 <lfs_fs_parent_match+0x64>
800052b8:	40c787b3          	sub	a5,a5,a2
800052bc:	00f03533          	snez	a0,a5
800052c0:	01c12083          	lw	ra,28(sp)
800052c4:	01812403          	lw	s0,24(sp)
800052c8:	02010113          	addi	sp,sp,32
800052cc:	00008067          	ret

800052d0 <lfs_dir_find_match>:
800052d0:	00852783          	lw	a5,8(a0)
800052d4:	fd010113          	addi	sp,sp,-48
800052d8:	03212023          	sw	s2,32(sp)
800052dc:	01512a23          	sw	s5,20(sp)
800052e0:	01612823          	sw	s6,16(sp)
800052e4:	3ff5fa93          	andi	s5,a1,1023
800052e8:	02112623          	sw	ra,44(sp)
800052ec:	02912223          	sw	s1,36(sp)
800052f0:	01312e23          	sw	s3,28(sp)
800052f4:	01412c23          	sw	s4,24(sp)
800052f8:	00052903          	lw	s2,0(a0)
800052fc:	00050b13          	mv	s6,a0
80005300:	000a8713          	mv	a4,s5
80005304:	00fae463          	bltu	s5,a5,8000530c <lfs_dir_find_match+0x3c>
80005308:	00078713          	mv	a4,a5
8000530c:	00062a03          	lw	s4,0(a2)
80005310:	00462983          	lw	s3,4(a2)
80005314:	004b2483          	lw	s1,4(s6)
80005318:	08070263          	beqz	a4,8000539c <lfs_dir_find_match+0xcc>
8000531c:	02812423          	sw	s0,40(sp)
80005320:	00048413          	mv	s0,s1
80005324:	408989b3          	sub	s3,s3,s0
80005328:	00e484b3          	add	s1,s1,a4
8000532c:	0180006f          	j	80005344 <lfs_dir_find_match+0x74>
80005330:	00044783          	lbu	a5,0(s0)
80005334:	00f14703          	lbu	a4,15(sp)
80005338:	00140413          	addi	s0,s0,1
8000533c:	06e79c63          	bne	a5,a4,800053b4 <lfs_dir_find_match+0xe4>
80005340:	04940a63          	beq	s0,s1,80005394 <lfs_dir_find_match+0xc4>
80005344:	00100893          	li	a7,1
80005348:	00f10813          	addi	a6,sp,15
8000534c:	008987b3          	add	a5,s3,s0
80005350:	000a0713          	mv	a4,s4
80005354:	408486b3          	sub	a3,s1,s0
80005358:	00090613          	mv	a2,s2
8000535c:	00000593          	li	a1,0
80005360:	00090513          	mv	a0,s2
80005364:	d41ff0ef          	jal	800050a4 <lfs_bd_read>
80005368:	fc0504e3          	beqz	a0,80005330 <lfs_dir_find_match+0x60>
8000536c:	02812403          	lw	s0,40(sp)
80005370:	02c12083          	lw	ra,44(sp)
80005374:	02412483          	lw	s1,36(sp)
80005378:	02012903          	lw	s2,32(sp)
8000537c:	01c12983          	lw	s3,28(sp)
80005380:	01812a03          	lw	s4,24(sp)
80005384:	01412a83          	lw	s5,20(sp)
80005388:	01012b03          	lw	s6,16(sp)
8000538c:	03010113          	addi	sp,sp,48
80005390:	00008067          	ret
80005394:	008b2783          	lw	a5,8(s6)
80005398:	02812403          	lw	s0,40(sp)
8000539c:	00000513          	li	a0,0
800053a0:	fcfa88e3          	beq	s5,a5,80005370 <lfs_dir_find_match+0xa0>
800053a4:	0157bab3          	sltu	s5,a5,s5
800053a8:	001aba93          	seqz	s5,s5
800053ac:	001a8513          	addi	a0,s5,1
800053b0:	fc1ff06f          	j	80005370 <lfs_dir_find_match+0xa0>
800053b4:	00f73533          	sltu	a0,a4,a5
800053b8:	00153513          	seqz	a0,a0
800053bc:	02812403          	lw	s0,40(sp)
800053c0:	00150513          	addi	a0,a0,1
800053c4:	fadff06f          	j	80005370 <lfs_dir_find_match+0xa0>

800053c8 <lfs_init>:
800053c8:	ff010113          	addi	sp,sp,-16
800053cc:	0305a783          	lw	a5,48(a1)
800053d0:	00812423          	sw	s0,8(sp)
800053d4:	00112623          	sw	ra,12(sp)
800053d8:	06b52423          	sw	a1,104(a0)
800053dc:	00050413          	mv	s0,a0
800053e0:	0285a503          	lw	a0,40(a1)
800053e4:	0e078263          	beqz	a5,800054c8 <lfs_init+0x100>
800053e8:	00f42623          	sw	a5,12(s0)
800053ec:	0345a783          	lw	a5,52(a1)
800053f0:	0285a503          	lw	a0,40(a1)
800053f4:	0e078863          	beqz	a5,800054e4 <lfs_init+0x11c>
800053f8:	00912223          	sw	s1,4(sp)
800053fc:	00f42e23          	sw	a5,28(s0)
80005400:	0285a603          	lw	a2,40(a1)
80005404:	00c42503          	lw	a0,12(s0)
80005408:	0ff00593          	li	a1,255
8000540c:	fff00493          	li	s1,-1
80005410:	a91fd0ef          	jal	80002ea0 <memset>
80005414:	06842783          	lw	a5,104(s0)
80005418:	01c42503          	lw	a0,28(s0)
8000541c:	0ff00593          	li	a1,255
80005420:	0287a603          	lw	a2,40(a5)
80005424:	00942023          	sw	s1,0(s0)
80005428:	a79fd0ef          	jal	80002ea0 <memset>
8000542c:	06842783          	lw	a5,104(s0)
80005430:	00942823          	sw	s1,16(s0)
80005434:	0387a703          	lw	a4,56(a5)
80005438:	0c070263          	beqz	a4,800054fc <lfs_init+0x134>
8000543c:	06e42223          	sw	a4,100(s0)
80005440:	03c7a703          	lw	a4,60(a5)
80005444:	00071463          	bnez	a4,8000544c <lfs_init+0x84>
80005448:	0ff00713          	li	a4,255
8000544c:	06e42623          	sw	a4,108(s0)
80005450:	0407a703          	lw	a4,64(a5)
80005454:	00071663          	bnez	a4,80005460 <lfs_init+0x98>
80005458:	80000737          	lui	a4,0x80000
8000545c:	fff70713          	addi	a4,a4,-1 # 7fffffff <__stack_size+0x7fffdfff>
80005460:	06e42823          	sw	a4,112(s0)
80005464:	0447a783          	lw	a5,68(a5)
80005468:	04078c63          	beqz	a5,800054c0 <lfs_init+0xf8>
8000546c:	06f42a23          	sw	a5,116(s0)
80005470:	00412483          	lw	s1,4(sp)
80005474:	fff00713          	li	a4,-1
80005478:	02e42023          	sw	a4,32(s0)
8000547c:	02e42223          	sw	a4,36(s0)
80005480:	02042423          	sw	zero,40(s0)
80005484:	02042623          	sw	zero,44(s0)
80005488:	02042823          	sw	zero,48(s0)
8000548c:	02042a23          	sw	zero,52(s0)
80005490:	02042c23          	sw	zero,56(s0)
80005494:	02042e23          	sw	zero,60(s0)
80005498:	04042023          	sw	zero,64(s0)
8000549c:	04042223          	sw	zero,68(s0)
800054a0:	04042423          	sw	zero,72(s0)
800054a4:	04042623          	sw	zero,76(s0)
800054a8:	04042823          	sw	zero,80(s0)
800054ac:	00000513          	li	a0,0
800054b0:	00c12083          	lw	ra,12(sp)
800054b4:	00812403          	lw	s0,8(sp)
800054b8:	01010113          	addi	sp,sp,16
800054bc:	00008067          	ret
800054c0:	3fe00793          	li	a5,1022
800054c4:	fa9ff06f          	j	8000546c <lfs_init+0xa4>
800054c8:	f2dfc0ef          	jal	800023f4 <malloc>
800054cc:	00a42623          	sw	a0,12(s0)
800054d0:	04050463          	beqz	a0,80005518 <lfs_init+0x150>
800054d4:	06842583          	lw	a1,104(s0)
800054d8:	0345a783          	lw	a5,52(a1)
800054dc:	0285a503          	lw	a0,40(a1)
800054e0:	f0079ce3          	bnez	a5,800053f8 <lfs_init+0x30>
800054e4:	f11fc0ef          	jal	800023f4 <malloc>
800054e8:	00a42e23          	sw	a0,28(s0)
800054ec:	02050663          	beqz	a0,80005518 <lfs_init+0x150>
800054f0:	06842583          	lw	a1,104(s0)
800054f4:	00912223          	sw	s1,4(sp)
800054f8:	f09ff06f          	j	80005400 <lfs_init+0x38>
800054fc:	02c7a503          	lw	a0,44(a5)
80005500:	ef5fc0ef          	jal	800023f4 <malloc>
80005504:	06a42223          	sw	a0,100(s0)
80005508:	00050663          	beqz	a0,80005514 <lfs_init+0x14c>
8000550c:	06842783          	lw	a5,104(s0)
80005510:	f31ff06f          	j	80005440 <lfs_init+0x78>
80005514:	00412483          	lw	s1,4(sp)
80005518:	00040513          	mv	a0,s0
8000551c:	b05ff0ef          	jal	80005020 <lfs_deinit>
80005520:	ff400513          	li	a0,-12
80005524:	f8dff06f          	j	800054b0 <lfs_init+0xe8>

80005528 <lfs_bd_flush>:
80005528:	fd010113          	addi	sp,sp,-48
8000552c:	02912223          	sw	s1,36(sp)
80005530:	00058493          	mv	s1,a1
80005534:	0005a583          	lw	a1,0(a1)
80005538:	02112623          	sw	ra,44(sp)
8000553c:	ffd00793          	li	a5,-3
80005540:	00b7fc63          	bgeu	a5,a1,80005558 <lfs_bd_flush+0x30>
80005544:	00000513          	li	a0,0
80005548:	02c12083          	lw	ra,44(sp)
8000554c:	02412483          	lw	s1,36(sp)
80005550:	03010113          	addi	sp,sp,48
80005554:	00008067          	ret
80005558:	03212023          	sw	s2,32(sp)
8000555c:	00050913          	mv	s2,a0
80005560:	06852503          	lw	a0,104(a0)
80005564:	0084a703          	lw	a4,8(s1)
80005568:	02812423          	sw	s0,40(sp)
8000556c:	01852783          	lw	a5,24(a0)
80005570:	01412c23          	sw	s4,24(sp)
80005574:	00068413          	mv	s0,a3
80005578:	00e78733          	add	a4,a5,a4
8000557c:	fff70713          	addi	a4,a4,-1
80005580:	02f777b3          	remu	a5,a4,a5
80005584:	00060a13          	mv	s4,a2
80005588:	00c4a683          	lw	a3,12(s1)
8000558c:	00852803          	lw	a6,8(a0)
80005590:	0044a603          	lw	a2,4(s1)
80005594:	01312e23          	sw	s3,28(sp)
80005598:	40f709b3          	sub	s3,a4,a5
8000559c:	00098713          	mv	a4,s3
800055a0:	000800e7          	jalr	a6 # 4ff00000 <__stack_size+0x4fefe000>
800055a4:	0c051663          	bnez	a0,80005670 <lfs_bd_flush+0x148>
800055a8:	00c4a503          	lw	a0,12(s1)
800055ac:	08040c63          	beqz	s0,80005644 <lfs_bd_flush+0x11c>
800055b0:	01512a23          	sw	s5,20(sp)
800055b4:	01612823          	sw	s6,16(sp)
800055b8:	fff00793          	li	a5,-1
800055bc:	00fa2023          	sw	a5,0(s4)
800055c0:	0004aa83          	lw	s5,0(s1)
800055c4:	0044ab03          	lw	s6,4(s1)
800055c8:	0c098863          	beqz	s3,80005698 <lfs_bd_flush+0x170>
800055cc:	00050413          	mv	s0,a0
800055d0:	013509b3          	add	s3,a0,s3
800055d4:	40ab0b33          	sub	s6,s6,a0
800055d8:	0180006f          	j	800055f0 <lfs_bd_flush+0xc8>
800055dc:	00044703          	lbu	a4,0(s0)
800055e0:	00f14783          	lbu	a5,15(sp)
800055e4:	00140413          	addi	s0,s0,1
800055e8:	0af71463          	bne	a4,a5,80005690 <lfs_bd_flush+0x168>
800055ec:	05340663          	beq	s0,s3,80005638 <lfs_bd_flush+0x110>
800055f0:	00100893          	li	a7,1
800055f4:	00f10813          	addi	a6,sp,15
800055f8:	008b07b3          	add	a5,s6,s0
800055fc:	000a8713          	mv	a4,s5
80005600:	408986b3          	sub	a3,s3,s0
80005604:	000a0613          	mv	a2,s4
80005608:	00000593          	li	a1,0
8000560c:	00090513          	mv	a0,s2
80005610:	a95ff0ef          	jal	800050a4 <lfs_bd_read>
80005614:	fc0504e3          	beqz	a0,800055dc <lfs_bd_flush+0xb4>
80005618:	06055c63          	bgez	a0,80005690 <lfs_bd_flush+0x168>
8000561c:	02812403          	lw	s0,40(sp)
80005620:	02012903          	lw	s2,32(sp)
80005624:	01c12983          	lw	s3,28(sp)
80005628:	01812a03          	lw	s4,24(sp)
8000562c:	01412a83          	lw	s5,20(sp)
80005630:	01012b03          	lw	s6,16(sp)
80005634:	f15ff06f          	j	80005548 <lfs_bd_flush+0x20>
80005638:	00c4a503          	lw	a0,12(s1)
8000563c:	01412a83          	lw	s5,20(sp)
80005640:	01012b03          	lw	s6,16(sp)
80005644:	06892783          	lw	a5,104(s2)
80005648:	0ff00593          	li	a1,255
8000564c:	0287a603          	lw	a2,40(a5)
80005650:	851fd0ef          	jal	80002ea0 <memset>
80005654:	fff00793          	li	a5,-1
80005658:	02812403          	lw	s0,40(sp)
8000565c:	02012903          	lw	s2,32(sp)
80005660:	01c12983          	lw	s3,28(sp)
80005664:	01812a03          	lw	s4,24(sp)
80005668:	00f4a023          	sw	a5,0(s1)
8000566c:	ed9ff06f          	j	80005544 <lfs_bd_flush+0x1c>
80005670:	02812403          	lw	s0,40(sp)
80005674:	02c12083          	lw	ra,44(sp)
80005678:	02012903          	lw	s2,32(sp)
8000567c:	01c12983          	lw	s3,28(sp)
80005680:	01812a03          	lw	s4,24(sp)
80005684:	02412483          	lw	s1,36(sp)
80005688:	03010113          	addi	sp,sp,48
8000568c:	00008067          	ret
80005690:	fac00513          	li	a0,-84
80005694:	f89ff06f          	j	8000561c <lfs_bd_flush+0xf4>
80005698:	01412a83          	lw	s5,20(sp)
8000569c:	01012b03          	lw	s6,16(sp)
800056a0:	fa5ff06f          	j	80005644 <lfs_bd_flush+0x11c>

800056a4 <lfs_bd_prog>:
800056a4:	14088463          	beqz	a7,800057ec <lfs_bd_prog+0x148>
800056a8:	fd010113          	addi	sp,sp,-48
800056ac:	02812423          	sw	s0,40(sp)
800056b0:	02912223          	sw	s1,36(sp)
800056b4:	03212023          	sw	s2,32(sp)
800056b8:	01312e23          	sw	s3,28(sp)
800056bc:	01412c23          	sw	s4,24(sp)
800056c0:	01512a23          	sw	s5,20(sp)
800056c4:	01712623          	sw	s7,12(sp)
800056c8:	01812423          	sw	s8,8(sp)
800056cc:	00070913          	mv	s2,a4
800056d0:	02112623          	sw	ra,44(sp)
800056d4:	06852703          	lw	a4,104(a0)
800056d8:	01612823          	sw	s6,16(sp)
800056dc:	00088b93          	mv	s7,a7
800056e0:	00050c13          	mv	s8,a0
800056e4:	00058413          	mv	s0,a1
800056e8:	00060a13          	mv	s4,a2
800056ec:	00068a93          	mv	s5,a3
800056f0:	00078493          	mv	s1,a5
800056f4:	00080993          	mv	s3,a6
800056f8:	01c0006f          	j	80005714 <lfs_bd_prog+0x70>
800056fc:	01872303          	lw	t1,24(a4)
80005700:	01242023          	sw	s2,0(s0)
80005704:	00042423          	sw	zero,8(s0)
80005708:	0264f333          	remu	t1,s1,t1
8000570c:	40648333          	sub	t1,s1,t1
80005710:	00642223          	sw	t1,4(s0)
80005714:	00042783          	lw	a5,0(s0)
80005718:	ff2792e3          	bne	a5,s2,800056fc <lfs_bd_prog+0x58>
8000571c:	00442683          	lw	a3,4(s0)
80005720:	fcd4eee3          	bltu	s1,a3,800056fc <lfs_bd_prog+0x58>
80005724:	02872783          	lw	a5,40(a4)
80005728:	00f687b3          	add	a5,a3,a5
8000572c:	fcf4f8e3          	bgeu	s1,a5,800056fc <lfs_bd_prog+0x58>
80005730:	40978b33          	sub	s6,a5,s1
80005734:	096bea63          	bltu	s7,s6,800057c8 <lfs_bd_prog+0x124>
80005738:	00c42503          	lw	a0,12(s0)
8000573c:	40d486b3          	sub	a3,s1,a3
80005740:	000b0613          	mv	a2,s6
80005744:	00098593          	mv	a1,s3
80005748:	00d50533          	add	a0,a0,a3
8000574c:	f6cfd0ef          	jal	80002eb8 <memcpy>
80005750:	00442783          	lw	a5,4(s0)
80005754:	00842703          	lw	a4,8(s0)
80005758:	016484b3          	add	s1,s1,s6
8000575c:	40f487b3          	sub	a5,s1,a5
80005760:	416b8bb3          	sub	s7,s7,s6
80005764:	04e7e663          	bltu	a5,a4,800057b0 <lfs_bd_prog+0x10c>
80005768:	068c2703          	lw	a4,104(s8)
8000576c:	00f42423          	sw	a5,8(s0)
80005770:	02872703          	lw	a4,40(a4)
80005774:	04f70e63          	beq	a4,a5,800057d0 <lfs_bd_prog+0x12c>
80005778:	060b9e63          	bnez	s7,800057f4 <lfs_bd_prog+0x150>
8000577c:	00000513          	li	a0,0
80005780:	02c12083          	lw	ra,44(sp)
80005784:	02812403          	lw	s0,40(sp)
80005788:	02412483          	lw	s1,36(sp)
8000578c:	02012903          	lw	s2,32(sp)
80005790:	01c12983          	lw	s3,28(sp)
80005794:	01812a03          	lw	s4,24(sp)
80005798:	01412a83          	lw	s5,20(sp)
8000579c:	01012b03          	lw	s6,16(sp)
800057a0:	00c12b83          	lw	s7,12(sp)
800057a4:	00812c03          	lw	s8,8(sp)
800057a8:	03010113          	addi	sp,sp,48
800057ac:	00008067          	ret
800057b0:	00070793          	mv	a5,a4
800057b4:	068c2703          	lw	a4,104(s8)
800057b8:	00f42423          	sw	a5,8(s0)
800057bc:	02872703          	lw	a4,40(a4)
800057c0:	faf71ce3          	bne	a4,a5,80005778 <lfs_bd_prog+0xd4>
800057c4:	00c0006f          	j	800057d0 <lfs_bd_prog+0x12c>
800057c8:	000b8b13          	mv	s6,s7
800057cc:	f6dff06f          	j	80005738 <lfs_bd_prog+0x94>
800057d0:	000a8693          	mv	a3,s5
800057d4:	000a0613          	mv	a2,s4
800057d8:	00040593          	mv	a1,s0
800057dc:	000c0513          	mv	a0,s8
800057e0:	d49ff0ef          	jal	80005528 <lfs_bd_flush>
800057e4:	f8051ee3          	bnez	a0,80005780 <lfs_bd_prog+0xdc>
800057e8:	f91ff06f          	j	80005778 <lfs_bd_prog+0xd4>
800057ec:	00000513          	li	a0,0
800057f0:	00008067          	ret
800057f4:	068c2703          	lw	a4,104(s8)
800057f8:	016989b3          	add	s3,s3,s6
800057fc:	f19ff06f          	j	80005714 <lfs_bd_prog+0x70>

80005800 <lfs_dir_commitprog>:
80005800:	fe010113          	addi	sp,sp,-32
80005804:	0045a783          	lw	a5,4(a1)
80005808:	0005a703          	lw	a4,0(a1)
8000580c:	01312623          	sw	s3,12(sp)
80005810:	00060993          	mv	s3,a2
80005814:	00812c23          	sw	s0,24(sp)
80005818:	01212823          	sw	s2,16(sp)
8000581c:	00068893          	mv	a7,a3
80005820:	00058413          	mv	s0,a1
80005824:	00050613          	mv	a2,a0
80005828:	00068913          	mv	s2,a3
8000582c:	00098813          	mv	a6,s3
80005830:	00000693          	li	a3,0
80005834:	01050593          	addi	a1,a0,16
80005838:	00912a23          	sw	s1,20(sp)
8000583c:	00112e23          	sw	ra,28(sp)
80005840:	e65ff0ef          	jal	800056a4 <lfs_bd_prog>
80005844:	00050493          	mv	s1,a0
80005848:	02051263          	bnez	a0,8000586c <lfs_dir_commitprog+0x6c>
8000584c:	00c42503          	lw	a0,12(s0)
80005850:	00090613          	mv	a2,s2
80005854:	00098593          	mv	a1,s3
80005858:	521050ef          	jal	8000b578 <lfs_crc>
8000585c:	00442783          	lw	a5,4(s0)
80005860:	00a42623          	sw	a0,12(s0)
80005864:	012787b3          	add	a5,a5,s2
80005868:	00f42223          	sw	a5,4(s0)
8000586c:	01c12083          	lw	ra,28(sp)
80005870:	01812403          	lw	s0,24(sp)
80005874:	01012903          	lw	s2,16(sp)
80005878:	00c12983          	lw	s3,12(sp)
8000587c:	00048513          	mv	a0,s1
80005880:	01412483          	lw	s1,20(sp)
80005884:	02010113          	addi	sp,sp,32
80005888:	00008067          	ret

8000588c <lfs_dir_commit_commit>:
8000588c:	fd010113          	addi	sp,sp,-48
80005890:	01412c23          	sw	s4,24(sp)
80005894:	00452a03          	lw	s4,4(a0)
80005898:	02812423          	sw	s0,40(sp)
8000589c:	01659413          	slli	s0,a1,0x16
800058a0:	41645413          	srai	s0,s0,0x16
800058a4:	004a2783          	lw	a5,4(s4)
800058a8:	00140413          	addi	s0,s0,1
800058ac:	00143413          	seqz	s0,s0
800058b0:	00b40433          	add	s0,s0,a1
800058b4:	014a2703          	lw	a4,20(s4)
800058b8:	3ff47413          	andi	s0,s0,1023
800058bc:	00478793          	addi	a5,a5,4
800058c0:	03212023          	sw	s2,32(sp)
800058c4:	02112623          	sw	ra,44(sp)
800058c8:	01512a23          	sw	s5,20(sp)
800058cc:	008787b3          	add	a5,a5,s0
800058d0:	00052903          	lw	s2,0(a0)
800058d4:	16f76663          	bltu	a4,a5,80005a40 <lfs_dir_commit_commit+0x1b4>
800058d8:	008a2503          	lw	a0,8(s4)
800058dc:	01612823          	sw	s6,16(sp)
800058e0:	00159b13          	slli	s6,a1,0x1
800058e4:	001b5b13          	srli	s6,s6,0x1
800058e8:	00ab4533          	xor	a0,s6,a0
800058ec:	02912223          	sw	s1,36(sp)
800058f0:	01312e23          	sw	s3,28(sp)
800058f4:	00058493          	mv	s1,a1
800058f8:	00060993          	mv	s3,a2
800058fc:	820fe0ef          	jal	8000391c <__bswapsi2>
80005900:	00050793          	mv	a5,a0
80005904:	00400693          	li	a3,4
80005908:	00c10613          	addi	a2,sp,12
8000590c:	000a0593          	mv	a1,s4
80005910:	00090513          	mv	a0,s2
80005914:	00f12623          	sw	a5,12(sp)
80005918:	ee9ff0ef          	jal	80005800 <lfs_dir_commitprog>
8000591c:	00050a93          	mv	s5,a0
80005920:	0e051063          	bnez	a0,80005a00 <lfs_dir_commit_commit+0x174>
80005924:	0804da63          	bgez	s1,800059b8 <lfs_dir_commit_commit+0x12c>
80005928:	00000493          	li	s1,0
8000592c:	00041e63          	bnez	s0,80005948 <lfs_dir_commit_commit+0xbc>
80005930:	0a00006f          	j	800059d0 <lfs_dir_commit_commit+0x144>
80005934:	ecdff0ef          	jal	80005800 <lfs_dir_commitprog>
80005938:	00050793          	mv	a5,a0
8000593c:	00148493          	addi	s1,s1,1
80005940:	04051463          	bnez	a0,80005988 <lfs_dir_commit_commit+0xfc>
80005944:	08940663          	beq	s0,s1,800059d0 <lfs_dir_commit_commit+0x144>
80005948:	0049a783          	lw	a5,4(s3)
8000594c:	0009a703          	lw	a4,0(s3)
80005950:	409406b3          	sub	a3,s0,s1
80005954:	00f487b3          	add	a5,s1,a5
80005958:	00090613          	mv	a2,s2
8000595c:	00000593          	li	a1,0
80005960:	00100893          	li	a7,1
80005964:	00b10813          	addi	a6,sp,11
80005968:	00090513          	mv	a0,s2
8000596c:	f38ff0ef          	jal	800050a4 <lfs_bd_read>
80005970:	00050793          	mv	a5,a0
80005974:	00100693          	li	a3,1
80005978:	00b10613          	addi	a2,sp,11
8000597c:	000a0593          	mv	a1,s4
80005980:	00090513          	mv	a0,s2
80005984:	fa0788e3          	beqz	a5,80005934 <lfs_dir_commit_commit+0xa8>
80005988:	02c12083          	lw	ra,44(sp)
8000598c:	02812403          	lw	s0,40(sp)
80005990:	00078a93          	mv	s5,a5
80005994:	02412483          	lw	s1,36(sp)
80005998:	01c12983          	lw	s3,28(sp)
8000599c:	01012b03          	lw	s6,16(sp)
800059a0:	02012903          	lw	s2,32(sp)
800059a4:	01812a03          	lw	s4,24(sp)
800059a8:	000a8513          	mv	a0,s5
800059ac:	01412a83          	lw	s5,20(sp)
800059b0:	03010113          	addi	sp,sp,48
800059b4:	00008067          	ret
800059b8:	00040693          	mv	a3,s0
800059bc:	00098613          	mv	a2,s3
800059c0:	000a0593          	mv	a1,s4
800059c4:	00090513          	mv	a0,s2
800059c8:	e39ff0ef          	jal	80005800 <lfs_dir_commitprog>
800059cc:	06051063          	bnez	a0,80005a2c <lfs_dir_commit_commit+0x1a0>
800059d0:	016a2423          	sw	s6,8(s4)
800059d4:	02412483          	lw	s1,36(sp)
800059d8:	01c12983          	lw	s3,28(sp)
800059dc:	01012b03          	lw	s6,16(sp)
800059e0:	02c12083          	lw	ra,44(sp)
800059e4:	02812403          	lw	s0,40(sp)
800059e8:	02012903          	lw	s2,32(sp)
800059ec:	01812a03          	lw	s4,24(sp)
800059f0:	000a8513          	mv	a0,s5
800059f4:	01412a83          	lw	s5,20(sp)
800059f8:	03010113          	addi	sp,sp,48
800059fc:	00008067          	ret
80005a00:	02c12083          	lw	ra,44(sp)
80005a04:	02812403          	lw	s0,40(sp)
80005a08:	02412483          	lw	s1,36(sp)
80005a0c:	01c12983          	lw	s3,28(sp)
80005a10:	01012b03          	lw	s6,16(sp)
80005a14:	02012903          	lw	s2,32(sp)
80005a18:	01812a03          	lw	s4,24(sp)
80005a1c:	000a8513          	mv	a0,s5
80005a20:	01412a83          	lw	s5,20(sp)
80005a24:	03010113          	addi	sp,sp,48
80005a28:	00008067          	ret
80005a2c:	02412483          	lw	s1,36(sp)
80005a30:	01c12983          	lw	s3,28(sp)
80005a34:	01012b03          	lw	s6,16(sp)
80005a38:	00050a93          	mv	s5,a0
80005a3c:	fa5ff06f          	j	800059e0 <lfs_dir_commit_commit+0x154>
80005a40:	fe400a93          	li	s5,-28
80005a44:	f9dff06f          	j	800059e0 <lfs_dir_commit_commit+0x154>

80005a48 <lfs_dir_commitcrc>:
80005a48:	06852783          	lw	a5,104(a0)
80005a4c:	0045a703          	lw	a4,4(a1)
80005a50:	fa010113          	addi	sp,sp,-96
80005a54:	0187a783          	lw	a5,24(a5)
80005a58:	05212823          	sw	s2,80(sp)
80005a5c:	04912a23          	sw	s1,84(sp)
80005a60:	00f70933          	add	s2,a4,a5
80005a64:	00790913          	addi	s2,s2,7
80005a68:	02f977b3          	remu	a5,s2,a5
80005a6c:	03a12823          	sw	s10,48(sp)
80005a70:	03b12623          	sw	s11,44(sp)
80005a74:	04112e23          	sw	ra,92(sp)
80005a78:	04812c23          	sw	s0,88(sp)
80005a7c:	05312623          	sw	s3,76(sp)
80005a80:	05412423          	sw	s4,72(sp)
80005a84:	03912a23          	sw	s9,52(sp)
80005a88:	00e12623          	sw	a4,12(sp)
80005a8c:	00050493          	mv	s1,a0
80005a90:	00058d93          	mv	s11,a1
80005a94:	01050d13          	addi	s10,a0,16
80005a98:	40f90933          	sub	s2,s2,a5
80005a9c:	19277a63          	bgeu	a4,s2,80005c30 <lfs_dir_commitcrc+0x1e8>
80005aa0:	05512223          	sw	s5,68(sp)
80005aa4:	00100ab7          	lui	s5,0x100
80005aa8:	05612023          	sw	s6,64(sp)
80005aac:	03712e23          	sw	s7,60(sp)
80005ab0:	03812c23          	sw	s8,56(sp)
80005ab4:	00c12403          	lw	s0,12(sp)
80005ab8:	3fe00b13          	li	s6,1022
80005abc:	ff890b93          	addi	s7,s2,-8
80005ac0:	fff00a13          	li	s4,-1
80005ac4:	fac00c13          	li	s8,-84
80005ac8:	c00a8a93          	addi	s5,s5,-1024 # ffc00 <__stack_size+0xfdc00>
80005acc:	01050993          	addi	s3,a0,16
80005ad0:	02c0006f          	j	80005afc <lfs_dir_commitcrc+0xb4>
80005ad4:	01412783          	lw	a5,20(sp)
80005ad8:	004da703          	lw	a4,4(s11)
80005adc:	014da623          	sw	s4,12(s11)
80005ae0:	3ff7f413          	andi	s0,a5,1023
80005ae4:	00440413          	addi	s0,s0,4
80005ae8:	00e40433          	add	s0,s0,a4
80005aec:	00f34333          	xor	t1,t1,a5
80005af0:	008da223          	sw	s0,4(s11)
80005af4:	006da423          	sw	t1,8(s11)
80005af8:	13247463          	bgeu	s0,s2,80005c20 <lfs_dir_commitcrc+0x1d8>
80005afc:	00440413          	addi	s0,s0,4
80005b00:	40890d33          	sub	s10,s2,s0
80005b04:	00400893          	li	a7,4
80005b08:	01410813          	addi	a6,sp,20
80005b0c:	00400693          	li	a3,4
80005b10:	00048613          	mv	a2,s1
80005b14:	00000593          	li	a1,0
80005b18:	00048513          	mv	a0,s1
80005b1c:	01ab7463          	bgeu	s6,s10,80005b24 <lfs_dir_commitcrc+0xdc>
80005b20:	3fe00d13          	li	s10,1022
80005b24:	008d0d33          	add	s10,s10,s0
80005b28:	012d7663          	bgeu	s10,s2,80005b34 <lfs_dir_commitcrc+0xec>
80005b2c:	01abf463          	bgeu	s7,s10,80005b34 <lfs_dir_commitcrc+0xec>
80005b30:	000b8d13          	mv	s10,s7
80005b34:	000da703          	lw	a4,0(s11)
80005b38:	000d0793          	mv	a5,s10
80005b3c:	01412a23          	sw	s4,20(sp)
80005b40:	d64ff0ef          	jal	800050a4 <lfs_bd_read>
80005b44:	00050713          	mv	a4,a0
80005b48:	00050463          	beqz	a0,80005b50 <lfs_dir_commitcrc+0x108>
80005b4c:	09851a63          	bne	a0,s8,80005be0 <lfs_dir_commitcrc+0x198>
80005b50:	01412503          	lw	a0,20(sp)
80005b54:	408d0d33          	sub	s10,s10,s0
80005b58:	dc5fd0ef          	jal	8000391c <__bswapsi2>
80005b5c:	fff54c93          	not	s9,a0
80005b60:	01fcd713          	srli	a4,s9,0x1f
80005b64:	50070713          	addi	a4,a4,1280
80005b68:	01471713          	slli	a4,a4,0x14
80005b6c:	008da503          	lw	a0,8(s11)
80005b70:	01a767b3          	or	a5,a4,s10
80005b74:	0157e7b3          	or	a5,a5,s5
80005b78:	00a7c533          	xor	a0,a5,a0
80005b7c:	00f12a23          	sw	a5,20(sp)
80005b80:	d9dfd0ef          	jal	8000391c <__bswapsi2>
80005b84:	00050793          	mv	a5,a0
80005b88:	00cda503          	lw	a0,12(s11)
80005b8c:	00400613          	li	a2,4
80005b90:	01810593          	addi	a1,sp,24
80005b94:	00f12c23          	sw	a5,24(sp)
80005b98:	1e1050ef          	jal	8000b578 <lfs_crc>
80005b9c:	004da783          	lw	a5,4(s11)
80005ba0:	000da703          	lw	a4,0(s11)
80005ba4:	00050e13          	mv	t3,a0
80005ba8:	00ada623          	sw	a0,12(s11)
80005bac:	00800893          	li	a7,8
80005bb0:	01810813          	addi	a6,sp,24
80005bb4:	00000693          	li	a3,0
80005bb8:	00048613          	mv	a2,s1
80005bbc:	00098593          	mv	a1,s3
80005bc0:	00048513          	mv	a0,s1
80005bc4:	01c12e23          	sw	t3,28(sp)
80005bc8:	addff0ef          	jal	800056a4 <lfs_bd_prog>
80005bcc:	800007b7          	lui	a5,0x80000
80005bd0:	00098d13          	mv	s10,s3
80005bd4:	00fcf333          	and	t1,s9,a5
80005bd8:	00050713          	mv	a4,a0
80005bdc:	ee050ce3          	beqz	a0,80005ad4 <lfs_dir_commitcrc+0x8c>
80005be0:	04412a83          	lw	s5,68(sp)
80005be4:	04012b03          	lw	s6,64(sp)
80005be8:	03c12b83          	lw	s7,60(sp)
80005bec:	03812c03          	lw	s8,56(sp)
80005bf0:	05c12083          	lw	ra,92(sp)
80005bf4:	05812403          	lw	s0,88(sp)
80005bf8:	05412483          	lw	s1,84(sp)
80005bfc:	05012903          	lw	s2,80(sp)
80005c00:	04c12983          	lw	s3,76(sp)
80005c04:	04812a03          	lw	s4,72(sp)
80005c08:	03412c83          	lw	s9,52(sp)
80005c0c:	03012d03          	lw	s10,48(sp)
80005c10:	02c12d83          	lw	s11,44(sp)
80005c14:	00070513          	mv	a0,a4
80005c18:	06010113          	addi	sp,sp,96
80005c1c:	00008067          	ret
80005c20:	04412a83          	lw	s5,68(sp)
80005c24:	04012b03          	lw	s6,64(sp)
80005c28:	03c12b83          	lw	s7,60(sp)
80005c2c:	03812c03          	lw	s8,56(sp)
80005c30:	fff00793          	li	a5,-1
80005c34:	00f4a023          	sw	a5,0(s1)
80005c38:	00000693          	li	a3,0
80005c3c:	00048613          	mv	a2,s1
80005c40:	000d0593          	mv	a1,s10
80005c44:	00048513          	mv	a0,s1
80005c48:	8e1ff0ef          	jal	80005528 <lfs_bd_flush>
80005c4c:	00050713          	mv	a4,a0
80005c50:	fa0510e3          	bnez	a0,80005bf0 <lfs_dir_commitcrc+0x1a8>
80005c54:	0684a503          	lw	a0,104(s1)
80005c58:	01052783          	lw	a5,16(a0)
80005c5c:	000780e7          	jalr	a5 # 80000000 <_start>
80005c60:	0a051c63          	bnez	a0,80005d18 <lfs_dir_commitcrc+0x2d0>
80005c64:	010da403          	lw	s0,16(s11)
80005c68:	09247463          	bgeu	s0,s2,80005cf0 <lfs_dir_commitcrc+0x2a8>
80005c6c:	00c12783          	lw	a5,12(sp)
80005c70:	00478c93          	addi	s9,a5,4
80005c74:	004c8a13          	addi	s4,s9,4
80005c78:	0b447463          	bgeu	s0,s4,80005d20 <lfs_dir_commitcrc+0x2d8>
80005c7c:	fff00993          	li	s3,-1
80005c80:	000da703          	lw	a4,0(s11)
80005c84:	00048613          	mv	a2,s1
80005c88:	00000593          	li	a1,0
80005c8c:	00100893          	li	a7,1
80005c90:	01810813          	addi	a6,sp,24
80005c94:	00040793          	mv	a5,s0
80005c98:	408a06b3          	sub	a3,s4,s0
80005c9c:	00048513          	mv	a0,s1
80005ca0:	c04ff0ef          	jal	800050a4 <lfs_bd_read>
80005ca4:	00050713          	mv	a4,a0
80005ca8:	00100613          	li	a2,1
80005cac:	01810593          	addi	a1,sp,24
80005cb0:	00098513          	mv	a0,s3
80005cb4:	f2071ee3          	bnez	a4,80005bf0 <lfs_dir_commitcrc+0x1a8>
80005cb8:	0c1050ef          	jal	8000b578 <lfs_crc>
80005cbc:	00140413          	addi	s0,s0,1
80005cc0:	00050993          	mv	s3,a0
80005cc4:	fa8a1ee3          	bne	s4,s0,80005c80 <lfs_dir_commitcrc+0x238>
80005cc8:	04051c63          	bnez	a0,80005d20 <lfs_dir_commitcrc+0x2d8>
80005ccc:	419907b3          	sub	a5,s2,s9
80005cd0:	3fe00713          	li	a4,1022
80005cd4:	02f76263          	bltu	a4,a5,80005cf8 <lfs_dir_commitcrc+0x2b0>
80005cd8:	019787b3          	add	a5,a5,s9
80005cdc:	0127fa63          	bgeu	a5,s2,80005cf0 <lfs_dir_commitcrc+0x2a8>
80005ce0:	ff890413          	addi	s0,s2,-8
80005ce4:	0287e263          	bltu	a5,s0,80005d08 <lfs_dir_commitcrc+0x2c0>
80005ce8:	00440c93          	addi	s9,s0,4
80005cec:	f92464e3          	bltu	s0,s2,80005c74 <lfs_dir_commitcrc+0x22c>
80005cf0:	00000713          	li	a4,0
80005cf4:	efdff06f          	j	80005bf0 <lfs_dir_commitcrc+0x1a8>
80005cf8:	3fe00793          	li	a5,1022
80005cfc:	019787b3          	add	a5,a5,s9
80005d00:	ff27f8e3          	bgeu	a5,s2,80005cf0 <lfs_dir_commitcrc+0x2a8>
80005d04:	fddff06f          	j	80005ce0 <lfs_dir_commitcrc+0x298>
80005d08:	00078413          	mv	s0,a5
80005d0c:	00440c93          	addi	s9,s0,4
80005d10:	f72462e3          	bltu	s0,s2,80005c74 <lfs_dir_commitcrc+0x22c>
80005d14:	fddff06f          	j	80005cf0 <lfs_dir_commitcrc+0x2a8>
80005d18:	00050713          	mv	a4,a0
80005d1c:	ed5ff06f          	j	80005bf0 <lfs_dir_commitcrc+0x1a8>
80005d20:	fac00713          	li	a4,-84
80005d24:	ecdff06f          	j	80005bf0 <lfs_dir_commitcrc+0x1a8>

80005d28 <lfs_dir_traverse>:
80005d28:	f6010113          	addi	sp,sp,-160
80005d2c:	09312623          	sw	s3,140(sp)
80005d30:	00088993          	mv	s3,a7
80005d34:	0a415883          	lhu	a7,164(sp)
80005d38:	0ac11303          	lh	t1,172(sp)
80005d3c:	08912a23          	sw	s1,148(sp)
80005d40:	03112a23          	sw	a7,52(sp)
80005d44:	0a815883          	lhu	a7,168(sp)
80005d48:	09512223          	sw	s5,132(sp)
80005d4c:	09612023          	sw	s6,128(sp)
80005d50:	03112c23          	sw	a7,56(sp)
80005d54:	00a9db13          	srli	s6,s3,0xa
80005d58:	800008b7          	lui	a7,0x80000
80005d5c:	00078493          	mv	s1,a5
80005d60:	0a012a83          	lw	s5,160(sp)
80005d64:	00a31793          	slli	a5,t1,0xa
80005d68:	010b1b13          	slli	s6,s6,0x10
80005d6c:	02f12823          	sw	a5,48(sp)
80005d70:	c0088793          	addi	a5,a7,-1024 # 7ffffc00 <__stack_size+0x7fffdc00>
80005d74:	08812c23          	sw	s0,152(sp)
80005d78:	09212823          	sw	s2,144(sp)
80005d7c:	09412423          	sw	s4,136(sp)
80005d80:	07712e23          	sw	s7,124(sp)
80005d84:	07812c23          	sw	s8,120(sp)
80005d88:	07912a23          	sw	s9,116(sp)
80005d8c:	07b12623          	sw	s11,108(sp)
80005d90:	08112e23          	sw	ra,156(sp)
80005d94:	07a12823          	sw	s10,112(sp)
80005d98:	04612023          	sw	t1,64(sp)
80005d9c:	00050913          	mv	s2,a0
80005da0:	00058c93          	mv	s9,a1
80005da4:	00060d93          	mv	s11,a2
80005da8:	00068c13          	mv	s8,a3
80005dac:	00070413          	mv	s0,a4
80005db0:	00080b93          	mv	s7,a6
80005db4:	010b5b13          	srli	s6,s6,0x10
80005db8:	02f12623          	sw	a5,44(sp)
80005dbc:	7ff00a37          	lui	s4,0x7ff00
80005dc0:	016c1d13          	slli	s10,s8,0x16
80005dc4:	416d5d13          	srai	s10,s10,0x16
80005dc8:	001d0d13          	addi	s10,s10,1
80005dcc:	001d3d13          	seqz	s10,s10
80005dd0:	018d0d33          	add	s10,s10,s8
80005dd4:	00cca783          	lw	a5,12(s9)
80005dd8:	3ffd7d13          	andi	s10,s10,1023
80005ddc:	004d8713          	addi	a4,s11,4
80005de0:	00ed0d33          	add	s10,s10,a4
80005de4:	0afd6263          	bltu	s10,a5,80005e88 <lfs_dir_traverse+0x160>
80005de8:	10905063          	blez	s1,80005ee8 <lfs_dir_traverse+0x1c0>
80005dec:	00042583          	lw	a1,0(s0)
80005df0:	00442303          	lw	t1,4(s0)
80005df4:	fff48493          	addi	s1,s1,-1
80005df8:	04b12a23          	sw	a1,84(sp)
80005dfc:	00840413          	addi	s0,s0,8
80005e00:	00bacd33          	xor	s10,s5,a1
80005e04:	013d7d33          	and	s10,s10,s3
80005e08:	014d7d33          	and	s10,s10,s4
80005e0c:	fa0d1ae3          	bnez	s10,80005dc0 <lfs_dir_traverse+0x98>
80005e10:	120b1663          	bnez	s6,80005f3c <lfs_dir_traverse+0x214>
80005e14:	0145d793          	srli	a5,a1,0x14
80005e18:	7ff7f793          	andi	a5,a5,2047
80005e1c:	fa0782e3          	beqz	a5,80005dc0 <lfs_dir_traverse+0x98>
80005e20:	10100713          	li	a4,257
80005e24:	18e78863          	beq	a5,a4,80005fb4 <lfs_dir_traverse+0x28c>
80005e28:	10200713          	li	a4,258
80005e2c:	20e78063          	beq	a5,a4,8000602c <lfs_dir_traverse+0x304>
80005e30:	03012783          	lw	a5,48(sp)
80005e34:	0b412503          	lw	a0,180(sp)
80005e38:	00030613          	mv	a2,t1
80005e3c:	00b785b3          	add	a1,a5,a1
80005e40:	0b012783          	lw	a5,176(sp)
80005e44:	000780e7          	jalr	a5
80005e48:	f6050ce3          	beqz	a0,80005dc0 <lfs_dir_traverse+0x98>
80005e4c:	09c12083          	lw	ra,156(sp)
80005e50:	09812403          	lw	s0,152(sp)
80005e54:	09412483          	lw	s1,148(sp)
80005e58:	09012903          	lw	s2,144(sp)
80005e5c:	08c12983          	lw	s3,140(sp)
80005e60:	08812a03          	lw	s4,136(sp)
80005e64:	08412a83          	lw	s5,132(sp)
80005e68:	08012b03          	lw	s6,128(sp)
80005e6c:	07c12b83          	lw	s7,124(sp)
80005e70:	07812c03          	lw	s8,120(sp)
80005e74:	07412c83          	lw	s9,116(sp)
80005e78:	07012d03          	lw	s10,112(sp)
80005e7c:	06c12d83          	lw	s11,108(sp)
80005e80:	0a010113          	addi	sp,sp,160
80005e84:	00008067          	ret
80005e88:	000ca703          	lw	a4,0(s9)
80005e8c:	00400893          	li	a7,4
80005e90:	05410813          	addi	a6,sp,84
80005e94:	000d0793          	mv	a5,s10
80005e98:	00400693          	li	a3,4
80005e9c:	00090613          	mv	a2,s2
80005ea0:	00000593          	li	a1,0
80005ea4:	00090513          	mv	a0,s2
80005ea8:	9fcff0ef          	jal	800050a4 <lfs_bd_read>
80005eac:	fa0510e3          	bnez	a0,80005e4c <lfs_dir_traverse+0x124>
80005eb0:	05412503          	lw	a0,84(sp)
80005eb4:	000d0d93          	mv	s11,s10
80005eb8:	a65fd0ef          	jal	8000391c <__bswapsi2>
80005ebc:	000ca703          	lw	a4,0(s9)
80005ec0:	00ac45b3          	xor	a1,s8,a0
80005ec4:	800007b7          	lui	a5,0x80000
80005ec8:	00f5e5b3          	or	a1,a1,a5
80005ecc:	004d0793          	addi	a5,s10,4
80005ed0:	04b12a23          	sw	a1,84(sp)
80005ed4:	04e12c23          	sw	a4,88(sp)
80005ed8:	04f12e23          	sw	a5,92(sp)
80005edc:	00058c13          	mv	s8,a1
80005ee0:	05810313          	addi	t1,sp,88
80005ee4:	f1dff06f          	j	80005e00 <lfs_dir_traverse+0xd8>
80005ee8:	020b9a63          	bnez	s7,80005f1c <lfs_dir_traverse+0x1f4>
80005eec:	03c92583          	lw	a1,60(s2)
80005ef0:	0145d793          	srli	a5,a1,0x14
80005ef4:	7007f793          	andi	a5,a5,1792
80005ef8:	02078263          	beqz	a5,80005f1c <lfs_dir_traverse+0x1f4>
80005efc:	04092783          	lw	a5,64(s2)
80005f00:	000ca703          	lw	a4,0(s9)
80005f04:	02e78063          	beq	a5,a4,80005f24 <lfs_dir_traverse+0x1fc>
80005f08:	04492603          	lw	a2,68(s2)
80005f0c:	004ca683          	lw	a3,4(s9)
80005f10:	00d60a63          	beq	a2,a3,80005f24 <lfs_dir_traverse+0x1fc>
80005f14:	00d78863          	beq	a5,a3,80005f24 <lfs_dir_traverse+0x1fc>
80005f18:	00c70663          	beq	a4,a2,80005f24 <lfs_dir_traverse+0x1fc>
80005f1c:	00000513          	li	a0,0
80005f20:	f2dff06f          	j	80005e4c <lfs_dir_traverse+0x124>
80005f24:	02c12783          	lw	a5,44(sp)
80005f28:	00000313          	li	t1,0
80005f2c:	00100b93          	li	s7,1
80005f30:	00f5f5b3          	and	a1,a1,a5
80005f34:	04b12a23          	sw	a1,84(sp)
80005f38:	ec9ff06f          	j	80005e00 <lfs_dir_traverse+0xd8>
80005f3c:	05410793          	addi	a5,sp,84
80005f40:	00f12a23          	sw	a5,20(sp)
80005f44:	800057b7          	lui	a5,0x80005
80005f48:	f2c78793          	addi	a5,a5,-212 # 80004f2c <lfs_dir_traverse_filter>
80005f4c:	00f12823          	sw	a5,16(sp)
80005f50:	00012623          	sw	zero,12(sp)
80005f54:	00012423          	sw	zero,8(sp)
80005f58:	00012223          	sw	zero,4(sp)
80005f5c:	00012023          	sw	zero,0(sp)
80005f60:	00000893          	li	a7,0
80005f64:	000b8813          	mv	a6,s7
80005f68:	00048793          	mv	a5,s1
80005f6c:	00040713          	mv	a4,s0
80005f70:	000c0693          	mv	a3,s8
80005f74:	000d8613          	mv	a2,s11
80005f78:	000c8593          	mv	a1,s9
80005f7c:	00090513          	mv	a0,s2
80005f80:	02612e23          	sw	t1,60(sp)
80005f84:	da5ff0ef          	jal	80005d28 <lfs_dir_traverse>
80005f88:	ec0542e3          	bltz	a0,80005e4c <lfs_dir_traverse+0x124>
80005f8c:	e2051ae3          	bnez	a0,80005dc0 <lfs_dir_traverse+0x98>
80005f90:	05412583          	lw	a1,84(sp)
80005f94:	03412703          	lw	a4,52(sp)
80005f98:	00a5d793          	srli	a5,a1,0xa
80005f9c:	3ff7f793          	andi	a5,a5,1023
80005fa0:	e2e7e0e3          	bltu	a5,a4,80005dc0 <lfs_dir_traverse+0x98>
80005fa4:	03812703          	lw	a4,56(sp)
80005fa8:	03c12303          	lw	t1,60(sp)
80005fac:	e6e7e4e3          	bltu	a5,a4,80005e14 <lfs_dir_traverse+0xec>
80005fb0:	e11ff06f          	j	80005dc0 <lfs_dir_traverse+0x98>
80005fb4:	04012703          	lw	a4,64(sp)
80005fb8:	00a5d793          	srli	a5,a1,0xa
80005fbc:	0b412683          	lw	a3,180(sp)
80005fc0:	3ff5f593          	andi	a1,a1,1023
80005fc4:	3ff7f793          	andi	a5,a5,1023
80005fc8:	40b787b3          	sub	a5,a5,a1
80005fcc:	00e787b3          	add	a5,a5,a4
80005fd0:	01079793          	slli	a5,a5,0x10
80005fd4:	00d12a23          	sw	a3,20(sp)
80005fd8:	0b012683          	lw	a3,176(sp)
80005fdc:	4107d793          	srai	a5,a5,0x10
80005fe0:	00158713          	addi	a4,a1,1
80005fe4:	601008b7          	lui	a7,0x60100
80005fe8:	00f12623          	sw	a5,12(sp)
80005fec:	200007b7          	lui	a5,0x20000
80005ff0:	00d12823          	sw	a3,16(sp)
80005ff4:	00e12423          	sw	a4,8(sp)
80005ff8:	00b12223          	sw	a1,4(sp)
80005ffc:	00f12023          	sw	a5,0(sp)
80006000:	c0088893          	addi	a7,a7,-1024 # 600ffc00 <__stack_size+0x600fdc00>
80006004:	00100813          	li	a6,1
80006008:	00000793          	li	a5,0
8000600c:	00000713          	li	a4,0
80006010:	fff00693          	li	a3,-1
80006014:	00000613          	li	a2,0
80006018:	00030593          	mv	a1,t1
8000601c:	00090513          	mv	a0,s2
80006020:	d09ff0ef          	jal	80005d28 <lfs_dir_traverse>
80006024:	d8050ee3          	beqz	a0,80005dc0 <lfs_dir_traverse+0x98>
80006028:	e25ff06f          	j	80005e4c <lfs_dir_traverse+0x124>
8000602c:	3ff5f793          	andi	a5,a1,1023
80006030:	d80788e3          	beqz	a5,80005dc0 <lfs_dir_traverse+0x98>
80006034:	03612e23          	sw	s6,60(sp)
80006038:	05212223          	sw	s2,68(sp)
8000603c:	04812423          	sw	s0,72(sp)
80006040:	04912623          	sw	s1,76(sp)
80006044:	000d0413          	mv	s0,s10
80006048:	04012b03          	lw	s6,64(sp)
8000604c:	0b012d03          	lw	s10,176(sp)
80006050:	0b412903          	lw	s2,180(sp)
80006054:	00030493          	mv	s1,t1
80006058:	0140006f          	j	8000606c <lfs_dir_traverse+0x344>
8000605c:	05412583          	lw	a1,84(sp)
80006060:	00c48493          	addi	s1,s1,12
80006064:	3ff5f793          	andi	a5,a1,1023
80006068:	04f47263          	bgeu	s0,a5,800060ac <lfs_dir_traverse+0x384>
8000606c:	0004c783          	lbu	a5,0(s1)
80006070:	0084a683          	lw	a3,8(s1)
80006074:	00a5d593          	srli	a1,a1,0xa
80006078:	30078793          	addi	a5,a5,768 # 20000300 <__stack_size+0x1fffe300>
8000607c:	3ff5f593          	andi	a1,a1,1023
80006080:	0044a603          	lw	a2,4(s1)
80006084:	01479793          	slli	a5,a5,0x14
80006088:	016585b3          	add	a1,a1,s6
8000608c:	00d7e7b3          	or	a5,a5,a3
80006090:	00a59593          	slli	a1,a1,0xa
80006094:	00b7e5b3          	or	a1,a5,a1
80006098:	00090513          	mv	a0,s2
8000609c:	000d00e7          	jalr	s10
800060a0:	00140413          	addi	s0,s0,1
800060a4:	fa050ce3          	beqz	a0,8000605c <lfs_dir_traverse+0x334>
800060a8:	da5ff06f          	j	80005e4c <lfs_dir_traverse+0x124>
800060ac:	03c12b03          	lw	s6,60(sp)
800060b0:	04412903          	lw	s2,68(sp)
800060b4:	04812403          	lw	s0,72(sp)
800060b8:	04c12483          	lw	s1,76(sp)
800060bc:	d05ff06f          	j	80005dc0 <lfs_dir_traverse+0x98>

800060c0 <lfs_dir_getslice>:
800060c0:	fa010113          	addi	sp,sp,-96
800060c4:	05312623          	sw	s3,76(sp)
800060c8:	00058993          	mv	s3,a1
800060cc:	03052583          	lw	a1,48(a0)
800060d0:	03a12823          	sw	s10,48(sp)
800060d4:	0109ad03          	lw	s10,16(s3)
800060d8:	04912a23          	sw	s1,84(sp)
800060dc:	00050493          	mv	s1,a0
800060e0:	0145d513          	srli	a0,a1,0x14
800060e4:	05212823          	sw	s2,80(sp)
800060e8:	05412423          	sw	s4,72(sp)
800060ec:	05512223          	sw	s5,68(sp)
800060f0:	03912a23          	sw	s9,52(sp)
800060f4:	03b12623          	sw	s11,44(sp)
800060f8:	04112e23          	sw	ra,92(sp)
800060fc:	04812c23          	sw	s0,88(sp)
80006100:	05612023          	sw	s6,64(sp)
80006104:	03712e23          	sw	s7,60(sp)
80006108:	03812c23          	sw	s8,56(sp)
8000610c:	01a12e23          	sw	s10,28(sp)
80006110:	70057513          	andi	a0,a0,1792
80006114:	00e12623          	sw	a4,12(sp)
80006118:	01012423          	sw	a6,8(sp)
8000611c:	00c9ac83          	lw	s9,12(s3)
80006120:	00060a93          	mv	s5,a2
80006124:	00068a13          	mv	s4,a3
80006128:	00078d93          	mv	s11,a5
8000612c:	00000913          	li	s2,0
80006130:	04050063          	beqz	a0,80006170 <lfs_dir_getslice+0xb0>
80006134:	0344a703          	lw	a4,52(s1)
80006138:	0009a683          	lw	a3,0(s3)
8000613c:	00d70c63          	beq	a4,a3,80006154 <lfs_dir_getslice+0x94>
80006140:	0384a503          	lw	a0,56(s1)
80006144:	0049a603          	lw	a2,4(s3)
80006148:	00c50663          	beq	a0,a2,80006154 <lfs_dir_getslice+0x94>
8000614c:	00c70463          	beq	a4,a2,80006154 <lfs_dir_getslice+0x94>
80006150:	02a69063          	bne	a3,a0,80006170 <lfs_dir_getslice+0xb0>
80006154:	00aa5913          	srli	s2,s4,0xa
80006158:	00a5d593          	srli	a1,a1,0xa
8000615c:	3ff97913          	andi	s2,s2,1023
80006160:	3ff5f593          	andi	a1,a1,1023
80006164:	0125b933          	sltu	s2,a1,s2
80006168:	fff90913          	addi	s2,s2,-1
8000616c:	c0097913          	andi	s2,s2,-1024
80006170:	00aadb93          	srli	s7,s5,0xa
80006174:	80000b37          	lui	s6,0x80000
80006178:	3ffbfb93          	andi	s7,s7,1023
8000617c:	fffb0b13          	addi	s6,s6,-1 # 7fffffff <__stack_size+0x7fffdfff>
80006180:	40000c13          	li	s8,1024
80006184:	0140006f          	j	80006198 <lfs_dir_getslice+0xd8>
80006188:	00dd46b3          	xor	a3,s10,a3
8000618c:	0156f6b3          	and	a3,a3,s5
80006190:	0c068663          	beqz	a3,8000625c <lfs_dir_getslice+0x19c>
80006194:	00070d13          	mv	s10,a4
80006198:	016d1413          	slli	s0,s10,0x16
8000619c:	41645413          	srai	s0,s0,0x16
800061a0:	00140313          	addi	t1,s0,1
800061a4:	00133313          	seqz	t1,t1
800061a8:	01a30333          	add	t1,t1,s10
800061ac:	3ff37313          	andi	t1,t1,1023
800061b0:	00830713          	addi	a4,t1,8
800061b4:	ffcc8e93          	addi	t4,s9,-4
800061b8:	00400893          	li	a7,4
800061bc:	01c10813          	addi	a6,sp,28
800061c0:	00400693          	li	a3,4
800061c4:	00048613          	mv	a2,s1
800061c8:	00000593          	li	a1,0
800061cc:	00048513          	mv	a0,s1
800061d0:	10ece663          	bltu	s9,a4,800062dc <lfs_dir_getslice+0x21c>
800061d4:	0009a703          	lw	a4,0(s3)
800061d8:	406e8cb3          	sub	s9,t4,t1
800061dc:	000c8793          	mv	a5,s9
800061e0:	ec5fe0ef          	jal	800050a4 <lfs_bd_read>
800061e4:	0a051e63          	bnez	a0,800062a0 <lfs_dir_getslice+0x1e0>
800061e8:	01c12503          	lw	a0,28(sp)
800061ec:	f30fd0ef          	jal	8000391c <__bswapsi2>
800061f0:	01a54733          	xor	a4,a0,s10
800061f4:	01677733          	and	a4,a4,s6
800061f8:	014d5613          	srli	a2,s10,0x14
800061fc:	00e12e23          	sw	a4,28(sp)
80006200:	70067593          	andi	a1,a2,1792
80006204:	412a06b3          	sub	a3,s4,s2
80006208:	f80b80e3          	beqz	s7,80006188 <lfs_dir_getslice+0xc8>
8000620c:	f7859ee3          	bne	a1,s8,80006188 <lfs_dir_getslice+0xc8>
80006210:	001005b7          	lui	a1,0x100
80006214:	c0058593          	addi	a1,a1,-1024 # ffc00 <__stack_size+0xfdc00>
80006218:	01861613          	slli	a2,a2,0x18
8000621c:	00a6d813          	srli	a6,a3,0xa
80006220:	00ad5513          	srli	a0,s10,0xa
80006224:	41865613          	srai	a2,a2,0x18
80006228:	00b6f5b3          	and	a1,a3,a1
8000622c:	401008b7          	lui	a7,0x40100
80006230:	3ff87813          	andi	a6,a6,1023
80006234:	3ff57513          	andi	a0,a0,1023
80006238:	00a61613          	slli	a2,a2,0xa
8000623c:	0115e5b3          	or	a1,a1,a7
80006240:	f4a864e3          	bltu	a6,a0,80006188 <lfs_dir_getslice+0xc8>
80006244:	00c90933          	add	s2,s2,a2
80006248:	09a58a63          	beq	a1,s10,800062dc <lfs_dir_getslice+0x21c>
8000624c:	412a06b3          	sub	a3,s4,s2
80006250:	00dd46b3          	xor	a3,s10,a3
80006254:	0156f6b3          	and	a3,a3,s5
80006258:	f2069ee3          	bnez	a3,80006194 <lfs_dir_getslice+0xd4>
8000625c:	fff00713          	li	a4,-1
80006260:	06e40e63          	beq	s0,a4,800062dc <lfs_dir_getslice+0x21c>
80006264:	00812783          	lw	a5,8(sp)
80006268:	3ffd7413          	andi	s0,s10,1023
8000626c:	0687ec63          	bltu	a5,s0,800062e4 <lfs_dir_getslice+0x224>
80006270:	00c12783          	lw	a5,12(sp)
80006274:	0009a703          	lw	a4,0(s3)
80006278:	00040893          	mv	a7,s0
8000627c:	00478793          	addi	a5,a5,4
80006280:	000d8813          	mv	a6,s11
80006284:	019787b3          	add	a5,a5,s9
80006288:	00040693          	mv	a3,s0
8000628c:	00048613          	mv	a2,s1
80006290:	00000593          	li	a1,0
80006294:	00048513          	mv	a0,s1
80006298:	e0dfe0ef          	jal	800050a4 <lfs_bd_read>
8000629c:	04050863          	beqz	a0,800062ec <lfs_dir_getslice+0x22c>
800062a0:	05c12083          	lw	ra,92(sp)
800062a4:	05812403          	lw	s0,88(sp)
800062a8:	05412483          	lw	s1,84(sp)
800062ac:	05012903          	lw	s2,80(sp)
800062b0:	04c12983          	lw	s3,76(sp)
800062b4:	04812a03          	lw	s4,72(sp)
800062b8:	04412a83          	lw	s5,68(sp)
800062bc:	04012b03          	lw	s6,64(sp)
800062c0:	03c12b83          	lw	s7,60(sp)
800062c4:	03812c03          	lw	s8,56(sp)
800062c8:	03412c83          	lw	s9,52(sp)
800062cc:	03012d03          	lw	s10,48(sp)
800062d0:	02c12d83          	lw	s11,44(sp)
800062d4:	06010113          	addi	sp,sp,96
800062d8:	00008067          	ret
800062dc:	ffe00513          	li	a0,-2
800062e0:	fc1ff06f          	j	800062a0 <lfs_dir_getslice+0x1e0>
800062e4:	00078413          	mv	s0,a5
800062e8:	f89ff06f          	j	80006270 <lfs_dir_getslice+0x1b0>
800062ec:	00812783          	lw	a5,8(sp)
800062f0:	008d8533          	add	a0,s11,s0
800062f4:	00000593          	li	a1,0
800062f8:	40878633          	sub	a2,a5,s0
800062fc:	ba5fc0ef          	jal	80002ea0 <memset>
80006300:	012d0533          	add	a0,s10,s2
80006304:	f9dff06f          	j	800062a0 <lfs_dir_getslice+0x1e0>

80006308 <lfs_dir_getgstate>:
80006308:	fe010113          	addi	sp,sp,-32
8000630c:	7ff006b7          	lui	a3,0x7ff00
80006310:	00812c23          	sw	s0,24(sp)
80006314:	00c00813          	li	a6,12
80006318:	00060413          	mv	s0,a2
8000631c:	00410793          	addi	a5,sp,4
80006320:	00000713          	li	a4,0
80006324:	00c68693          	addi	a3,a3,12 # 7ff0000c <__stack_size+0x7fefe00c>
80006328:	7ff00637          	lui	a2,0x7ff00
8000632c:	00112e23          	sw	ra,28(sp)
80006330:	d91ff0ef          	jal	800060c0 <lfs_dir_getslice>
80006334:	00055e63          	bgez	a0,80006350 <lfs_dir_getgstate+0x48>
80006338:	ffe00793          	li	a5,-2
8000633c:	02f50e63          	beq	a0,a5,80006378 <lfs_dir_getgstate+0x70>
80006340:	01c12083          	lw	ra,28(sp)
80006344:	01812403          	lw	s0,24(sp)
80006348:	02010113          	addi	sp,sp,32
8000634c:	00008067          	ret
80006350:	00040613          	mv	a2,s0
80006354:	00410793          	addi	a5,sp,4
80006358:	00c40593          	addi	a1,s0,12
8000635c:	00062703          	lw	a4,0(a2) # 7ff00000 <__stack_size+0x7fefe000>
80006360:	0007a683          	lw	a3,0(a5)
80006364:	00460613          	addi	a2,a2,4
80006368:	00478793          	addi	a5,a5,4
8000636c:	00d74733          	xor	a4,a4,a3
80006370:	fee62e23          	sw	a4,-4(a2)
80006374:	feb614e3          	bne	a2,a1,8000635c <lfs_dir_getgstate+0x54>
80006378:	01c12083          	lw	ra,28(sp)
8000637c:	01812403          	lw	s0,24(sp)
80006380:	00000513          	li	a0,0
80006384:	02010113          	addi	sp,sp,32
80006388:	00008067          	ret

8000638c <lfs_dir_getinfo>:
8000638c:	fd010113          	addi	sp,sp,-48
80006390:	02912223          	sw	s1,36(sp)
80006394:	02112623          	sw	ra,44(sp)
80006398:	3ff00793          	li	a5,1023
8000639c:	00068493          	mv	s1,a3
800063a0:	0cf60663          	beq	a2,a5,8000646c <lfs_dir_getinfo+0xe0>
800063a4:	06c52683          	lw	a3,108(a0)
800063a8:	02812423          	sw	s0,40(sp)
800063ac:	00a61413          	slli	s0,a2,0xa
800063b0:	00168693          	addi	a3,a3,1
800063b4:	78100637          	lui	a2,0x78100
800063b8:	3ff6f813          	andi	a6,a3,1023
800063bc:	00848793          	addi	a5,s1,8
800063c0:	00000713          	li	a4,0
800063c4:	0086e6b3          	or	a3,a3,s0
800063c8:	c0060613          	addi	a2,a2,-1024 # 780ffc00 <__stack_size+0x780fdc00>
800063cc:	03212023          	sw	s2,32(sp)
800063d0:	01312e23          	sw	s3,28(sp)
800063d4:	00050913          	mv	s2,a0
800063d8:	00058993          	mv	s3,a1
800063dc:	ce5ff0ef          	jal	800060c0 <lfs_dir_getslice>
800063e0:	06054863          	bltz	a0,80006450 <lfs_dir_getinfo+0xc4>
800063e4:	200006b7          	lui	a3,0x20000
800063e8:	01455793          	srli	a5,a0,0x14
800063ec:	00868693          	addi	a3,a3,8 # 20000008 <__stack_size+0x1fffe008>
800063f0:	70100637          	lui	a2,0x70100
800063f4:	00f48023          	sb	a5,0(s1)
800063f8:	00800813          	li	a6,8
800063fc:	00810793          	addi	a5,sp,8
80006400:	00000713          	li	a4,0
80006404:	00d466b3          	or	a3,s0,a3
80006408:	c0060613          	addi	a2,a2,-1024 # 700ffc00 <__stack_size+0x700fdc00>
8000640c:	00098593          	mv	a1,s3
80006410:	00090513          	mv	a0,s2
80006414:	cadff0ef          	jal	800060c0 <lfs_dir_getslice>
80006418:	02054c63          	bltz	a0,80006450 <lfs_dir_getinfo+0xc4>
8000641c:	01455793          	srli	a5,a0,0x14
80006420:	20200713          	li	a4,514
80006424:	08e78263          	beq	a5,a4,800064a8 <lfs_dir_getinfo+0x11c>
80006428:	20100713          	li	a4,513
8000642c:	06e78063          	beq	a5,a4,8000648c <lfs_dir_getinfo+0x100>
80006430:	02812403          	lw	s0,40(sp)
80006434:	02012903          	lw	s2,32(sp)
80006438:	01c12983          	lw	s3,28(sp)
8000643c:	00000513          	li	a0,0
80006440:	02c12083          	lw	ra,44(sp)
80006444:	02412483          	lw	s1,36(sp)
80006448:	03010113          	addi	sp,sp,48
8000644c:	00008067          	ret
80006450:	02812403          	lw	s0,40(sp)
80006454:	02c12083          	lw	ra,44(sp)
80006458:	02012903          	lw	s2,32(sp)
8000645c:	01c12983          	lw	s3,28(sp)
80006460:	02412483          	lw	s1,36(sp)
80006464:	03010113          	addi	sp,sp,48
80006468:	00008067          	ret
8000646c:	800105b7          	lui	a1,0x80010
80006470:	f4c58593          	addi	a1,a1,-180 # 8000ff4c <_ctype_+0xe0>
80006474:	00868513          	addi	a0,a3,8
80006478:	d31fc0ef          	jal	800031a8 <strcpy>
8000647c:	00200793          	li	a5,2
80006480:	00f48023          	sb	a5,0(s1)
80006484:	00000513          	li	a0,0
80006488:	fb9ff06f          	j	80006440 <lfs_dir_getinfo+0xb4>
8000648c:	3ff57513          	andi	a0,a0,1023
80006490:	00a4a223          	sw	a0,4(s1)
80006494:	02812403          	lw	s0,40(sp)
80006498:	02012903          	lw	s2,32(sp)
8000649c:	01c12983          	lw	s3,28(sp)
800064a0:	00000513          	li	a0,0
800064a4:	f9dff06f          	j	80006440 <lfs_dir_getinfo+0xb4>
800064a8:	00c12783          	lw	a5,12(sp)
800064ac:	02812403          	lw	s0,40(sp)
800064b0:	02012903          	lw	s2,32(sp)
800064b4:	01c12983          	lw	s3,28(sp)
800064b8:	00f4a223          	sw	a5,4(s1)
800064bc:	00000513          	li	a0,0
800064c0:	f81ff06f          	j	80006440 <lfs_dir_getinfo+0xb4>

800064c4 <lfs_dir_getread.part.0.constprop.0>:
800064c4:	fd010113          	addi	sp,sp,-48
800064c8:	02812423          	sw	s0,40(sp)
800064cc:	02912223          	sw	s1,36(sp)
800064d0:	03212023          	sw	s2,32(sp)
800064d4:	01312e23          	sw	s3,28(sp)
800064d8:	01412c23          	sw	s4,24(sp)
800064dc:	01512a23          	sw	s5,20(sp)
800064e0:	01612823          	sw	s6,16(sp)
800064e4:	01712623          	sw	s7,12(sp)
800064e8:	01812423          	sw	s8,8(sp)
800064ec:	01912223          	sw	s9,4(sp)
800064f0:	fff809b7          	lui	s3,0xfff80
800064f4:	02112623          	sw	ra,44(sp)
800064f8:	00088b13          	mv	s6,a7
800064fc:	00050493          	mv	s1,a0
80006500:	00058a93          	mv	s5,a1
80006504:	00060413          	mv	s0,a2
80006508:	00070a13          	mv	s4,a4
8000650c:	00078c13          	mv	s8,a5
80006510:	00080b93          	mv	s7,a6
80006514:	ffe00c93          	li	s9,-2
80006518:	fff68913          	addi	s2,a3,-1
8000651c:	c0098993          	addi	s3,s3,-1024 # fff7fc00 <fs+0x7ff02c00>
80006520:	0c088a63          	beqz	a7,800065f4 <lfs_dir_getread.part.0.constprop.0+0x130>
80006524:	00042703          	lw	a4,0(s0)
80006528:	00c42783          	lw	a5,12(s0)
8000652c:	01971c63          	bne	a4,s9,80006544 <lfs_dir_getread.part.0.constprop.0+0x80>
80006530:	00442583          	lw	a1,4(s0)
80006534:	00842603          	lw	a2,8(s0)
80006538:	00c58633          	add	a2,a1,a2
8000653c:	00cc7463          	bgeu	s8,a2,80006544 <lfs_dir_getread.part.0.constprop.0+0x80>
80006540:	08bc7463          	bgeu	s8,a1,800065c8 <lfs_dir_getread.part.0.constprop.0+0x104>
80006544:	0684a703          	lw	a4,104(s1)
80006548:	01942023          	sw	s9,0(s0)
8000654c:	01472603          	lw	a2,20(a4)
80006550:	02872683          	lw	a3,40(a4)
80006554:	00c90833          	add	a6,s2,a2
80006558:	02cc7733          	remu	a4,s8,a2
8000655c:	01880833          	add	a6,a6,s8
80006560:	02c87633          	remu	a2,a6,a2
80006564:	40ec0733          	sub	a4,s8,a4
80006568:	00e42223          	sw	a4,4(s0)
8000656c:	40c80833          	sub	a6,a6,a2
80006570:	0106f463          	bgeu	a3,a6,80006578 <lfs_dir_getread.part.0.constprop.0+0xb4>
80006574:	00068813          	mv	a6,a3
80006578:	01042423          	sw	a6,8(s0)
8000657c:	000a0693          	mv	a3,s4
80006580:	00098613          	mv	a2,s3
80006584:	000a8593          	mv	a1,s5
80006588:	00048513          	mv	a0,s1
8000658c:	b35ff0ef          	jal	800060c0 <lfs_dir_getslice>
80006590:	f8055ae3          	bgez	a0,80006524 <lfs_dir_getread.part.0.constprop.0+0x60>
80006594:	02c12083          	lw	ra,44(sp)
80006598:	02812403          	lw	s0,40(sp)
8000659c:	02412483          	lw	s1,36(sp)
800065a0:	02012903          	lw	s2,32(sp)
800065a4:	01c12983          	lw	s3,28(sp)
800065a8:	01812a03          	lw	s4,24(sp)
800065ac:	01412a83          	lw	s5,20(sp)
800065b0:	01012b03          	lw	s6,16(sp)
800065b4:	00c12b83          	lw	s7,12(sp)
800065b8:	00812c03          	lw	s8,8(sp)
800065bc:	00412c83          	lw	s9,4(sp)
800065c0:	03010113          	addi	sp,sp,48
800065c4:	00008067          	ret
800065c8:	01a12023          	sw	s10,0(sp)
800065cc:	41860d33          	sub	s10,a2,s8
800065d0:	03ab6663          	bltu	s6,s10,800065fc <lfs_dir_getread.part.0.constprop.0+0x138>
800065d4:	40bc05b3          	sub	a1,s8,a1
800065d8:	000d0613          	mv	a2,s10
800065dc:	00b785b3          	add	a1,a5,a1
800065e0:	000b8513          	mv	a0,s7
800065e4:	41ab0b33          	sub	s6,s6,s10
800065e8:	8d1fc0ef          	jal	80002eb8 <memcpy>
800065ec:	020b1863          	bnez	s6,8000661c <lfs_dir_getread.part.0.constprop.0+0x158>
800065f0:	00012d03          	lw	s10,0(sp)
800065f4:	00000513          	li	a0,0
800065f8:	f9dff06f          	j	80006594 <lfs_dir_getread.part.0.constprop.0+0xd0>
800065fc:	000b0d13          	mv	s10,s6
80006600:	40bc05b3          	sub	a1,s8,a1
80006604:	000d0613          	mv	a2,s10
80006608:	00b785b3          	add	a1,a5,a1
8000660c:	000b8513          	mv	a0,s7
80006610:	41ab0b33          	sub	s6,s6,s10
80006614:	8a5fc0ef          	jal	80002eb8 <memcpy>
80006618:	fc0b0ce3          	beqz	s6,800065f0 <lfs_dir_getread.part.0.constprop.0+0x12c>
8000661c:	01ab8bb3          	add	s7,s7,s10
80006620:	01ac0c33          	add	s8,s8,s10
80006624:	00012d03          	lw	s10,0(sp)
80006628:	efdff06f          	j	80006524 <lfs_dir_getread.part.0.constprop.0+0x60>

8000662c <lfs_ctz_traverse.part.0>:
8000662c:	fc010113          	addi	sp,sp,-64
80006630:	03412423          	sw	s4,40(sp)
80006634:	00050a13          	mv	s4,a0
80006638:	06852503          	lw	a0,104(a0)
8000663c:	01712e23          	sw	s7,28(sp)
80006640:	02812c23          	sw	s0,56(sp)
80006644:	01c52b83          	lw	s7,28(a0)
80006648:	02912a23          	sw	s1,52(sp)
8000664c:	03212823          	sw	s2,48(sp)
80006650:	03312623          	sw	s3,44(sp)
80006654:	03512223          	sw	s5,36(sp)
80006658:	03612023          	sw	s6,32(sp)
8000665c:	01812c23          	sw	s8,24(sp)
80006660:	02112e23          	sw	ra,60(sp)
80006664:	fff70993          	addi	s3,a4,-1
80006668:	ff8b8b93          	addi	s7,s7,-8
8000666c:	00058a93          	mv	s5,a1
80006670:	00060b13          	mv	s6,a2
80006674:	00068c13          	mv	s8,a3
80006678:	00078413          	mv	s0,a5
8000667c:	00080913          	mv	s2,a6
80006680:	00000493          	li	s1,0
80006684:	0379e063          	bltu	s3,s7,800066a4 <lfs_ctz_traverse.part.0+0x78>
80006688:	0379d533          	divu	a0,s3,s7
8000668c:	fff50513          	addi	a0,a0,-1
80006690:	f68fe0ef          	jal	80004df8 <__popcountsi2>
80006694:	00250793          	addi	a5,a0,2
80006698:	00279793          	slli	a5,a5,0x2
8000669c:	40f989b3          	sub	s3,s3,a5
800066a0:	0379d4b3          	divu	s1,s3,s7
800066a4:	00200b93          	li	s7,2
800066a8:	000c0593          	mv	a1,s8
800066ac:	00090513          	mv	a0,s2
800066b0:	000400e7          	jalr	s0
800066b4:	0014f993          	andi	s3,s1,1
800066b8:	413b88b3          	sub	a7,s7,s3
800066bc:	00050313          	mv	t1,a0
800066c0:	00289893          	slli	a7,a7,0x2
800066c4:	00810813          	addi	a6,sp,8
800066c8:	00000793          	li	a5,0
800066cc:	000c0713          	mv	a4,s8
800066d0:	00088693          	mv	a3,a7
800066d4:	000b0613          	mv	a2,s6
800066d8:	000a8593          	mv	a1,s5
800066dc:	000a0513          	mv	a0,s4
800066e0:	04031663          	bnez	t1,8000672c <lfs_ctz_traverse.part.0+0x100>
800066e4:	04048463          	beqz	s1,8000672c <lfs_ctz_traverse.part.0+0x100>
800066e8:	9bdfe0ef          	jal	800050a4 <lfs_bd_read>
800066ec:	00050313          	mv	t1,a0
800066f0:	00090513          	mv	a0,s2
800066f4:	02031c63          	bnez	t1,8000672c <lfs_ctz_traverse.part.0+0x100>
800066f8:	00812583          	lw	a1,8(sp)
800066fc:	00099a63          	bnez	s3,80006710 <lfs_ctz_traverse.part.0+0xe4>
80006700:	000400e7          	jalr	s0
80006704:	00050313          	mv	t1,a0
80006708:	02051263          	bnez	a0,8000672c <lfs_ctz_traverse.part.0+0x100>
8000670c:	00100313          	li	t1,1
80006710:	00231313          	slli	t1,t1,0x2
80006714:	01030793          	addi	a5,t1,16
80006718:	00278333          	add	t1,a5,sp
8000671c:	ffe48493          	addi	s1,s1,-2
80006720:	ff832c03          	lw	s8,-8(t1)
80006724:	009984b3          	add	s1,s3,s1
80006728:	f81ff06f          	j	800066a8 <lfs_ctz_traverse.part.0+0x7c>
8000672c:	03c12083          	lw	ra,60(sp)
80006730:	03812403          	lw	s0,56(sp)
80006734:	03412483          	lw	s1,52(sp)
80006738:	03012903          	lw	s2,48(sp)
8000673c:	02c12983          	lw	s3,44(sp)
80006740:	02812a03          	lw	s4,40(sp)
80006744:	02412a83          	lw	s5,36(sp)
80006748:	02012b03          	lw	s6,32(sp)
8000674c:	01c12b83          	lw	s7,28(sp)
80006750:	01812c03          	lw	s8,24(sp)
80006754:	00030513          	mv	a0,t1
80006758:	04010113          	addi	sp,sp,64
8000675c:	00008067          	ret

80006760 <lfs_ctz_find.constprop.0>:
80006760:	fc010113          	addi	sp,sp,-64
80006764:	03312623          	sw	s3,44(sp)
80006768:	01812c23          	sw	s8,24(sp)
8000676c:	01912a23          	sw	s9,20(sp)
80006770:	02112e23          	sw	ra,60(sp)
80006774:	00c12623          	sw	a2,12(sp)
80006778:	00078c93          	mv	s9,a5
8000677c:	00068993          	mv	s3,a3
80006780:	00080c13          	mv	s8,a6
80006784:	fff00793          	li	a5,-1
80006788:	02069463          	bnez	a3,800067b0 <lfs_ctz_find.constprop.0+0x50>
8000678c:	03c12083          	lw	ra,60(sp)
80006790:	00fca023          	sw	a5,0(s9)
80006794:	013c2023          	sw	s3,0(s8)
80006798:	01412c83          	lw	s9,20(sp)
8000679c:	02c12983          	lw	s3,44(sp)
800067a0:	01812c03          	lw	s8,24(sp)
800067a4:	00000513          	li	a0,0
800067a8:	04010113          	addi	sp,sp,64
800067ac:	00008067          	ret
800067b0:	06852783          	lw	a5,104(a0)
800067b4:	02812c23          	sw	s0,56(sp)
800067b8:	03412423          	sw	s4,40(sp)
800067bc:	01c7a403          	lw	s0,28(a5)
800067c0:	03512223          	sw	s5,36(sp)
800067c4:	03612023          	sw	s6,32(sp)
800067c8:	02912a23          	sw	s1,52(sp)
800067cc:	03212823          	sw	s2,48(sp)
800067d0:	fff68993          	addi	s3,a3,-1
800067d4:	ff840413          	addi	s0,s0,-8
800067d8:	00050a13          	mv	s4,a0
800067dc:	00058a93          	mv	s5,a1
800067e0:	00070b13          	mv	s6,a4
800067e4:	1089ee63          	bltu	s3,s0,80006900 <lfs_ctz_find.constprop.0+0x1a0>
800067e8:	0289d533          	divu	a0,s3,s0
800067ec:	fff50513          	addi	a0,a0,-1
800067f0:	e08fe0ef          	jal	80004df8 <__popcountsi2>
800067f4:	00250513          	addi	a0,a0,2
800067f8:	00251513          	slli	a0,a0,0x2
800067fc:	40a989b3          	sub	s3,s3,a0
80006800:	0289d4b3          	divu	s1,s3,s0
80006804:	108b6663          	bltu	s6,s0,80006910 <lfs_ctz_find.constprop.0+0x1b0>
80006808:	028b5533          	divu	a0,s6,s0
8000680c:	fff50513          	addi	a0,a0,-1
80006810:	de8fe0ef          	jal	80004df8 <__popcountsi2>
80006814:	00250913          	addi	s2,a0,2
80006818:	00291913          	slli	s2,s2,0x2
8000681c:	412b0933          	sub	s2,s6,s2
80006820:	02895933          	divu	s2,s2,s0
80006824:	02890433          	mul	s0,s2,s0
80006828:	00090513          	mv	a0,s2
8000682c:	dccfe0ef          	jal	80004df8 <__popcountsi2>
80006830:	00251993          	slli	s3,a0,0x2
80006834:	413b09b3          	sub	s3,s6,s3
80006838:	408989b3          	sub	s3,s3,s0
8000683c:	0a997263          	bgeu	s2,s1,800068e0 <lfs_ctz_find.constprop.0+0x180>
80006840:	01712e23          	sw	s7,28(sp)
80006844:	00100b13          	li	s6,1
80006848:	01f00b93          	li	s7,31
8000684c:	0080006f          	j	80006854 <lfs_ctz_find.constprop.0+0xf4>
80006850:	08997663          	bgeu	s2,s1,800068dc <lfs_ctz_find.constprop.0+0x17c>
80006854:	41248533          	sub	a0,s1,s2
80006858:	8fcfd0ef          	jal	80003954 <__clzsi2>
8000685c:	00050413          	mv	s0,a0
80006860:	00048513          	mv	a0,s1
80006864:	954fd0ef          	jal	800039b8 <__ctzsi2>
80006868:	00050793          	mv	a5,a0
8000686c:	408b8433          	sub	s0,s7,s0
80006870:	00400893          	li	a7,4
80006874:	00c10813          	addi	a6,sp,12
80006878:	00400693          	li	a3,4
8000687c:	000a8613          	mv	a2,s5
80006880:	00000593          	li	a1,0
80006884:	000a0513          	mv	a0,s4
80006888:	0087f463          	bgeu	a5,s0,80006890 <lfs_ctz_find.constprop.0+0x130>
8000688c:	00078413          	mv	s0,a5
80006890:	00c12703          	lw	a4,12(sp)
80006894:	00241793          	slli	a5,s0,0x2
80006898:	008b1433          	sll	s0,s6,s0
8000689c:	809fe0ef          	jal	800050a4 <lfs_bd_read>
800068a0:	408484b3          	sub	s1,s1,s0
800068a4:	fa0506e3          	beqz	a0,80006850 <lfs_ctz_find.constprop.0+0xf0>
800068a8:	03812403          	lw	s0,56(sp)
800068ac:	03c12083          	lw	ra,60(sp)
800068b0:	03412483          	lw	s1,52(sp)
800068b4:	03012903          	lw	s2,48(sp)
800068b8:	02812a03          	lw	s4,40(sp)
800068bc:	02412a83          	lw	s5,36(sp)
800068c0:	02012b03          	lw	s6,32(sp)
800068c4:	01c12b83          	lw	s7,28(sp)
800068c8:	02c12983          	lw	s3,44(sp)
800068cc:	01812c03          	lw	s8,24(sp)
800068d0:	01412c83          	lw	s9,20(sp)
800068d4:	04010113          	addi	sp,sp,64
800068d8:	00008067          	ret
800068dc:	01c12b83          	lw	s7,28(sp)
800068e0:	00c12783          	lw	a5,12(sp)
800068e4:	03812403          	lw	s0,56(sp)
800068e8:	03412483          	lw	s1,52(sp)
800068ec:	03012903          	lw	s2,48(sp)
800068f0:	02812a03          	lw	s4,40(sp)
800068f4:	02412a83          	lw	s5,36(sp)
800068f8:	02012b03          	lw	s6,32(sp)
800068fc:	e91ff06f          	j	8000678c <lfs_ctz_find.constprop.0+0x2c>
80006900:	00000493          	li	s1,0
80006904:	f08772e3          	bgeu	a4,s0,80006808 <lfs_ctz_find.constprop.0+0xa8>
80006908:	00070993          	mv	s3,a4
8000690c:	fd5ff06f          	j	800068e0 <lfs_ctz_find.constprop.0+0x180>
80006910:	000b0993          	mv	s3,s6
80006914:	00000913          	li	s2,0
80006918:	f25ff06f          	j	8000683c <lfs_ctz_find.constprop.0+0xdc>

8000691c <lfs_dir_fetchmatch>:
8000691c:	f7010113          	addi	sp,sp,-144
80006920:	07612823          	sw	s6,112(sp)
80006924:	00070b13          	mv	s6,a4
80006928:	00062703          	lw	a4,0(a2)
8000692c:	08812423          	sw	s0,136(sp)
80006930:	07312e23          	sw	s3,124(sp)
80006934:	05b12e23          	sw	s11,92(sp)
80006938:	00078e93          	mv	t4,a5
8000693c:	00068d93          	mv	s11,a3
80006940:	00080e13          	mv	t3,a6
80006944:	00088313          	mv	t1,a7
80006948:	00060413          	mv	s0,a2
8000694c:	00058993          	mv	s3,a1
80006950:	03810813          	addi	a6,sp,56
80006954:	00400893          	li	a7,4
80006958:	00000793          	li	a5,0
8000695c:	00400693          	li	a3,4
80006960:	00050613          	mv	a2,a0
80006964:	00000593          	li	a1,0
80006968:	08912223          	sw	s1,132(sp)
8000696c:	09212023          	sw	s2,128(sp)
80006970:	08112623          	sw	ra,140(sp)
80006974:	00050913          	mv	s2,a0
80006978:	01b12623          	sw	s11,12(sp)
8000697c:	01612823          	sw	s6,16(sp)
80006980:	000e8493          	mv	s1,t4
80006984:	03c12223          	sw	t3,36(sp)
80006988:	02612423          	sw	t1,40(sp)
8000698c:	02012c23          	sw	zero,56(sp)
80006990:	02012e23          	sw	zero,60(sp)
80006994:	f10fe0ef          	jal	800050a4 <lfs_bd_read>
80006998:	00050863          	beqz	a0,800069a8 <lfs_dir_fetchmatch+0x8c>
8000699c:	fac00793          	li	a5,-84
800069a0:	00050813          	mv	a6,a0
800069a4:	2af51a63          	bne	a0,a5,80006c58 <lfs_dir_fetchmatch+0x33c>
800069a8:	00442703          	lw	a4,4(s0)
800069ac:	03c10813          	addi	a6,sp,60
800069b0:	00400893          	li	a7,4
800069b4:	00000793          	li	a5,0
800069b8:	00400693          	li	a3,4
800069bc:	00090613          	mv	a2,s2
800069c0:	00000593          	li	a1,0
800069c4:	00090513          	mv	a0,s2
800069c8:	07412c23          	sw	s4,120(sp)
800069cc:	ed8fe0ef          	jal	800050a4 <lfs_bd_read>
800069d0:	00050813          	mv	a6,a0
800069d4:	03c12a03          	lw	s4,60(sp)
800069d8:	2a051463          	bnez	a0,80006c80 <lfs_dir_fetchmatch+0x364>
800069dc:	03812783          	lw	a5,56(sp)
800069e0:	07512a23          	sw	s5,116(sp)
800069e4:	07712623          	sw	s7,108(sp)
800069e8:	40fa0a33          	sub	s4,s4,a5
800069ec:	07812423          	sw	s8,104(sp)
800069f0:	07912223          	sw	s9,100(sp)
800069f4:	07a12023          	sw	s10,96(sp)
800069f8:	01402a33          	sgtz	s4,s4
800069fc:	002a1793          	slli	a5,s4,0x2
80006a00:	00f40733          	add	a4,s0,a5
80006a04:	00072703          	lw	a4,0(a4)
80006a08:	001a4a13          	xori	s4,s4,1
80006a0c:	02078793          	addi	a5,a5,32
80006a10:	00e9a023          	sw	a4,0(s3)
80006a14:	03010713          	addi	a4,sp,48
80006a18:	002a1a13          	slli	s4,s4,0x2
80006a1c:	00e787b3          	add	a5,a5,a4
80006a20:	fe87a783          	lw	a5,-24(a5)
80006a24:	01440433          	add	s0,s0,s4
80006a28:	00042703          	lw	a4,0(s0)
80006a2c:	00f9a423          	sw	a5,8(s3)
80006a30:	00898793          	addi	a5,s3,8
80006a34:	00e9a223          	sw	a4,4(s3)
80006a38:	00f12c23          	sw	a5,24(sp)
80006a3c:	03010713          	addi	a4,sp,48
80006a40:	020a0793          	addi	a5,s4,32 # 7ff00020 <__stack_size+0x7fefe020>
80006a44:	fff00813          	li	a6,-1
80006a48:	00e78a33          	add	s4,a5,a4
80006a4c:	0009a623          	sw	zero,12(s3)
80006a50:	00200d13          	li	s10,2
80006a54:	fff00c93          	li	s9,-1
80006a58:	50000b93          	li	s7,1280
80006a5c:	01012a23          	sw	a6,20(sp)
80006a60:	02912623          	sw	s1,44(sp)
80006a64:	01412e23          	sw	s4,28(sp)
80006a68:	01812583          	lw	a1,24(sp)
80006a6c:	00400613          	li	a2,4
80006a70:	fff00513          	li	a0,-1
80006a74:	05912023          	sw	s9,64(sp)
80006a78:	05912223          	sw	s9,68(sp)
80006a7c:	2fd040ef          	jal	8000b578 <lfs_crc>
80006a80:	0009a703          	lw	a4,0(s3)
80006a84:	01412b03          	lw	s6,20(sp)
80006a88:	00400d93          	li	s11,4
80006a8c:	00050413          	mv	s0,a0
80006a90:	02012023          	sw	zero,32(sp)
80006a94:	00000a93          	li	s5,0
80006a98:	fff00c13          	li	s8,-1
80006a9c:	000d8a13          	mv	s4,s11
80006aa0:	016c1493          	slli	s1,s8,0x16
80006aa4:	4164d493          	srai	s1,s1,0x16
80006aa8:	06892683          	lw	a3,104(s2)
80006aac:	00148493          	addi	s1,s1,1
80006ab0:	0014b493          	seqz	s1,s1
80006ab4:	018484b3          	add	s1,s1,s8
80006ab8:	3ff4f493          	andi	s1,s1,1023
80006abc:	01c6a683          	lw	a3,28(a3)
80006ac0:	014484b3          	add	s1,s1,s4
80006ac4:	00400893          	li	a7,4
80006ac8:	03410813          	addi	a6,sp,52
80006acc:	00048793          	mv	a5,s1
80006ad0:	00090613          	mv	a2,s2
80006ad4:	00000593          	li	a1,0
80006ad8:	00090513          	mv	a0,s2
80006adc:	dc8fe0ef          	jal	800050a4 <lfs_bd_read>
80006ae0:	3c051063          	bnez	a0,80006ea0 <lfs_dir_fetchmatch+0x584>
80006ae4:	00400613          	li	a2,4
80006ae8:	03410593          	addi	a1,sp,52
80006aec:	00040513          	mv	a0,s0
80006af0:	289040ef          	jal	8000b578 <lfs_crc>
80006af4:	00050413          	mv	s0,a0
80006af8:	03412503          	lw	a0,52(sp)
80006afc:	e21fc0ef          	jal	8000391c <__bswapsi2>
80006b00:	00ac4db3          	xor	s11,s8,a0
80006b04:	03b12a23          	sw	s11,52(sp)
80006b08:	360dc063          	bltz	s11,80006e68 <lfs_dir_fetchmatch+0x54c>
80006b0c:	016d9613          	slli	a2,s11,0x16
80006b10:	41665613          	srai	a2,a2,0x16
80006b14:	06892783          	lw	a5,104(s2)
80006b18:	00160613          	addi	a2,a2,1
80006b1c:	00163613          	seqz	a2,a2
80006b20:	01b60633          	add	a2,a2,s11
80006b24:	01c7a683          	lw	a3,28(a5)
80006b28:	3ff67613          	andi	a2,a2,1023
80006b2c:	00460613          	addi	a2,a2,4
80006b30:	00c487b3          	add	a5,s1,a2
80006b34:	32f6ea63          	bltu	a3,a5,80006e68 <lfs_dir_fetchmatch+0x54c>
80006b38:	014dd313          	srli	t1,s11,0x14
80006b3c:	70037513          	andi	a0,t1,1792
80006b40:	0009a703          	lw	a4,0(s3)
80006b44:	00448a13          	addi	s4,s1,4
80006b48:	15750e63          	beq	a0,s7,80006ca4 <lfs_dir_fetchmatch+0x388>
80006b4c:	00400593          	li	a1,4
80006b50:	00400c13          	li	s8,4
80006b54:	04b61263          	bne	a2,a1,80006b98 <lfs_dir_fetchmatch+0x27c>
80006b58:	3640006f          	j	80006ebc <lfs_dir_fetchmatch+0x5a0>
80006b5c:	21d040ef          	jal	8000b578 <lfs_crc>
80006b60:	03412583          	lw	a1,52(sp)
80006b64:	001c0c13          	addi	s8,s8,1
80006b68:	00050413          	mv	s0,a0
80006b6c:	01659793          	slli	a5,a1,0x16
80006b70:	4167d793          	srai	a5,a5,0x16
80006b74:	00178793          	addi	a5,a5,1
80006b78:	0017b793          	seqz	a5,a5
80006b7c:	00b787b3          	add	a5,a5,a1
80006b80:	3ff7f793          	andi	a5,a5,1023
80006b84:	00478793          	addi	a5,a5,4
80006b88:	1cfc7663          	bgeu	s8,a5,80006d54 <lfs_dir_fetchmatch+0x438>
80006b8c:	06892783          	lw	a5,104(s2)
80006b90:	0009a703          	lw	a4,0(s3)
80006b94:	01c7a683          	lw	a3,28(a5)
80006b98:	00090613          	mv	a2,s2
80006b9c:	00000593          	li	a1,0
80006ba0:	00100893          	li	a7,1
80006ba4:	04810813          	addi	a6,sp,72
80006ba8:	018487b3          	add	a5,s1,s8
80006bac:	00090513          	mv	a0,s2
80006bb0:	cf4fe0ef          	jal	800050a4 <lfs_bd_read>
80006bb4:	00050713          	mv	a4,a0
80006bb8:	00100613          	li	a2,1
80006bbc:	04810593          	addi	a1,sp,72
80006bc0:	00040513          	mv	a0,s0
80006bc4:	f8070ce3          	beqz	a4,80006b5c <lfs_dir_fetchmatch+0x240>
80006bc8:	fac00793          	li	a5,-84
80006bcc:	38f71e63          	bne	a4,a5,80006f68 <lfs_dir_fetchmatch+0x64c>
80006bd0:	03412583          	lw	a1,52(sp)
80006bd4:	0009a703          	lw	a4,0(s3)
80006bd8:	00098b23          	sb	zero,22(s3)
80006bdc:	0145d313          	srli	t1,a1,0x14
80006be0:	70037513          	andi	a0,t1,1792
80006be4:	12051063          	bnez	a0,80006d04 <lfs_dir_fetchmatch+0x3e8>
80006be8:	00a5d693          	srli	a3,a1,0xa
80006bec:	3ff6f693          	andi	a3,a3,1023
80006bf0:	0156e463          	bltu	a3,s5,80006bf8 <lfs_dir_fetchmatch+0x2dc>
80006bf4:	00168a93          	addi	s5,a3,1
80006bf8:	01012783          	lw	a5,16(sp)
80006bfc:	00b7c6b3          	xor	a3,a5,a1
80006c00:	00c12783          	lw	a5,12(sp)
80006c04:	00f6f6b3          	and	a3,a3,a5
80006c08:	02069663          	bnez	a3,80006c34 <lfs_dir_fetchmatch+0x318>
80006c0c:	02812503          	lw	a0,40(sp)
80006c10:	02412783          	lw	a5,36(sp)
80006c14:	04810613          	addi	a2,sp,72
80006c18:	04e12423          	sw	a4,72(sp)
80006c1c:	05412623          	sw	s4,76(sp)
80006c20:	000780e7          	jalr	a5
80006c24:	26054e63          	bltz	a0,80006ea0 <lfs_dir_fetchmatch+0x584>
80006c28:	12051e63          	bnez	a0,80006d64 <lfs_dir_fetchmatch+0x448>
80006c2c:	03412b03          	lw	s6,52(sp)
80006c30:	0009a703          	lw	a4,0(s3)
80006c34:	000d8c13          	mv	s8,s11
80006c38:	e69ff06f          	j	80006aa0 <lfs_dir_fetchmatch+0x184>
80006c3c:	fac00813          	li	a6,-84
80006c40:	07812a03          	lw	s4,120(sp)
80006c44:	07412a83          	lw	s5,116(sp)
80006c48:	06c12b83          	lw	s7,108(sp)
80006c4c:	06812c03          	lw	s8,104(sp)
80006c50:	06412c83          	lw	s9,100(sp)
80006c54:	06012d03          	lw	s10,96(sp)
80006c58:	08c12083          	lw	ra,140(sp)
80006c5c:	08812403          	lw	s0,136(sp)
80006c60:	08412483          	lw	s1,132(sp)
80006c64:	08012903          	lw	s2,128(sp)
80006c68:	07c12983          	lw	s3,124(sp)
80006c6c:	07012b03          	lw	s6,112(sp)
80006c70:	05c12d83          	lw	s11,92(sp)
80006c74:	00080513          	mv	a0,a6
80006c78:	09010113          	addi	sp,sp,144
80006c7c:	00008067          	ret
80006c80:	fac00793          	li	a5,-84
80006c84:	2cf51e63          	bne	a0,a5,80006f60 <lfs_dir_fetchmatch+0x644>
80006c88:	07512a23          	sw	s5,116(sp)
80006c8c:	07712623          	sw	s7,108(sp)
80006c90:	07812423          	sw	s8,104(sp)
80006c94:	07912223          	sw	s9,100(sp)
80006c98:	07a12023          	sw	s10,96(sp)
80006c9c:	00000a13          	li	s4,0
80006ca0:	d5dff06f          	j	800069fc <lfs_dir_fetchmatch+0xe0>
80006ca4:	00400893          	li	a7,4
80006ca8:	04810813          	addi	a6,sp,72
80006cac:	000a0793          	mv	a5,s4
80006cb0:	00090613          	mv	a2,s2
80006cb4:	00000593          	li	a1,0
80006cb8:	00090513          	mv	a0,s2
80006cbc:	be8fe0ef          	jal	800050a4 <lfs_bd_read>
80006cc0:	1e051063          	bnez	a0,80006ea0 <lfs_dir_fetchmatch+0x584>
80006cc4:	04812703          	lw	a4,72(sp)
80006cc8:	12870863          	beq	a4,s0,80006df8 <lfs_dir_fetchmatch+0x4dc>
80006ccc:	00c9a703          	lw	a4,12(s3)
80006cd0:	00098b23          	sb	zero,22(s3)
80006cd4:	1e071863          	bnez	a4,80006ec4 <lfs_dir_fetchmatch+0x5a8>
80006cd8:	01c12783          	lw	a5,28(sp)
80006cdc:	0009a683          	lw	a3,0(s3)
80006ce0:	0049a703          	lw	a4,4(s3)
80006ce4:	fe87a783          	lw	a5,-24(a5)
80006ce8:	00d9a223          	sw	a3,4(s3)
80006cec:	00e9a023          	sw	a4,0(s3)
80006cf0:	00f9a423          	sw	a5,8(s3)
80006cf4:	00100793          	li	a5,1
80006cf8:	f4fd02e3          	beq	s10,a5,80006c3c <lfs_dir_fetchmatch+0x320>
80006cfc:	00100d13          	li	s10,1
80006d00:	d69ff06f          	j	80006a68 <lfs_dir_fetchmatch+0x14c>
80006d04:	40000693          	li	a3,1024
80006d08:	08d50e63          	beq	a0,a3,80006da4 <lfs_dir_fetchmatch+0x488>
80006d0c:	60000693          	li	a3,1536
80006d10:	eed514e3          	bne	a0,a3,80006bf8 <lfs_dir_fetchmatch+0x2dc>
80006d14:	06892683          	lw	a3,104(s2)
80006d18:	00137313          	andi	t1,t1,1
80006d1c:	00800893          	li	a7,8
80006d20:	01c6a683          	lw	a3,28(a3)
80006d24:	04010813          	addi	a6,sp,64
80006d28:	000a0793          	mv	a5,s4
80006d2c:	00090613          	mv	a2,s2
80006d30:	00000593          	li	a1,0
80006d34:	00090513          	mv	a0,s2
80006d38:	02612023          	sw	t1,32(sp)
80006d3c:	b68fe0ef          	jal	800050a4 <lfs_bd_read>
80006d40:	fac00713          	li	a4,-84
80006d44:	f8e504e3          	beq	a0,a4,80006ccc <lfs_dir_fetchmatch+0x3b0>
80006d48:	03412583          	lw	a1,52(sp)
80006d4c:	0009a703          	lw	a4,0(s3)
80006d50:	ea9ff06f          	j	80006bf8 <lfs_dir_fetchmatch+0x2dc>
80006d54:	0145d313          	srli	t1,a1,0x14
80006d58:	0009a703          	lw	a4,0(s3)
80006d5c:	70037513          	andi	a0,t1,1792
80006d60:	e85ff06f          	j	80006be4 <lfs_dir_fetchmatch+0x2c8>
80006d64:	00200713          	li	a4,2
80006d68:	00e50863          	beq	a0,a4,80006d78 <lfs_dir_fetchmatch+0x45c>
80006d6c:	0009a703          	lw	a4,0(s3)
80006d70:	000d8c13          	mv	s8,s11
80006d74:	d2dff06f          	j	80006aa0 <lfs_dir_fetchmatch+0x184>
80006d78:	03412603          	lw	a2,52(sp)
80006d7c:	00ab5693          	srli	a3,s6,0xa
80006d80:	3ff6f693          	andi	a3,a3,1023
80006d84:	00a65713          	srli	a4,a2,0xa
80006d88:	3ff77713          	andi	a4,a4,1023
80006d8c:	fee6e0e3          	bltu	a3,a4,80006d6c <lfs_dir_fetchmatch+0x450>
80006d90:	80000b37          	lui	s6,0x80000
80006d94:	0009a703          	lw	a4,0(s3)
80006d98:	01666b33          	or	s6,a2,s6
80006d9c:	000d8c13          	mv	s8,s11
80006da0:	d01ff06f          	j	80006aa0 <lfs_dir_fetchmatch+0x184>
80006da4:	001006b7          	lui	a3,0x100
80006da8:	01831313          	slli	t1,t1,0x18
80006dac:	c0068693          	addi	a3,a3,-1024 # ffc00 <__stack_size+0xfdc00>
80006db0:	41835313          	srai	t1,t1,0x18
80006db4:	00db76b3          	and	a3,s6,a3
80006db8:	006a8ab3          	add	s5,s5,t1
80006dbc:	4ff00637          	lui	a2,0x4ff00
80006dc0:	010a9a93          	slli	s5,s5,0x10
80006dc4:	00c6e6b3          	or	a3,a3,a2
80006dc8:	010ada93          	srli	s5,s5,0x10
80006dcc:	0eb68263          	beq	a3,a1,80006eb0 <lfs_dir_fetchmatch+0x594>
80006dd0:	fff00693          	li	a3,-1
80006dd4:	e2db02e3          	beq	s6,a3,80006bf8 <lfs_dir_fetchmatch+0x2dc>
80006dd8:	00ab5613          	srli	a2,s6,0xa
80006ddc:	00a5d693          	srli	a3,a1,0xa
80006de0:	3ff67613          	andi	a2,a2,1023
80006de4:	3ff6f693          	andi	a3,a3,1023
80006de8:	e0d668e3          	bltu	a2,a3,80006bf8 <lfs_dir_fetchmatch+0x2dc>
80006dec:	00a31313          	slli	t1,t1,0xa
80006df0:	01630b33          	add	s6,t1,s6
80006df4:	e05ff06f          	j	80006bf8 <lfs_dir_fetchmatch+0x2dc>
80006df8:	03412703          	lw	a4,52(sp)
80006dfc:	02c92603          	lw	a2,44(s2)
80006e00:	02012783          	lw	a5,32(sp)
80006e04:	01671693          	slli	a3,a4,0x16
80006e08:	4166d693          	srai	a3,a3,0x16
80006e0c:	00168693          	addi	a3,a3,1
80006e10:	0016b693          	seqz	a3,a3
80006e14:	00e686b3          	add	a3,a3,a4
80006e18:	3ff6f693          	andi	a3,a3,1023
80006e1c:	01475c13          	srli	s8,a4,0x14
80006e20:	00468693          	addi	a3,a3,4
80006e24:	00864733          	xor	a4,a2,s0
80006e28:	02e92623          	sw	a4,44(s2)
80006e2c:	009686b3          	add	a3,a3,s1
80006e30:	00d9a623          	sw	a3,12(s3)
80006e34:	04012683          	lw	a3,64(sp)
80006e38:	01fc1c13          	slli	s8,s8,0x1f
80006e3c:	01bc4c33          	xor	s8,s8,s11
80006e40:	00d9ac23          	sw	a3,24(s3)
80006e44:	04412683          	lw	a3,68(sp)
80006e48:	0009a703          	lw	a4,0(s3)
80006e4c:	0189a823          	sw	s8,16(s3)
80006e50:	01599a23          	sh	s5,20(s3)
80006e54:	00d9ae23          	sw	a3,28(s3)
80006e58:	00f98ba3          	sb	a5,23(s3)
80006e5c:	01612a23          	sw	s6,20(sp)
80006e60:	fff00413          	li	s0,-1
80006e64:	c3dff06f          	j	80006aa0 <lfs_dir_fetchmatch+0x184>
80006e68:	014c5793          	srli	a5,s8,0x14
80006e6c:	7007f793          	andi	a5,a5,1792
80006e70:	50000613          	li	a2,1280
80006e74:	00c9a703          	lw	a4,12(s3)
80006e78:	00000693          	li	a3,0
80006e7c:	00c78663          	beq	a5,a2,80006e88 <lfs_dir_fetchmatch+0x56c>
80006e80:	00d98b23          	sb	a3,22(s3)
80006e84:	e51ff06f          	j	80006cd4 <lfs_dir_fetchmatch+0x3b8>
80006e88:	06892783          	lw	a5,104(s2)
80006e8c:	0187a683          	lw	a3,24(a5)
80006e90:	02d776b3          	remu	a3,a4,a3
80006e94:	0016b693          	seqz	a3,a3
80006e98:	00d98b23          	sb	a3,22(s3)
80006e9c:	e39ff06f          	j	80006cd4 <lfs_dir_fetchmatch+0x3b8>
80006ea0:	fac00793          	li	a5,-84
80006ea4:	e2f504e3          	beq	a0,a5,80006ccc <lfs_dir_fetchmatch+0x3b0>
80006ea8:	00050813          	mv	a6,a0
80006eac:	d95ff06f          	j	80006c40 <lfs_dir_fetchmatch+0x324>
80006eb0:	800006b7          	lui	a3,0x80000
80006eb4:	00db6b33          	or	s6,s6,a3
80006eb8:	d41ff06f          	j	80006bf8 <lfs_dir_fetchmatch+0x2dc>
80006ebc:	000d8593          	mv	a1,s11
80006ec0:	d25ff06f          	j	80006be4 <lfs_dir_fetchmatch+0x2c8>
80006ec4:	03092783          	lw	a5,48(s2)
80006ec8:	01412803          	lw	a6,20(sp)
80006ecc:	02c12483          	lw	s1,44(sp)
80006ed0:	0147d713          	srli	a4,a5,0x14
80006ed4:	70077713          	andi	a4,a4,1792
80006ed8:	02070263          	beqz	a4,80006efc <lfs_dir_fetchmatch+0x5e0>
80006edc:	03492583          	lw	a1,52(s2)
80006ee0:	0009a683          	lw	a3,0(s3)
80006ee4:	04d58a63          	beq	a1,a3,80006f38 <lfs_dir_fetchmatch+0x61c>
80006ee8:	03892703          	lw	a4,56(s2)
80006eec:	0049a603          	lw	a2,4(s3)
80006ef0:	04c70463          	beq	a4,a2,80006f38 <lfs_dir_fetchmatch+0x61c>
80006ef4:	04c58263          	beq	a1,a2,80006f38 <lfs_dir_fetchmatch+0x61c>
80006ef8:	04e68063          	beq	a3,a4,80006f38 <lfs_dir_fetchmatch+0x61c>
80006efc:	00048e63          	beqz	s1,80006f18 <lfs_dir_fetchmatch+0x5fc>
80006f00:	0149d703          	lhu	a4,20(s3)
80006f04:	00a85793          	srli	a5,a6,0xa
80006f08:	3ff7f793          	andi	a5,a5,1023
80006f0c:	00f77463          	bgeu	a4,a5,80006f14 <lfs_dir_fetchmatch+0x5f8>
80006f10:	00070793          	mv	a5,a4
80006f14:	00f49023          	sh	a5,0(s1)
80006f18:	d20854e3          	bgez	a6,80006c40 <lfs_dir_fetchmatch+0x324>
80006f1c:	00a85793          	srli	a5,a6,0xa
80006f20:	3ff7f793          	andi	a5,a5,1023
80006f24:	0149d703          	lhu	a4,20(s3)
80006f28:	00000813          	li	a6,0
80006f2c:	d0e7fae3          	bgeu	a5,a4,80006c40 <lfs_dir_fetchmatch+0x324>
80006f30:	ffe00813          	li	a6,-2
80006f34:	d0dff06f          	j	80006c40 <lfs_dir_fetchmatch+0x324>
80006f38:	00a7d713          	srli	a4,a5,0xa
80006f3c:	00a85793          	srli	a5,a6,0xa
80006f40:	3ff77713          	andi	a4,a4,1023
80006f44:	3ff7f693          	andi	a3,a5,1023
80006f48:	04e68663          	beq	a3,a4,80006f94 <lfs_dir_fetchmatch+0x678>
80006f4c:	fff00793          	li	a5,-1
80006f50:	02f80063          	beq	a6,a5,80006f70 <lfs_dir_fetchmatch+0x654>
80006f54:	fad774e3          	bgeu	a4,a3,80006efc <lfs_dir_fetchmatch+0x5e0>
80006f58:	c0080813          	addi	a6,a6,-1024
80006f5c:	fa1ff06f          	j	80006efc <lfs_dir_fetchmatch+0x5e0>
80006f60:	07812a03          	lw	s4,120(sp)
80006f64:	cf5ff06f          	j	80006c58 <lfs_dir_fetchmatch+0x33c>
80006f68:	00070813          	mv	a6,a4
80006f6c:	cd5ff06f          	j	80006c40 <lfs_dir_fetchmatch+0x324>
80006f70:	00048e63          	beqz	s1,80006f8c <lfs_dir_fetchmatch+0x670>
80006f74:	0149d703          	lhu	a4,20(s3)
80006f78:	3ff00693          	li	a3,1023
80006f7c:	00070793          	mv	a5,a4
80006f80:	00e6f463          	bgeu	a3,a4,80006f88 <lfs_dir_fetchmatch+0x66c>
80006f84:	3ff00793          	li	a5,1023
80006f88:	00f49023          	sh	a5,0(s1)
80006f8c:	3ff00793          	li	a5,1023
80006f90:	f95ff06f          	j	80006f24 <lfs_dir_fetchmatch+0x608>
80006f94:	00068793          	mv	a5,a3
80006f98:	f80486e3          	beqz	s1,80006f24 <lfs_dir_fetchmatch+0x608>
80006f9c:	0149d703          	lhu	a4,20(s3)
80006fa0:	00e6f463          	bgeu	a3,a4,80006fa8 <lfs_dir_fetchmatch+0x68c>
80006fa4:	00068713          	mv	a4,a3
80006fa8:	00e49023          	sh	a4,0(s1)
80006fac:	f79ff06f          	j	80006f24 <lfs_dir_fetchmatch+0x608>

80006fb0 <lfs_fs_parent>:
80006fb0:	fc010113          	addi	sp,sp,-64
80006fb4:	02812c23          	sw	s0,56(sp)
80006fb8:	02912a23          	sw	s1,52(sp)
80006fbc:	03212823          	sw	s2,48(sp)
80006fc0:	03312623          	sw	s3,44(sp)
80006fc4:	03412423          	sw	s4,40(sp)
80006fc8:	03512223          	sw	s5,36(sp)
80006fcc:	03612023          	sw	s6,32(sp)
80006fd0:	01712e23          	sw	s7,28(sp)
80006fd4:	02112e23          	sw	ra,60(sp)
80006fd8:	20000ab7          	lui	s5,0x20000
80006fdc:	7ff00a37          	lui	s4,0x7ff00
80006fe0:	00100793          	li	a5,1
80006fe4:	00060413          	mv	s0,a2
80006fe8:	00050913          	mv	s2,a0
80006fec:	00058493          	mv	s1,a1
80006ff0:	00062c23          	sw	zero,24(a2) # 4ff00018 <__stack_size+0x4fefe018>
80006ff4:	00f62e23          	sw	a5,28(a2)
80006ff8:	01860b93          	addi	s7,a2,24
80006ffc:	80005b37          	lui	s6,0x80005
80007000:	008a8a93          	addi	s5,s5,8 # 20000008 <__stack_size+0x1fffe008>
80007004:	3ffa0a13          	addi	s4,s4,1023 # 7ff003ff <__stack_size+0x7fefe3ff>
80007008:	fff00993          	li	s3,-1
8000700c:	0044a303          	lw	t1,4(s1)
80007010:	0004ae03          	lw	t3,0(s1)
80007014:	00000793          	li	a5,0
80007018:	00410893          	addi	a7,sp,4
8000701c:	25cb0813          	addi	a6,s6,604 # 8000525c <lfs_fs_parent_match>
80007020:	000a8713          	mv	a4,s5
80007024:	000a0693          	mv	a3,s4
80007028:	000b8613          	mv	a2,s7
8000702c:	00040593          	mv	a1,s0
80007030:	00090513          	mv	a0,s2
80007034:	01212223          	sw	s2,4(sp)
80007038:	01c12423          	sw	t3,8(sp)
8000703c:	00612623          	sw	t1,12(sp)
80007040:	8ddff0ef          	jal	8000691c <lfs_dir_fetchmatch>
80007044:	00250793          	addi	a5,a0,2
80007048:	ffd7f793          	andi	a5,a5,-3
8000704c:	02078863          	beqz	a5,8000707c <lfs_fs_parent+0xcc>
80007050:	03c12083          	lw	ra,60(sp)
80007054:	03812403          	lw	s0,56(sp)
80007058:	03412483          	lw	s1,52(sp)
8000705c:	03012903          	lw	s2,48(sp)
80007060:	02c12983          	lw	s3,44(sp)
80007064:	02812a03          	lw	s4,40(sp)
80007068:	02412a83          	lw	s5,36(sp)
8000706c:	02012b03          	lw	s6,32(sp)
80007070:	01c12b83          	lw	s7,28(sp)
80007074:	04010113          	addi	sp,sp,64
80007078:	00008067          	ret
8000707c:	01842783          	lw	a5,24(s0)
80007080:	01378663          	beq	a5,s3,8000708c <lfs_fs_parent+0xdc>
80007084:	01c42783          	lw	a5,28(s0)
80007088:	f93792e3          	bne	a5,s3,8000700c <lfs_fs_parent+0x5c>
8000708c:	ffe00513          	li	a0,-2
80007090:	fc1ff06f          	j	80007050 <lfs_fs_parent+0xa0>

80007094 <lfs_dir_find>:
80007094:	00062783          	lw	a5,0(a2)
80007098:	fa010113          	addi	sp,sp,-96
8000709c:	05512223          	sw	s5,68(sp)
800070a0:	05612023          	sw	s6,64(sp)
800070a4:	03812c23          	sw	s8,56(sp)
800070a8:	04112e23          	sw	ra,92(sp)
800070ac:	04812c23          	sw	s0,88(sp)
800070b0:	04912a23          	sw	s1,84(sp)
800070b4:	05212823          	sw	s2,80(sp)
800070b8:	05312623          	sw	s3,76(sp)
800070bc:	05412423          	sw	s4,72(sp)
800070c0:	03712e23          	sw	s7,60(sp)
800070c4:	03912a23          	sw	s9,52(sp)
800070c8:	03a12823          	sw	s10,48(sp)
800070cc:	03b12623          	sw	s11,44(sp)
800070d0:	00c12623          	sw	a2,12(sp)
800070d4:	00f12423          	sw	a5,8(sp)
800070d8:	00068c13          	mv	s8,a3
800070dc:	00050b13          	mv	s6,a0
800070e0:	00058a93          	mv	s5,a1
800070e4:	00068663          	beqz	a3,800070f0 <lfs_dir_find+0x5c>
800070e8:	3ff00793          	li	a5,1023
800070ec:	00f69023          	sh	a5,0(a3) # 80000000 <_start>
800070f0:	020b2703          	lw	a4,32(s6)
800070f4:	024b2783          	lw	a5,36(s6)
800070f8:	00300437          	lui	s0,0x300
800070fc:	018a8693          	addi	a3,s5,24
80007100:	00d12223          	sw	a3,4(sp)
80007104:	00eaac23          	sw	a4,24(s5)
80007108:	00faae23          	sw	a5,28(s5)
8000710c:	c0040413          	addi	s0,s0,-1024 # 2ffc00 <__stack_size+0x2fdc00>
80007110:	800104b7          	lui	s1,0x80010
80007114:	00200b93          	li	s7,2
80007118:	80005d37          	lui	s10,0x80005
8000711c:	00812903          	lw	s2,8(sp)
80007120:	f4c48593          	addi	a1,s1,-180 # 8000ff4c <_ctype_+0xe0>
80007124:	00090513          	mv	a0,s2
80007128:	89cfc0ef          	jal	800031c4 <strspn>
8000712c:	00a909b3          	add	s3,s2,a0
80007130:	f4c48593          	addi	a1,s1,-180
80007134:	00098513          	mv	a0,s3
80007138:	928fc0ef          	jal	80003260 <strcspn>
8000713c:	00100793          	li	a5,1
80007140:	00050a13          	mv	s4,a0
80007144:	18f50063          	beq	a0,a5,800072c4 <lfs_dir_find+0x230>
80007148:	1b750063          	beq	a0,s7,800072e8 <lfs_dir_find+0x254>
8000714c:	014987b3          	add	a5,s3,s4
80007150:	00f12423          	sw	a5,8(sp)
80007154:	00078d93          	mv	s11,a5
80007158:	00100913          	li	s2,1
8000715c:	f4c48593          	addi	a1,s1,-180
80007160:	000d8513          	mv	a0,s11
80007164:	860fc0ef          	jal	800031c4 <strspn>
80007168:	00ad8db3          	add	s11,s11,a0
8000716c:	f4c48593          	addi	a1,s1,-180
80007170:	000d8513          	mv	a0,s11
80007174:	8ecfc0ef          	jal	80003260 <strcspn>
80007178:	00050c93          	mv	s9,a0
8000717c:	04050063          	beqz	a0,800071bc <lfs_dir_find+0x128>
80007180:	01750863          	beq	a0,s7,80007190 <lfs_dir_find+0xfc>
80007184:	00190913          	addi	s2,s2,1
80007188:	019d8db3          	add	s11,s11,s9
8000718c:	fd1ff06f          	j	8000715c <lfs_dir_find+0xc8>
80007190:	800107b7          	lui	a5,0x80010
80007194:	00200613          	li	a2,2
80007198:	f5478593          	addi	a1,a5,-172 # 8000ff54 <_ctype_+0xe8>
8000719c:	000d8513          	mv	a0,s11
800071a0:	cc5fb0ef          	jal	80002e64 <memcmp>
800071a4:	fe0510e3          	bnez	a0,80007184 <lfs_dir_find+0xf0>
800071a8:	fff90913          	addi	s2,s2,-1
800071ac:	fc091ee3          	bnez	s2,80007188 <lfs_dir_find+0xf4>
800071b0:	002d8793          	addi	a5,s11,2
800071b4:	00f12423          	sw	a5,8(sp)
800071b8:	f65ff06f          	j	8000711c <lfs_dir_find+0x88>
800071bc:	0009c783          	lbu	a5,0(s3)
800071c0:	0a078e63          	beqz	a5,8000727c <lfs_dir_find+0x1e8>
800071c4:	00c12703          	lw	a4,12(sp)
800071c8:	01445793          	srli	a5,s0,0x14
800071cc:	7ff7f793          	andi	a5,a5,2047
800071d0:	01372023          	sw	s3,0(a4)
800071d4:	13779c63          	bne	a5,s7,8000730c <lfs_dir_find+0x278>
800071d8:	00a45413          	srli	s0,s0,0xa
800071dc:	3ff47413          	andi	s0,s0,1023
800071e0:	3ff00793          	li	a5,1023
800071e4:	04f40663          	beq	s0,a5,80007230 <lfs_dir_find+0x19c>
800071e8:	00412783          	lw	a5,4(sp)
800071ec:	200006b7          	lui	a3,0x20000
800071f0:	00a41413          	slli	s0,s0,0xa
800071f4:	00868693          	addi	a3,a3,8 # 20000008 <__stack_size+0x1fffe008>
800071f8:	70100637          	lui	a2,0x70100
800071fc:	00d466b3          	or	a3,s0,a3
80007200:	00800813          	li	a6,8
80007204:	00000713          	li	a4,0
80007208:	c0060613          	addi	a2,a2,-1024 # 700ffc00 <__stack_size+0x700fdc00>
8000720c:	000a8593          	mv	a1,s5
80007210:	000b0513          	mv	a0,s6
80007214:	eadfe0ef          	jal	800060c0 <lfs_dir_getslice>
80007218:	00050413          	mv	s0,a0
8000721c:	00055a63          	bgez	a0,80007230 <lfs_dir_find+0x19c>
80007220:	05c0006f          	j	8000727c <lfs_dir_find+0x1e8>
80007224:	ee051ce3          	bnez	a0,8000711c <lfs_dir_find+0x88>
80007228:	017ac783          	lbu	a5,23(s5)
8000722c:	08078863          	beqz	a5,800072bc <lfs_dir_find+0x228>
80007230:	02f00593          	li	a1,47
80007234:	00098513          	mv	a0,s3
80007238:	cf5fb0ef          	jal	80002f2c <strchr>
8000723c:	00153793          	seqz	a5,a0
80007240:	00412603          	lw	a2,4(sp)
80007244:	40f007b3          	neg	a5,a5
80007248:	01410893          	addi	a7,sp,20
8000724c:	2d0d0813          	addi	a6,s10,720 # 800052d0 <lfs_dir_find_match>
80007250:	00fc77b3          	and	a5,s8,a5
80007254:	000a0713          	mv	a4,s4
80007258:	780006b7          	lui	a3,0x78000
8000725c:	000a8593          	mv	a1,s5
80007260:	000b0513          	mv	a0,s6
80007264:	01612a23          	sw	s6,20(sp)
80007268:	01312c23          	sw	s3,24(sp)
8000726c:	01412e23          	sw	s4,28(sp)
80007270:	eacff0ef          	jal	8000691c <lfs_dir_fetchmatch>
80007274:	00050413          	mv	s0,a0
80007278:	fa0556e3          	bgez	a0,80007224 <lfs_dir_find+0x190>
8000727c:	05c12083          	lw	ra,92(sp)
80007280:	00040513          	mv	a0,s0
80007284:	05812403          	lw	s0,88(sp)
80007288:	05412483          	lw	s1,84(sp)
8000728c:	05012903          	lw	s2,80(sp)
80007290:	04c12983          	lw	s3,76(sp)
80007294:	04812a03          	lw	s4,72(sp)
80007298:	04412a83          	lw	s5,68(sp)
8000729c:	04012b03          	lw	s6,64(sp)
800072a0:	03c12b83          	lw	s7,60(sp)
800072a4:	03812c03          	lw	s8,56(sp)
800072a8:	03412c83          	lw	s9,52(sp)
800072ac:	03012d03          	lw	s10,48(sp)
800072b0:	02c12d83          	lw	s11,44(sp)
800072b4:	06010113          	addi	sp,sp,96
800072b8:	00008067          	ret
800072bc:	ffe00413          	li	s0,-2
800072c0:	fbdff06f          	j	8000727c <lfs_dir_find+0x1e8>
800072c4:	800105b7          	lui	a1,0x80010
800072c8:	00100613          	li	a2,1
800072cc:	f5058593          	addi	a1,a1,-176 # 8000ff50 <_ctype_+0xe4>
800072d0:	00098513          	mv	a0,s3
800072d4:	b91fb0ef          	jal	80002e64 <memcmp>
800072d8:	e6051ae3          	bnez	a0,8000714c <lfs_dir_find+0xb8>
800072dc:	014987b3          	add	a5,s3,s4
800072e0:	00f12423          	sw	a5,8(sp)
800072e4:	e39ff06f          	j	8000711c <lfs_dir_find+0x88>
800072e8:	800105b7          	lui	a1,0x80010
800072ec:	00200613          	li	a2,2
800072f0:	f5458593          	addi	a1,a1,-172 # 8000ff54 <_ctype_+0xe8>
800072f4:	00098513          	mv	a0,s3
800072f8:	b6dfb0ef          	jal	80002e64 <memcmp>
800072fc:	e40518e3          	bnez	a0,8000714c <lfs_dir_find+0xb8>
80007300:	014987b3          	add	a5,s3,s4
80007304:	00f12423          	sw	a5,8(sp)
80007308:	e15ff06f          	j	8000711c <lfs_dir_find+0x88>
8000730c:	fec00413          	li	s0,-20
80007310:	f6dff06f          	j	8000727c <lfs_dir_find+0x1e8>

80007314 <lfs_fs_pred>:
80007314:	fe010113          	addi	sp,sp,-32
80007318:	00812c23          	sw	s0,24(sp)
8000731c:	00912a23          	sw	s1,20(sp)
80007320:	01212823          	sw	s2,16(sp)
80007324:	01312623          	sw	s3,12(sp)
80007328:	00112e23          	sw	ra,28(sp)
8000732c:	00100793          	li	a5,1
80007330:	00060413          	mv	s0,a2
80007334:	00050913          	mv	s2,a0
80007338:	00058493          	mv	s1,a1
8000733c:	00062c23          	sw	zero,24(a2)
80007340:	00f62e23          	sw	a5,28(a2)
80007344:	00000313          	li	t1,0
80007348:	fff00993          	li	s3,-1
8000734c:	01c42e03          	lw	t3,28(s0)
80007350:	053e0663          	beq	t3,s3,8000739c <lfs_fs_pred+0x88>
80007354:	0004ae83          	lw	t4,0(s1)
80007358:	066e8263          	beq	t4,t1,800073bc <lfs_fs_pred+0xa8>
8000735c:	0044af03          	lw	t5,4(s1)
80007360:	05cf0e63          	beq	t5,t3,800073bc <lfs_fs_pred+0xa8>
80007364:	00000893          	li	a7,0
80007368:	00000813          	li	a6,0
8000736c:	00000793          	li	a5,0
80007370:	00000713          	li	a4,0
80007374:	fff00693          	li	a3,-1
80007378:	01840613          	addi	a2,s0,24
8000737c:	00040593          	mv	a1,s0
80007380:	00090513          	mv	a0,s2
80007384:	026f0c63          	beq	t5,t1,800073bc <lfs_fs_pred+0xa8>
80007388:	03ce8a63          	beq	t4,t3,800073bc <lfs_fs_pred+0xa8>
8000738c:	d90ff0ef          	jal	8000691c <lfs_dir_fetchmatch>
80007390:	02051863          	bnez	a0,800073c0 <lfs_fs_pred+0xac>
80007394:	01842303          	lw	t1,24(s0)
80007398:	fb331ae3          	bne	t1,s3,8000734c <lfs_fs_pred+0x38>
8000739c:	01c12083          	lw	ra,28(sp)
800073a0:	01812403          	lw	s0,24(sp)
800073a4:	01412483          	lw	s1,20(sp)
800073a8:	01012903          	lw	s2,16(sp)
800073ac:	00c12983          	lw	s3,12(sp)
800073b0:	ffe00513          	li	a0,-2
800073b4:	02010113          	addi	sp,sp,32
800073b8:	00008067          	ret
800073bc:	00000513          	li	a0,0
800073c0:	01c12083          	lw	ra,28(sp)
800073c4:	01812403          	lw	s0,24(sp)
800073c8:	01412483          	lw	s1,20(sp)
800073cc:	01012903          	lw	s2,16(sp)
800073d0:	00c12983          	lw	s3,12(sp)
800073d4:	02010113          	addi	sp,sp,32
800073d8:	00008067          	ret

800073dc <lfs_dir_open>:
800073dc:	fc010113          	addi	sp,sp,-64
800073e0:	03212823          	sw	s2,48(sp)
800073e4:	00858913          	addi	s2,a1,8
800073e8:	02812c23          	sw	s0,56(sp)
800073ec:	00c12623          	sw	a2,12(sp)
800073f0:	00058413          	mv	s0,a1
800073f4:	00000693          	li	a3,0
800073f8:	00c10613          	addi	a2,sp,12
800073fc:	00090593          	mv	a1,s2
80007400:	02912a23          	sw	s1,52(sp)
80007404:	02112e23          	sw	ra,60(sp)
80007408:	00050493          	mv	s1,a0
8000740c:	c89ff0ef          	jal	80007094 <lfs_dir_find>
80007410:	08054863          	bltz	a0,800074a0 <lfs_dir_open+0xc4>
80007414:	01455793          	srli	a5,a0,0x14
80007418:	00200713          	li	a4,2
8000741c:	0ee79863          	bne	a5,a4,8000750c <lfs_dir_open+0x130>
80007420:	00a55793          	srli	a5,a0,0xa
80007424:	03312623          	sw	s3,44(sp)
80007428:	3ff7f793          	andi	a5,a5,1023
8000742c:	3ff00713          	li	a4,1023
80007430:	08e79463          	bne	a5,a4,800074b8 <lfs_dir_open+0xdc>
80007434:	0244a703          	lw	a4,36(s1)
80007438:	0204a783          	lw	a5,32(s1)
8000743c:	01810993          	addi	s3,sp,24
80007440:	00e12e23          	sw	a4,28(sp)
80007444:	00f12c23          	sw	a5,24(sp)
80007448:	00000893          	li	a7,0
8000744c:	00000813          	li	a6,0
80007450:	00000793          	li	a5,0
80007454:	00000713          	li	a4,0
80007458:	fff00693          	li	a3,-1
8000745c:	00098613          	mv	a2,s3
80007460:	00090593          	mv	a1,s2
80007464:	00048513          	mv	a0,s1
80007468:	cb4ff0ef          	jal	8000691c <lfs_dir_fetchmatch>
8000746c:	08051263          	bnez	a0,800074f0 <lfs_dir_open+0x114>
80007470:	00200793          	li	a5,2
80007474:	00f40323          	sb	a5,6(s0)
80007478:	0284a783          	lw	a5,40(s1)
8000747c:	00842683          	lw	a3,8(s0)
80007480:	00c42703          	lw	a4,12(s0)
80007484:	02c12983          	lw	s3,44(sp)
80007488:	02d42623          	sw	a3,44(s0)
8000748c:	02e42823          	sw	a4,48(s0)
80007490:	00041223          	sh	zero,4(s0)
80007494:	02042423          	sw	zero,40(s0)
80007498:	00f42023          	sw	a5,0(s0)
8000749c:	0284a423          	sw	s0,40(s1)
800074a0:	03c12083          	lw	ra,60(sp)
800074a4:	03812403          	lw	s0,56(sp)
800074a8:	03412483          	lw	s1,52(sp)
800074ac:	03012903          	lw	s2,48(sp)
800074b0:	04010113          	addi	sp,sp,64
800074b4:	00008067          	ret
800074b8:	200005b7          	lui	a1,0x20000
800074bc:	00a79693          	slli	a3,a5,0xa
800074c0:	00858593          	addi	a1,a1,8 # 20000008 <__stack_size+0x1fffe008>
800074c4:	01810993          	addi	s3,sp,24
800074c8:	70100637          	lui	a2,0x70100
800074cc:	00b6e6b3          	or	a3,a3,a1
800074d0:	00800813          	li	a6,8
800074d4:	00098793          	mv	a5,s3
800074d8:	00000713          	li	a4,0
800074dc:	c0060613          	addi	a2,a2,-1024 # 700ffc00 <__stack_size+0x700fdc00>
800074e0:	00090593          	mv	a1,s2
800074e4:	00048513          	mv	a0,s1
800074e8:	bd9fe0ef          	jal	800060c0 <lfs_dir_getslice>
800074ec:	f4055ee3          	bgez	a0,80007448 <lfs_dir_open+0x6c>
800074f0:	03c12083          	lw	ra,60(sp)
800074f4:	03812403          	lw	s0,56(sp)
800074f8:	02c12983          	lw	s3,44(sp)
800074fc:	03412483          	lw	s1,52(sp)
80007500:	03012903          	lw	s2,48(sp)
80007504:	04010113          	addi	sp,sp,64
80007508:	00008067          	ret
8000750c:	fec00513          	li	a0,-20
80007510:	f91ff06f          	j	800074a0 <lfs_dir_open+0xc4>

80007514 <lfs_dir_close>:
80007514:	02852783          	lw	a5,40(a0)
80007518:	00078e63          	beqz	a5,80007534 <lfs_dir_close+0x20>
8000751c:	00b79663          	bne	a5,a1,80007528 <lfs_dir_close+0x14>
80007520:	01c0006f          	j	8000753c <lfs_dir_close+0x28>
80007524:	00b78e63          	beq	a5,a1,80007540 <lfs_dir_close+0x2c>
80007528:	00078713          	mv	a4,a5
8000752c:	0007a783          	lw	a5,0(a5)
80007530:	fe079ae3          	bnez	a5,80007524 <lfs_dir_close+0x10>
80007534:	00000513          	li	a0,0
80007538:	00008067          	ret
8000753c:	02850713          	addi	a4,a0,40
80007540:	0005a783          	lw	a5,0(a1)
80007544:	00000513          	li	a0,0
80007548:	00f72023          	sw	a5,0(a4)
8000754c:	00008067          	ret

80007550 <lfs_dir_read>:
80007550:	fe010113          	addi	sp,sp,-32
80007554:	01312623          	sw	s3,12(sp)
80007558:	00060993          	mv	s3,a2
8000755c:	00812c23          	sw	s0,24(sp)
80007560:	00912a23          	sw	s1,20(sp)
80007564:	00058413          	mv	s0,a1
80007568:	00050493          	mv	s1,a0
8000756c:	10800613          	li	a2,264
80007570:	00000593          	li	a1,0
80007574:	00098513          	mv	a0,s3
80007578:	00112e23          	sw	ra,28(sp)
8000757c:	925fb0ef          	jal	80002ea0 <memset>
80007580:	02842783          	lw	a5,40(s0)
80007584:	10078063          	beqz	a5,80007684 <lfs_dir_read+0x134>
80007588:	00100713          	li	a4,1
8000758c:	14e78263          	beq	a5,a4,800076d0 <lfs_dir_read+0x180>
80007590:	00445303          	lhu	t1,4(s0)
80007594:	01212823          	sw	s2,16(sp)
80007598:	01412423          	sw	s4,8(sp)
8000759c:	01512223          	sw	s5,4(sp)
800075a0:	02040a13          	addi	s4,s0,32
800075a4:	00840913          	addi	s2,s0,8
800075a8:	ffe00a93          	li	s5,-2
800075ac:	01c45e03          	lhu	t3,28(s0)
800075b0:	00000893          	li	a7,0
800075b4:	00000813          	li	a6,0
800075b8:	00000793          	li	a5,0
800075bc:	00000713          	li	a4,0
800075c0:	fff00693          	li	a3,-1
800075c4:	000a0613          	mv	a2,s4
800075c8:	00090593          	mv	a1,s2
800075cc:	00048513          	mv	a0,s1
800075d0:	006e1e63          	bne	t3,t1,800075ec <lfs_dir_read+0x9c>
800075d4:	01f44303          	lbu	t1,31(s0)
800075d8:	0c030863          	beqz	t1,800076a8 <lfs_dir_read+0x158>
800075dc:	b40ff0ef          	jal	8000691c <lfs_dir_fetchmatch>
800075e0:	08051063          	bnez	a0,80007660 <lfs_dir_read+0x110>
800075e4:	00000313          	li	t1,0
800075e8:	00041223          	sh	zero,4(s0)
800075ec:	00098693          	mv	a3,s3
800075f0:	00030613          	mv	a2,t1
800075f4:	00090593          	mv	a1,s2
800075f8:	00048513          	mv	a0,s1
800075fc:	d91fe0ef          	jal	8000638c <lfs_dir_getinfo>
80007600:	04051263          	bnez	a0,80007644 <lfs_dir_read+0xf4>
80007604:	00445783          	lhu	a5,4(s0)
80007608:	02842703          	lw	a4,40(s0)
8000760c:	01012903          	lw	s2,16(sp)
80007610:	00812a03          	lw	s4,8(sp)
80007614:	00412a83          	lw	s5,4(sp)
80007618:	00178793          	addi	a5,a5,1
8000761c:	00f41223          	sh	a5,4(s0)
80007620:	00170713          	addi	a4,a4,1
80007624:	01c12083          	lw	ra,28(sp)
80007628:	02e42423          	sw	a4,40(s0)
8000762c:	01812403          	lw	s0,24(sp)
80007630:	01412483          	lw	s1,20(sp)
80007634:	00c12983          	lw	s3,12(sp)
80007638:	00100513          	li	a0,1
8000763c:	02010113          	addi	sp,sp,32
80007640:	00008067          	ret
80007644:	01551e63          	bne	a0,s5,80007660 <lfs_dir_read+0x110>
80007648:	00445303          	lhu	t1,4(s0)
8000764c:	00130313          	addi	t1,t1,1
80007650:	01031313          	slli	t1,t1,0x10
80007654:	01035313          	srli	t1,t1,0x10
80007658:	00641223          	sh	t1,4(s0)
8000765c:	f51ff06f          	j	800075ac <lfs_dir_read+0x5c>
80007660:	01c12083          	lw	ra,28(sp)
80007664:	01812403          	lw	s0,24(sp)
80007668:	01012903          	lw	s2,16(sp)
8000766c:	00812a03          	lw	s4,8(sp)
80007670:	00412a83          	lw	s5,4(sp)
80007674:	01412483          	lw	s1,20(sp)
80007678:	00c12983          	lw	s3,12(sp)
8000767c:	02010113          	addi	sp,sp,32
80007680:	00008067          	ret
80007684:	00200793          	li	a5,2
80007688:	800105b7          	lui	a1,0x80010
8000768c:	00f98023          	sb	a5,0(s3)
80007690:	f5058593          	addi	a1,a1,-176 # 8000ff50 <_ctype_+0xe4>
80007694:	00898513          	addi	a0,s3,8
80007698:	b11fb0ef          	jal	800031a8 <strcpy>
8000769c:	02842703          	lw	a4,40(s0)
800076a0:	00170713          	addi	a4,a4,1
800076a4:	f81ff06f          	j	80007624 <lfs_dir_read+0xd4>
800076a8:	01c12083          	lw	ra,28(sp)
800076ac:	01812403          	lw	s0,24(sp)
800076b0:	01012903          	lw	s2,16(sp)
800076b4:	00812a03          	lw	s4,8(sp)
800076b8:	00412a83          	lw	s5,4(sp)
800076bc:	01412483          	lw	s1,20(sp)
800076c0:	00c12983          	lw	s3,12(sp)
800076c4:	00000513          	li	a0,0
800076c8:	02010113          	addi	sp,sp,32
800076cc:	00008067          	ret
800076d0:	00200793          	li	a5,2
800076d4:	800105b7          	lui	a1,0x80010
800076d8:	00f98023          	sb	a5,0(s3)
800076dc:	f5458593          	addi	a1,a1,-172 # 8000ff54 <_ctype_+0xe8>
800076e0:	00898513          	addi	a0,s3,8
800076e4:	ac5fb0ef          	jal	800031a8 <strcpy>
800076e8:	02842703          	lw	a4,40(s0)
800076ec:	00170713          	addi	a4,a4,1
800076f0:	f35ff06f          	j	80007624 <lfs_dir_read+0xd4>

800076f4 <lfs_dir_seek>:
800076f4:	fe010113          	addi	sp,sp,-32
800076f8:	01312623          	sw	s3,12(sp)
800076fc:	00858993          	addi	s3,a1,8
80007700:	00812c23          	sw	s0,24(sp)
80007704:	01612023          	sw	s6,0(sp)
80007708:	00058413          	mv	s0,a1
8000770c:	00060b13          	mv	s6,a2
80007710:	00000893          	li	a7,0
80007714:	02c58613          	addi	a2,a1,44
80007718:	00000813          	li	a6,0
8000771c:	00000793          	li	a5,0
80007720:	00000713          	li	a4,0
80007724:	fff00693          	li	a3,-1
80007728:	00098593          	mv	a1,s3
8000772c:	01212823          	sw	s2,16(sp)
80007730:	01412423          	sw	s4,8(sp)
80007734:	00112e23          	sw	ra,28(sp)
80007738:	00050913          	mv	s2,a0
8000773c:	9e0ff0ef          	jal	8000691c <lfs_dir_fetchmatch>
80007740:	00050a13          	mv	s4,a0
80007744:	0a051863          	bnez	a0,800077f4 <lfs_dir_seek+0x100>
80007748:	03042703          	lw	a4,48(s0)
8000774c:	02c42783          	lw	a5,44(s0)
80007750:	00912a23          	sw	s1,20(sp)
80007754:	01512223          	sw	s5,4(sp)
80007758:	00e42623          	sw	a4,12(s0)
8000775c:	00f42423          	sw	a5,8(s0)
80007760:	00041223          	sh	zero,4(s0)
80007764:	00200793          	li	a5,2
80007768:	000b0713          	mv	a4,s6
8000776c:	0b67e663          	bltu	a5,s6,80007818 <lfs_dir_seek+0x124>
80007770:	02e42423          	sw	a4,40(s0)
80007774:	40eb04b3          	sub	s1,s6,a4
80007778:	02040a93          	addi	s5,s0,32
8000777c:	0aeb0263          	beq	s6,a4,80007820 <lfs_dir_seek+0x12c>
80007780:	01c45683          	lhu	a3,28(s0)
80007784:	00068793          	mv	a5,a3
80007788:	00d4f463          	bgeu	s1,a3,80007790 <lfs_dir_seek+0x9c>
8000778c:	00048793          	mv	a5,s1
80007790:	01079613          	slli	a2,a5,0x10
80007794:	00f70733          	add	a4,a4,a5
80007798:	01065613          	srli	a2,a2,0x10
8000779c:	02e42423          	sw	a4,40(s0)
800077a0:	00c41223          	sh	a2,4(s0)
800077a4:	40f484b3          	sub	s1,s1,a5
800077a8:	00c68863          	beq	a3,a2,800077b8 <lfs_dir_seek+0xc4>
800077ac:	06048a63          	beqz	s1,80007820 <lfs_dir_seek+0x12c>
800077b0:	02842703          	lw	a4,40(s0)
800077b4:	fcdff06f          	j	80007780 <lfs_dir_seek+0x8c>
800077b8:	01f44303          	lbu	t1,31(s0)
800077bc:	00000893          	li	a7,0
800077c0:	00000813          	li	a6,0
800077c4:	00000793          	li	a5,0
800077c8:	00000713          	li	a4,0
800077cc:	fff00693          	li	a3,-1
800077d0:	000a8613          	mv	a2,s5
800077d4:	00098593          	mv	a1,s3
800077d8:	00090513          	mv	a0,s2
800077dc:	04030863          	beqz	t1,8000782c <lfs_dir_seek+0x138>
800077e0:	93cff0ef          	jal	8000691c <lfs_dir_fetchmatch>
800077e4:	fc0504e3          	beqz	a0,800077ac <lfs_dir_seek+0xb8>
800077e8:	01412483          	lw	s1,20(sp)
800077ec:	00412a83          	lw	s5,4(sp)
800077f0:	00050a13          	mv	s4,a0
800077f4:	01c12083          	lw	ra,28(sp)
800077f8:	01812403          	lw	s0,24(sp)
800077fc:	01012903          	lw	s2,16(sp)
80007800:	00c12983          	lw	s3,12(sp)
80007804:	00012b03          	lw	s6,0(sp)
80007808:	000a0513          	mv	a0,s4
8000780c:	00812a03          	lw	s4,8(sp)
80007810:	02010113          	addi	sp,sp,32
80007814:	00008067          	ret
80007818:	00200713          	li	a4,2
8000781c:	f55ff06f          	j	80007770 <lfs_dir_seek+0x7c>
80007820:	01412483          	lw	s1,20(sp)
80007824:	00412a83          	lw	s5,4(sp)
80007828:	fcdff06f          	j	800077f4 <lfs_dir_seek+0x100>
8000782c:	01412483          	lw	s1,20(sp)
80007830:	00412a83          	lw	s5,4(sp)
80007834:	fea00a13          	li	s4,-22
80007838:	fbdff06f          	j	800077f4 <lfs_dir_seek+0x100>

8000783c <lfs_dir_tell>:
8000783c:	0285a503          	lw	a0,40(a1)
80007840:	00008067          	ret

80007844 <lfs_dir_rewind>:
80007844:	ff010113          	addi	sp,sp,-16
80007848:	00812423          	sw	s0,8(sp)
8000784c:	02c58613          	addi	a2,a1,44
80007850:	00058413          	mv	s0,a1
80007854:	00000893          	li	a7,0
80007858:	00000813          	li	a6,0
8000785c:	00000793          	li	a5,0
80007860:	00000713          	li	a4,0
80007864:	fff00693          	li	a3,-1
80007868:	00858593          	addi	a1,a1,8
8000786c:	00112623          	sw	ra,12(sp)
80007870:	8acff0ef          	jal	8000691c <lfs_dir_fetchmatch>
80007874:	00051e63          	bnez	a0,80007890 <lfs_dir_rewind+0x4c>
80007878:	03042703          	lw	a4,48(s0)
8000787c:	02c42783          	lw	a5,44(s0)
80007880:	00041223          	sh	zero,4(s0)
80007884:	00e42623          	sw	a4,12(s0)
80007888:	00f42423          	sw	a5,8(s0)
8000788c:	02042423          	sw	zero,40(s0)
80007890:	00c12083          	lw	ra,12(sp)
80007894:	00812403          	lw	s0,8(sp)
80007898:	01010113          	addi	sp,sp,16
8000789c:	00008067          	ret

800078a0 <lfs_file_tell>:
800078a0:	0345a503          	lw	a0,52(a1)
800078a4:	00008067          	ret

800078a8 <lfs_file_size>:
800078a8:	0305a703          	lw	a4,48(a1)
800078ac:	02c5a783          	lw	a5,44(a1)
800078b0:	00e71693          	slli	a3,a4,0xe
800078b4:	00078513          	mv	a0,a5
800078b8:	0006d663          	bgez	a3,800078c4 <lfs_file_size+0x1c>
800078bc:	0345a503          	lw	a0,52(a1)
800078c0:	00f56463          	bltu	a0,a5,800078c8 <lfs_file_size+0x20>
800078c4:	00008067          	ret
800078c8:	00078513          	mv	a0,a5
800078cc:	00008067          	ret

800078d0 <lfs_stat>:
800078d0:	fc010113          	addi	sp,sp,-64
800078d4:	02912a23          	sw	s1,52(sp)
800078d8:	00b12623          	sw	a1,12(sp)
800078dc:	00060493          	mv	s1,a2
800078e0:	00000693          	li	a3,0
800078e4:	00c10613          	addi	a2,sp,12
800078e8:	01010593          	addi	a1,sp,16
800078ec:	02812c23          	sw	s0,56(sp)
800078f0:	02112e23          	sw	ra,60(sp)
800078f4:	00050413          	mv	s0,a0
800078f8:	f9cff0ef          	jal	80007094 <lfs_dir_find>
800078fc:	00054e63          	bltz	a0,80007918 <lfs_stat+0x48>
80007900:	00a55613          	srli	a2,a0,0xa
80007904:	00048693          	mv	a3,s1
80007908:	3ff67613          	andi	a2,a2,1023
8000790c:	01010593          	addi	a1,sp,16
80007910:	00040513          	mv	a0,s0
80007914:	a79fe0ef          	jal	8000638c <lfs_dir_getinfo>
80007918:	03c12083          	lw	ra,60(sp)
8000791c:	03812403          	lw	s0,56(sp)
80007920:	03412483          	lw	s1,52(sp)
80007924:	04010113          	addi	sp,sp,64
80007928:	00008067          	ret

8000792c <lfs_getattr>:
8000792c:	fb010113          	addi	sp,sp,-80
80007930:	04812423          	sw	s0,72(sp)
80007934:	05212023          	sw	s2,64(sp)
80007938:	00060413          	mv	s0,a2
8000793c:	00068913          	mv	s2,a3
80007940:	00b12623          	sw	a1,12(sp)
80007944:	00000693          	li	a3,0
80007948:	00c10613          	addi	a2,sp,12
8000794c:	01010593          	addi	a1,sp,16
80007950:	04912223          	sw	s1,68(sp)
80007954:	03312e23          	sw	s3,60(sp)
80007958:	04112623          	sw	ra,76(sp)
8000795c:	00050493          	mv	s1,a0
80007960:	00070993          	mv	s3,a4
80007964:	f30ff0ef          	jal	80007094 <lfs_dir_find>
80007968:	04054c63          	bltz	a0,800079c0 <lfs_getattr+0x94>
8000796c:	00a55593          	srli	a1,a0,0xa
80007970:	3ff5f593          	andi	a1,a1,1023
80007974:	3ff00793          	li	a5,1023
80007978:	00a59693          	slli	a3,a1,0xa
8000797c:	06f58c63          	beq	a1,a5,800079f4 <lfs_getattr+0xc8>
80007980:	0744a803          	lw	a6,116(s1)
80007984:	30040413          	addi	s0,s0,768
80007988:	01441413          	slli	s0,s0,0x14
8000798c:	0509e863          	bltu	s3,a6,800079dc <lfs_getattr+0xb0>
80007990:	01046433          	or	s0,s0,a6
80007994:	80000637          	lui	a2,0x80000
80007998:	3ff87813          	andi	a6,a6,1023
8000799c:	00090793          	mv	a5,s2
800079a0:	00000713          	li	a4,0
800079a4:	00d466b3          	or	a3,s0,a3
800079a8:	c0060613          	addi	a2,a2,-1024 # 7ffffc00 <__stack_size+0x7fffdc00>
800079ac:	01010593          	addi	a1,sp,16
800079b0:	00048513          	mv	a0,s1
800079b4:	f0cfe0ef          	jal	800060c0 <lfs_dir_getslice>
800079b8:	02054663          	bltz	a0,800079e4 <lfs_getattr+0xb8>
800079bc:	3ff57513          	andi	a0,a0,1023
800079c0:	04c12083          	lw	ra,76(sp)
800079c4:	04812403          	lw	s0,72(sp)
800079c8:	04412483          	lw	s1,68(sp)
800079cc:	04012903          	lw	s2,64(sp)
800079d0:	03c12983          	lw	s3,60(sp)
800079d4:	05010113          	addi	sp,sp,80
800079d8:	00008067          	ret
800079dc:	00098813          	mv	a6,s3
800079e0:	fb1ff06f          	j	80007990 <lfs_getattr+0x64>
800079e4:	ffe00793          	li	a5,-2
800079e8:	fcf51ce3          	bne	a0,a5,800079c0 <lfs_getattr+0x94>
800079ec:	fc300513          	li	a0,-61
800079f0:	fd1ff06f          	j	800079c0 <lfs_getattr+0x94>
800079f4:	00000893          	li	a7,0
800079f8:	00000813          	li	a6,0
800079fc:	00000793          	li	a5,0
80007a00:	00000713          	li	a4,0
80007a04:	fff00693          	li	a3,-1
80007a08:	02048613          	addi	a2,s1,32
80007a0c:	01010593          	addi	a1,sp,16
80007a10:	00048513          	mv	a0,s1
80007a14:	f09fe0ef          	jal	8000691c <lfs_dir_fetchmatch>
80007a18:	fa0514e3          	bnez	a0,800079c0 <lfs_getattr+0x94>
80007a1c:	0744a803          	lw	a6,116(s1)
80007a20:	30040413          	addi	s0,s0,768
80007a24:	00000693          	li	a3,0
80007a28:	01441413          	slli	s0,s0,0x14
80007a2c:	f709f2e3          	bgeu	s3,a6,80007990 <lfs_getattr+0x64>
80007a30:	fadff06f          	j	800079dc <lfs_getattr+0xb0>

80007a34 <lfs_mount>:
80007a34:	f8010113          	addi	sp,sp,-128
80007a38:	06812c23          	sw	s0,120(sp)
80007a3c:	05a12823          	sw	s10,80(sp)
80007a40:	06112e23          	sw	ra,124(sp)
80007a44:	00050d13          	mv	s10,a0
80007a48:	981fd0ef          	jal	800053c8 <lfs_init>
80007a4c:	00050413          	mv	s0,a0
80007a50:	20051663          	bnez	a0,80007c5c <lfs_mount+0x228>
80007a54:	07212823          	sw	s2,112(sp)
80007a58:	07312623          	sw	s3,108(sp)
80007a5c:	07412423          	sw	s4,104(sp)
80007a60:	05812c23          	sw	s8,88(sp)
80007a64:	0ff009b7          	lui	s3,0xff00
80007a68:	80000937          	lui	s2,0x80000
80007a6c:	20100c37          	lui	s8,0x20100
80007a70:	00100793          	li	a5,1
80007a74:	80010a37          	lui	s4,0x80010
80007a78:	06912a23          	sw	s1,116(sp)
80007a7c:	07512223          	sw	s5,100(sp)
80007a80:	07612023          	sw	s6,96(sp)
80007a84:	05712e23          	sw	s7,92(sp)
80007a88:	05912a23          	sw	s9,84(sp)
80007a8c:	02012823          	sw	zero,48(sp)
80007a90:	02012a23          	sw	zero,52(sp)
80007a94:	02012c23          	sw	zero,56(sp)
80007a98:	02012e23          	sw	zero,60(sp)
80007a9c:	04012023          	sw	zero,64(sp)
80007aa0:	04012223          	sw	zero,68(sp)
80007aa4:	04012423          	sw	zero,72(sp)
80007aa8:	04f12623          	sw	a5,76(sp)
80007aac:	f58a0a13          	addi	s4,s4,-168 # 8000ff58 <_ctype_+0xec>
80007ab0:	80005b37          	lui	s6,0x80005
80007ab4:	00800a93          	li	s5,8
80007ab8:	00898993          	addi	s3,s3,8 # ff00008 <__stack_size+0xfefe008>
80007abc:	c0090913          	addi	s2,s2,-1024 # 7ffffc00 <__stack_size+0x7fffdc00>
80007ac0:	fff00493          	li	s1,-1
80007ac4:	018c0c13          	addi	s8,s8,24 # 20100018 <__stack_size+0x200fe018>
80007ac8:	00200c93          	li	s9,2
80007acc:	03cd0b93          	addi	s7,s10,60
80007ad0:	00c10893          	addi	a7,sp,12
80007ad4:	2d0b0813          	addi	a6,s6,720 # 800052d0 <lfs_dir_find_match>
80007ad8:	00000793          	li	a5,0
80007adc:	00098713          	mv	a4,s3
80007ae0:	00090693          	mv	a3,s2
80007ae4:	04810613          	addi	a2,sp,72
80007ae8:	03010593          	addi	a1,sp,48
80007aec:	000d0513          	mv	a0,s10
80007af0:	01a12623          	sw	s10,12(sp)
80007af4:	01412823          	sw	s4,16(sp)
80007af8:	01512a23          	sw	s5,20(sp)
80007afc:	e21fe0ef          	jal	8000691c <lfs_dir_fetchmatch>
80007b00:	00050413          	mv	s0,a0
80007b04:	12054663          	bltz	a0,80007c30 <lfs_mount+0x1fc>
80007b08:	08040e63          	beqz	s0,80007ba4 <lfs_mount+0x170>
80007b0c:	01641413          	slli	s0,s0,0x16
80007b10:	41645413          	srai	s0,s0,0x16
80007b14:	08940863          	beq	s0,s1,80007ba4 <lfs_mount+0x170>
80007b18:	03412783          	lw	a5,52(sp)
80007b1c:	01800813          	li	a6,24
80007b20:	00000713          	li	a4,0
80007b24:	02fd2223          	sw	a5,36(s10)
80007b28:	03012783          	lw	a5,48(sp)
80007b2c:	000c0693          	mv	a3,s8
80007b30:	00090613          	mv	a2,s2
80007b34:	02fd2023          	sw	a5,32(s10)
80007b38:	03010593          	addi	a1,sp,48
80007b3c:	01810793          	addi	a5,sp,24
80007b40:	000d0513          	mv	a0,s10
80007b44:	d7cfe0ef          	jal	800060c0 <lfs_dir_getslice>
80007b48:	00050413          	mv	s0,a0
80007b4c:	0e054263          	bltz	a0,80007c30 <lfs_mount+0x1fc>
80007b50:	01812783          	lw	a5,24(sp)
80007b54:	0107d713          	srli	a4,a5,0x10
80007b58:	01079793          	slli	a5,a5,0x10
80007b5c:	0107d793          	srli	a5,a5,0x10
80007b60:	0d971663          	bne	a4,s9,80007c2c <lfs_mount+0x1f8>
80007b64:	0c079463          	bnez	a5,80007c2c <lfs_mount+0x1f8>
80007b68:	02412783          	lw	a5,36(sp)
80007b6c:	00078863          	beqz	a5,80007b7c <lfs_mount+0x148>
80007b70:	06cd2703          	lw	a4,108(s10)
80007b74:	0af76c63          	bltu	a4,a5,80007c2c <lfs_mount+0x1f8>
80007b78:	06fd2623          	sw	a5,108(s10)
80007b7c:	02812783          	lw	a5,40(sp)
80007b80:	00078863          	beqz	a5,80007b90 <lfs_mount+0x15c>
80007b84:	070d2703          	lw	a4,112(s10)
80007b88:	0af76263          	bltu	a4,a5,80007c2c <lfs_mount+0x1f8>
80007b8c:	06fd2823          	sw	a5,112(s10)
80007b90:	02c12783          	lw	a5,44(sp)
80007b94:	00078863          	beqz	a5,80007ba4 <lfs_mount+0x170>
80007b98:	074d2703          	lw	a4,116(s10)
80007b9c:	08f76863          	bltu	a4,a5,80007c2c <lfs_mount+0x1f8>
80007ba0:	06fd2a23          	sw	a5,116(s10)
80007ba4:	000b8613          	mv	a2,s7
80007ba8:	03010593          	addi	a1,sp,48
80007bac:	000d0513          	mv	a0,s10
80007bb0:	f58fe0ef          	jal	80006308 <lfs_dir_getgstate>
80007bb4:	00050413          	mv	s0,a0
80007bb8:	06051c63          	bnez	a0,80007c30 <lfs_mount+0x1fc>
80007bbc:	04812783          	lw	a5,72(sp)
80007bc0:	00978663          	beq	a5,s1,80007bcc <lfs_mount+0x198>
80007bc4:	04c12783          	lw	a5,76(sp)
80007bc8:	f09794e3          	bne	a5,s1,80007ad0 <lfs_mount+0x9c>
80007bcc:	020d2703          	lw	a4,32(s10)
80007bd0:	fff00793          	li	a5,-1
80007bd4:	04f70c63          	beq	a4,a5,80007c2c <lfs_mount+0x1f8>
80007bd8:	024d2703          	lw	a4,36(s10)
80007bdc:	04f70863          	beq	a4,a5,80007c2c <lfs_mount+0x1f8>
80007be0:	068d2783          	lw	a5,104(s10)
80007be4:	02cd2703          	lw	a4,44(s10)
80007be8:	03cd2683          	lw	a3,60(s10)
80007bec:	01c7a603          	lw	a2,28(a5)
80007bf0:	040d2503          	lw	a0,64(s10)
80007bf4:	044d2583          	lw	a1,68(s10)
80007bf8:	02c77733          	remu	a4,a4,a2
80007bfc:	0207a603          	lw	a2,32(a5)
80007c00:	01f6d793          	srli	a5,a3,0x1f
80007c04:	00d787b3          	add	a5,a5,a3
80007c08:	02fd2e23          	sw	a5,60(s10)
80007c0c:	02fd2823          	sw	a5,48(s10)
80007c10:	02ad2a23          	sw	a0,52(s10)
80007c14:	02bd2c23          	sw	a1,56(s10)
80007c18:	040d2c23          	sw	zero,88(s10)
80007c1c:	040d2e23          	sw	zero,92(s10)
80007c20:	06cd2023          	sw	a2,96(s10)
80007c24:	04ed2a23          	sw	a4,84(s10)
80007c28:	0100006f          	j	80007c38 <lfs_mount+0x204>
80007c2c:	fea00413          	li	s0,-22
80007c30:	000d0513          	mv	a0,s10
80007c34:	becfd0ef          	jal	80005020 <lfs_deinit>
80007c38:	07412483          	lw	s1,116(sp)
80007c3c:	07012903          	lw	s2,112(sp)
80007c40:	06c12983          	lw	s3,108(sp)
80007c44:	06812a03          	lw	s4,104(sp)
80007c48:	06412a83          	lw	s5,100(sp)
80007c4c:	06012b03          	lw	s6,96(sp)
80007c50:	05c12b83          	lw	s7,92(sp)
80007c54:	05812c03          	lw	s8,88(sp)
80007c58:	05412c83          	lw	s9,84(sp)
80007c5c:	07c12083          	lw	ra,124(sp)
80007c60:	00040513          	mv	a0,s0
80007c64:	07812403          	lw	s0,120(sp)
80007c68:	05012d03          	lw	s10,80(sp)
80007c6c:	08010113          	addi	sp,sp,128
80007c70:	00008067          	ret

80007c74 <lfs_unmount>:
80007c74:	06852783          	lw	a5,104(a0)
80007c78:	ff010113          	addi	sp,sp,-16
80007c7c:	00812423          	sw	s0,8(sp)
80007c80:	0307a703          	lw	a4,48(a5)
80007c84:	00112623          	sw	ra,12(sp)
80007c88:	00050413          	mv	s0,a0
80007c8c:	02070463          	beqz	a4,80007cb4 <lfs_unmount+0x40>
80007c90:	0347a703          	lw	a4,52(a5)
80007c94:	02070a63          	beqz	a4,80007cc8 <lfs_unmount+0x54>
80007c98:	0387a783          	lw	a5,56(a5)
80007c9c:	04078063          	beqz	a5,80007cdc <lfs_unmount+0x68>
80007ca0:	00c12083          	lw	ra,12(sp)
80007ca4:	00812403          	lw	s0,8(sp)
80007ca8:	00000513          	li	a0,0
80007cac:	01010113          	addi	sp,sp,16
80007cb0:	00008067          	ret
80007cb4:	00c52503          	lw	a0,12(a0)
80007cb8:	d6cfa0ef          	jal	80002224 <free>
80007cbc:	06842783          	lw	a5,104(s0)
80007cc0:	0347a703          	lw	a4,52(a5)
80007cc4:	fc071ae3          	bnez	a4,80007c98 <lfs_unmount+0x24>
80007cc8:	01c42503          	lw	a0,28(s0)
80007ccc:	d58fa0ef          	jal	80002224 <free>
80007cd0:	06842783          	lw	a5,104(s0)
80007cd4:	0387a783          	lw	a5,56(a5)
80007cd8:	fc0794e3          	bnez	a5,80007ca0 <lfs_unmount+0x2c>
80007cdc:	06442503          	lw	a0,100(s0)
80007ce0:	d44fa0ef          	jal	80002224 <free>
80007ce4:	00c12083          	lw	ra,12(sp)
80007ce8:	00812403          	lw	s0,8(sp)
80007cec:	00000513          	li	a0,0
80007cf0:	01010113          	addi	sp,sp,16
80007cf4:	00008067          	ret

80007cf8 <lfs_fs_traverse>:
80007cf8:	fa010113          	addi	sp,sp,-96
80007cfc:	00100793          	li	a5,1
80007d00:	04812c23          	sw	s0,88(sp)
80007d04:	04912a23          	sw	s1,84(sp)
80007d08:	05212823          	sw	s2,80(sp)
80007d0c:	00058493          	mv	s1,a1
80007d10:	04112e23          	sw	ra,92(sp)
80007d14:	00050413          	mv	s0,a0
80007d18:	00060913          	mv	s2,a2
80007d1c:	00012823          	sw	zero,16(sp)
80007d20:	00012a23          	sw	zero,20(sp)
80007d24:	00012c23          	sw	zero,24(sp)
80007d28:	00012e23          	sw	zero,28(sp)
80007d2c:	02012023          	sw	zero,32(sp)
80007d30:	02012223          	sw	zero,36(sp)
80007d34:	02012423          	sw	zero,40(sp)
80007d38:	02f12623          	sw	a5,44(sp)
80007d3c:	00000593          	li	a1,0
80007d40:	00090513          	mv	a0,s2
80007d44:	000480e7          	jalr	s1
80007d48:	16051063          	bnez	a0,80007ea8 <lfs_fs_traverse+0x1b0>
80007d4c:	02c12583          	lw	a1,44(sp)
80007d50:	00090513          	mv	a0,s2
80007d54:	000480e7          	jalr	s1
80007d58:	14051863          	bnez	a0,80007ea8 <lfs_fs_traverse+0x1b0>
80007d5c:	00000893          	li	a7,0
80007d60:	00000813          	li	a6,0
80007d64:	00000793          	li	a5,0
80007d68:	00000713          	li	a4,0
80007d6c:	fff00693          	li	a3,-1
80007d70:	02810613          	addi	a2,sp,40
80007d74:	01010593          	addi	a1,sp,16
80007d78:	00040513          	mv	a0,s0
80007d7c:	ba1fe0ef          	jal	8000691c <lfs_dir_fetchmatch>
80007d80:	12051463          	bnez	a0,80007ea8 <lfs_fs_traverse+0x1b0>
80007d84:	02415783          	lhu	a5,36(sp)
80007d88:	03712e23          	sw	s7,60(sp)
80007d8c:	05312623          	sw	s3,76(sp)
80007d90:	05412423          	sw	s4,72(sp)
80007d94:	00000b93          	li	s7,0
80007d98:	06078863          	beqz	a5,80007e08 <lfs_fs_traverse+0x110>
80007d9c:	20000a37          	lui	s4,0x20000
80007da0:	701009b7          	lui	s3,0x70100
80007da4:	05512223          	sw	s5,68(sp)
80007da8:	05612023          	sw	s6,64(sp)
80007dac:	008a0a13          	addi	s4,s4,8 # 20000008 <__stack_size+0x1fffe008>
80007db0:	c0098993          	addi	s3,s3,-1024 # 700ffc00 <__stack_size+0x700fdc00>
80007db4:	20200a93          	li	s5,514
80007db8:	ffe00b13          	li	s6,-2
80007dbc:	00ab9693          	slli	a3,s7,0xa
80007dc0:	00810793          	addi	a5,sp,8
80007dc4:	00800813          	li	a6,8
80007dc8:	00000713          	li	a4,0
80007dcc:	0146e6b3          	or	a3,a3,s4
80007dd0:	00098613          	mv	a2,s3
80007dd4:	01010593          	addi	a1,sp,16
80007dd8:	00040513          	mv	a0,s0
80007ddc:	ae4fe0ef          	jal	800060c0 <lfs_dir_getslice>
80007de0:	01455793          	srli	a5,a0,0x14
80007de4:	0a054663          	bltz	a0,80007e90 <lfs_fs_traverse+0x198>
80007de8:	0d578c63          	beq	a5,s5,80007ec0 <lfs_fs_traverse+0x1c8>
80007dec:	001b8b93          	addi	s7,s7,1
80007df0:	02415703          	lhu	a4,36(sp)
80007df4:	010b9793          	slli	a5,s7,0x10
80007df8:	0107d793          	srli	a5,a5,0x10
80007dfc:	fce7e0e3          	bltu	a5,a4,80007dbc <lfs_fs_traverse+0xc4>
80007e00:	04412a83          	lw	s5,68(sp)
80007e04:	04012b03          	lw	s6,64(sp)
80007e08:	02812583          	lw	a1,40(sp)
80007e0c:	fff00713          	li	a4,-1
80007e10:	00e58663          	beq	a1,a4,80007e1c <lfs_fs_traverse+0x124>
80007e14:	02c12783          	lw	a5,44(sp)
80007e18:	12e79063          	bne	a5,a4,80007f38 <lfs_fs_traverse+0x240>
80007e1c:	02842983          	lw	s3,40(s0)
80007e20:	00100a13          	li	s4,1
80007e24:	02099063          	bnez	s3,80007e44 <lfs_fs_traverse+0x14c>
80007e28:	0fc0006f          	j	80007f24 <lfs_fs_traverse+0x22c>
80007e2c:	00120737          	lui	a4,0x120
80007e30:	000207b7          	lui	a5,0x20
80007e34:	00e8f8b3          	and	a7,a7,a4
80007e38:	0af88a63          	beq	a7,a5,80007eec <lfs_fs_traverse+0x1f4>
80007e3c:	0009a983          	lw	s3,0(s3)
80007e40:	0e098263          	beqz	s3,80007f24 <lfs_fs_traverse+0x22c>
80007e44:	0069c783          	lbu	a5,6(s3)
80007e48:	00010737          	lui	a4,0x10
80007e4c:	ff4798e3          	bne	a5,s4,80007e3c <lfs_fs_traverse+0x144>
80007e50:	0309a883          	lw	a7,48(s3)
80007e54:	001107b7          	lui	a5,0x110
80007e58:	00f8f7b3          	and	a5,a7,a5
80007e5c:	fce798e3          	bne	a5,a4,80007e2c <lfs_fs_traverse+0x134>
80007e60:	02c9a703          	lw	a4,44(s3)
80007e64:	0289a683          	lw	a3,40(s3)
80007e68:	00090813          	mv	a6,s2
80007e6c:	00048793          	mv	a5,s1
80007e70:	00040613          	mv	a2,s0
80007e74:	04098593          	addi	a1,s3,64
80007e78:	00040513          	mv	a0,s0
80007e7c:	fa0708e3          	beqz	a4,80007e2c <lfs_fs_traverse+0x134>
80007e80:	facfe0ef          	jal	8000662c <lfs_ctz_traverse.part.0>
80007e84:	08051863          	bnez	a0,80007f14 <lfs_fs_traverse+0x21c>
80007e88:	0309a883          	lw	a7,48(s3)
80007e8c:	fa1ff06f          	j	80007e2c <lfs_fs_traverse+0x134>
80007e90:	f5650ee3          	beq	a0,s6,80007dec <lfs_fs_traverse+0xf4>
80007e94:	04c12983          	lw	s3,76(sp)
80007e98:	04812a03          	lw	s4,72(sp)
80007e9c:	04412a83          	lw	s5,68(sp)
80007ea0:	04012b03          	lw	s6,64(sp)
80007ea4:	03c12b83          	lw	s7,60(sp)
80007ea8:	05c12083          	lw	ra,92(sp)
80007eac:	05812403          	lw	s0,88(sp)
80007eb0:	05412483          	lw	s1,84(sp)
80007eb4:	05012903          	lw	s2,80(sp)
80007eb8:	06010113          	addi	sp,sp,96
80007ebc:	00008067          	ret
80007ec0:	00c12703          	lw	a4,12(sp)
80007ec4:	00812683          	lw	a3,8(sp)
80007ec8:	00090813          	mv	a6,s2
80007ecc:	00048793          	mv	a5,s1
80007ed0:	00040613          	mv	a2,s0
80007ed4:	00000593          	li	a1,0
80007ed8:	00040513          	mv	a0,s0
80007edc:	f00708e3          	beqz	a4,80007dec <lfs_fs_traverse+0xf4>
80007ee0:	f4cfe0ef          	jal	8000662c <lfs_ctz_traverse.part.0>
80007ee4:	f00504e3          	beqz	a0,80007dec <lfs_fs_traverse+0xf4>
80007ee8:	fadff06f          	j	80007e94 <lfs_fs_traverse+0x19c>
80007eec:	0349a703          	lw	a4,52(s3)
80007ef0:	0389a683          	lw	a3,56(s3)
80007ef4:	00090813          	mv	a6,s2
80007ef8:	00048793          	mv	a5,s1
80007efc:	00040613          	mv	a2,s0
80007f00:	04098593          	addi	a1,s3,64
80007f04:	00040513          	mv	a0,s0
80007f08:	f2070ae3          	beqz	a4,80007e3c <lfs_fs_traverse+0x144>
80007f0c:	f20fe0ef          	jal	8000662c <lfs_ctz_traverse.part.0>
80007f10:	f20506e3          	beqz	a0,80007e3c <lfs_fs_traverse+0x144>
80007f14:	04c12983          	lw	s3,76(sp)
80007f18:	04812a03          	lw	s4,72(sp)
80007f1c:	03c12b83          	lw	s7,60(sp)
80007f20:	f89ff06f          	j	80007ea8 <lfs_fs_traverse+0x1b0>
80007f24:	04c12983          	lw	s3,76(sp)
80007f28:	04812a03          	lw	s4,72(sp)
80007f2c:	03c12b83          	lw	s7,60(sp)
80007f30:	00000513          	li	a0,0
80007f34:	f75ff06f          	j	80007ea8 <lfs_fs_traverse+0x1b0>
80007f38:	04c12983          	lw	s3,76(sp)
80007f3c:	04812a03          	lw	s4,72(sp)
80007f40:	03c12b83          	lw	s7,60(sp)
80007f44:	dfdff06f          	j	80007d40 <lfs_fs_traverse+0x48>

80007f48 <lfs_alloc>:
80007f48:	ff010113          	addi	sp,sp,-16
80007f4c:	00812423          	sw	s0,8(sp)
80007f50:	00912223          	sw	s1,4(sp)
80007f54:	01212023          	sw	s2,0(sp)
80007f58:	00112623          	sw	ra,12(sp)
80007f5c:	00050413          	mv	s0,a0
80007f60:	00058913          	mv	s2,a1
80007f64:	00100493          	li	s1,1
80007f68:	05842883          	lw	a7,88(s0)
80007f6c:	06042503          	lw	a0,96(s0)
80007f70:	05c42703          	lw	a4,92(s0)
80007f74:	0280006f          	j	80007f9c <lfs_alloc+0x54>
80007f78:	06442803          	lw	a6,100(s0)
80007f7c:	fff50513          	addi	a0,a0,-1
80007f80:	04c42e23          	sw	a2,92(s0)
80007f84:	06a42023          	sw	a0,96(s0)
80007f88:	00f807b3          	add	a5,a6,a5
80007f8c:	0007a783          	lw	a5,0(a5) # 110000 <__stack_size+0x10e000>
80007f90:	00f6f6b3          	and	a3,a3,a5
80007f94:	08068463          	beqz	a3,8000801c <lfs_alloc+0xd4>
80007f98:	00060713          	mv	a4,a2
80007f9c:	00575793          	srli	a5,a4,0x5
80007fa0:	00170613          	addi	a2,a4,1 # 10001 <__stack_size+0xe001>
80007fa4:	00279793          	slli	a5,a5,0x2
80007fa8:	00e496b3          	sll	a3,s1,a4
80007fac:	fce896e3          	bne	a7,a4,80007f78 <lfs_alloc+0x30>
80007fb0:	0e050863          	beqz	a0,800080a0 <lfs_alloc+0x158>
80007fb4:	06842783          	lw	a5,104(s0)
80007fb8:	05442683          	lw	a3,84(s0)
80007fbc:	0207a703          	lw	a4,32(a5)
80007fc0:	00d888b3          	add	a7,a7,a3
80007fc4:	02c7a603          	lw	a2,44(a5)
80007fc8:	02e8f8b3          	remu	a7,a7,a4
80007fcc:	00361793          	slli	a5,a2,0x3
80007fd0:	05142a23          	sw	a7,84(s0)
80007fd4:	0cf56263          	bltu	a0,a5,80008098 <lfs_alloc+0x150>
80007fd8:	06442503          	lw	a0,100(s0)
80007fdc:	00000593          	li	a1,0
80007fe0:	04f42c23          	sw	a5,88(s0)
80007fe4:	04042e23          	sw	zero,92(s0)
80007fe8:	eb9fa0ef          	jal	80002ea0 <memset>
80007fec:	800055b7          	lui	a1,0x80005
80007ff0:	00040613          	mv	a2,s0
80007ff4:	ee058593          	addi	a1,a1,-288 # 80004ee0 <lfs_alloc_lookahead>
80007ff8:	00040513          	mv	a0,s0
80007ffc:	cfdff0ef          	jal	80007cf8 <lfs_fs_traverse>
80008000:	f60504e3          	beqz	a0,80007f68 <lfs_alloc+0x20>
80008004:	00c12083          	lw	ra,12(sp)
80008008:	00812403          	lw	s0,8(sp)
8000800c:	00412483          	lw	s1,4(sp)
80008010:	00012903          	lw	s2,0(sp)
80008014:	01010113          	addi	sp,sp,16
80008018:	00008067          	ret
8000801c:	06842783          	lw	a5,104(s0)
80008020:	05442683          	lw	a3,84(s0)
80008024:	00100513          	li	a0,1
80008028:	0207a783          	lw	a5,32(a5)
8000802c:	00d70733          	add	a4,a4,a3
80008030:	02f77733          	remu	a4,a4,a5
80008034:	00e92023          	sw	a4,0(s2)
80008038:	05c42783          	lw	a5,92(s0)
8000803c:	05842603          	lw	a2,88(s0)
80008040:	00f61e63          	bne	a2,a5,8000805c <lfs_alloc+0x114>
80008044:	0380006f          	j	8000807c <lfs_alloc+0x134>
80008048:	06042703          	lw	a4,96(s0)
8000804c:	04f42e23          	sw	a5,92(s0)
80008050:	fff70713          	addi	a4,a4,-1
80008054:	06e42023          	sw	a4,96(s0)
80008058:	02c78263          	beq	a5,a2,8000807c <lfs_alloc+0x134>
8000805c:	0057d713          	srli	a4,a5,0x5
80008060:	00271713          	slli	a4,a4,0x2
80008064:	00e80733          	add	a4,a6,a4
80008068:	00072683          	lw	a3,0(a4)
8000806c:	00f51733          	sll	a4,a0,a5
80008070:	00178793          	addi	a5,a5,1
80008074:	00d77733          	and	a4,a4,a3
80008078:	fc0718e3          	bnez	a4,80008048 <lfs_alloc+0x100>
8000807c:	00c12083          	lw	ra,12(sp)
80008080:	00812403          	lw	s0,8(sp)
80008084:	00412483          	lw	s1,4(sp)
80008088:	00012903          	lw	s2,0(sp)
8000808c:	00000513          	li	a0,0
80008090:	01010113          	addi	sp,sp,16
80008094:	00008067          	ret
80008098:	00050793          	mv	a5,a0
8000809c:	f3dff06f          	j	80007fd8 <lfs_alloc+0x90>
800080a0:	fe400513          	li	a0,-28
800080a4:	f61ff06f          	j	80008004 <lfs_alloc+0xbc>

800080a8 <lfs_dir_alloc>:
800080a8:	ff010113          	addi	sp,sp,-16
800080ac:	00812423          	sw	s0,8(sp)
800080b0:	00058413          	mv	s0,a1
800080b4:	00458593          	addi	a1,a1,4
800080b8:	00912223          	sw	s1,4(sp)
800080bc:	01212023          	sw	s2,0(sp)
800080c0:	00112623          	sw	ra,12(sp)
800080c4:	00050913          	mv	s2,a0
800080c8:	e81ff0ef          	jal	80007f48 <lfs_alloc>
800080cc:	00050493          	mv	s1,a0
800080d0:	08051a63          	bnez	a0,80008164 <lfs_dir_alloc+0xbc>
800080d4:	00040593          	mv	a1,s0
800080d8:	00090513          	mv	a0,s2
800080dc:	e6dff0ef          	jal	80007f48 <lfs_alloc>
800080e0:	00050493          	mv	s1,a0
800080e4:	08051063          	bnez	a0,80008164 <lfs_dir_alloc+0xbc>
800080e8:	00042703          	lw	a4,0(s0)
800080ec:	00400893          	li	a7,4
800080f0:	00840813          	addi	a6,s0,8
800080f4:	00000793          	li	a5,0
800080f8:	00400693          	li	a3,4
800080fc:	00090613          	mv	a2,s2
80008100:	00000593          	li	a1,0
80008104:	00090513          	mv	a0,s2
80008108:	f9dfc0ef          	jal	800050a4 <lfs_bd_read>
8000810c:	02050663          	beqz	a0,80008138 <lfs_dir_alloc+0x90>
80008110:	fac00793          	li	a5,-84
80008114:	02f50263          	beq	a0,a5,80008138 <lfs_dir_alloc+0x90>
80008118:	00c12083          	lw	ra,12(sp)
8000811c:	00812403          	lw	s0,8(sp)
80008120:	00050493          	mv	s1,a0
80008124:	00012903          	lw	s2,0(sp)
80008128:	00048513          	mv	a0,s1
8000812c:	00412483          	lw	s1,4(sp)
80008130:	01010113          	addi	sp,sp,16
80008134:	00008067          	ret
80008138:	00842783          	lw	a5,8(s0)
8000813c:	fff00713          	li	a4,-1
80008140:	00e42823          	sw	a4,16(s0)
80008144:	00178793          	addi	a5,a5,1
80008148:	ffe7f793          	andi	a5,a5,-2
8000814c:	00f42423          	sw	a5,8(s0)
80008150:	00400793          	li	a5,4
80008154:	00f42623          	sw	a5,12(s0)
80008158:	00042a23          	sw	zero,20(s0)
8000815c:	00e42c23          	sw	a4,24(s0)
80008160:	00e42e23          	sw	a4,28(s0)
80008164:	00c12083          	lw	ra,12(sp)
80008168:	00812403          	lw	s0,8(sp)
8000816c:	00012903          	lw	s2,0(sp)
80008170:	00048513          	mv	a0,s1
80008174:	00412483          	lw	s1,4(sp)
80008178:	01010113          	addi	sp,sp,16
8000817c:	00008067          	ret

80008180 <lfs_file_relocate>:
80008180:	fc010113          	addi	sp,sp,-64
80008184:	02912a23          	sw	s1,52(sp)
80008188:	00050493          	mv	s1,a0
8000818c:	03212823          	sw	s2,48(sp)
80008190:	03512223          	sw	s5,36(sp)
80008194:	03612023          	sw	s6,32(sp)
80008198:	01812c23          	sw	s8,24(sp)
8000819c:	00058913          	mv	s2,a1
800081a0:	04058a93          	addi	s5,a1,64
800081a4:	00858c13          	addi	s8,a1,8
800081a8:	01050b13          	addi	s6,a0,16
800081ac:	00c10593          	addi	a1,sp,12
800081b0:	00048513          	mv	a0,s1
800081b4:	03312623          	sw	s3,44(sp)
800081b8:	02112e23          	sw	ra,60(sp)
800081bc:	02812c23          	sw	s0,56(sp)
800081c0:	03412423          	sw	s4,40(sp)
800081c4:	01712e23          	sw	s7,28(sp)
800081c8:	d81ff0ef          	jal	80007f48 <lfs_alloc>
800081cc:	00050993          	mv	s3,a0
800081d0:	04051263          	bnez	a0,80008214 <lfs_file_relocate+0x94>
800081d4:	0684a503          	lw	a0,104(s1)
800081d8:	00c12a03          	lw	s4,12(sp)
800081dc:	00c52783          	lw	a5,12(a0)
800081e0:	000a0593          	mv	a1,s4
800081e4:	000780e7          	jalr	a5
800081e8:	00050993          	mv	s3,a0
800081ec:	04050e63          	beqz	a0,80008248 <lfs_file_relocate+0xc8>
800081f0:	fac00793          	li	a5,-84
800081f4:	02f51063          	bne	a0,a5,80008214 <lfs_file_relocate+0x94>
800081f8:	fff00793          	li	a5,-1
800081fc:	00f4a823          	sw	a5,16(s1)
80008200:	00c10593          	addi	a1,sp,12
80008204:	00048513          	mv	a0,s1
80008208:	d41ff0ef          	jal	80007f48 <lfs_alloc>
8000820c:	00050993          	mv	s3,a0
80008210:	fc0502e3          	beqz	a0,800081d4 <lfs_file_relocate+0x54>
80008214:	03c12083          	lw	ra,60(sp)
80008218:	03812403          	lw	s0,56(sp)
8000821c:	03412483          	lw	s1,52(sp)
80008220:	03012903          	lw	s2,48(sp)
80008224:	02812a03          	lw	s4,40(sp)
80008228:	02412a83          	lw	s5,36(sp)
8000822c:	02012b03          	lw	s6,32(sp)
80008230:	01c12b83          	lw	s7,28(sp)
80008234:	01812c03          	lw	s8,24(sp)
80008238:	00098513          	mv	a0,s3
8000823c:	02c12983          	lw	s3,44(sp)
80008240:	04010113          	addi	sp,sp,64
80008244:	00008067          	ret
80008248:	03c92683          	lw	a3,60(s2)
8000824c:	0a068863          	beqz	a3,800082fc <lfs_file_relocate+0x17c>
80008250:	00000413          	li	s0,0
80008254:	20100bb7          	lui	s7,0x20100
80008258:	0640006f          	j	800082bc <lfs_file_relocate+0x13c>
8000825c:	0684a783          	lw	a5,104(s1)
80008260:	00495703          	lhu	a4,4(s2)
80008264:	000a8613          	mv	a2,s5
80008268:	01c7ae03          	lw	t3,28(a5)
8000826c:	00a71713          	slli	a4,a4,0xa
80008270:	00040793          	mv	a5,s0
80008274:	000c0593          	mv	a1,s8
80008278:	01776733          	or	a4,a4,s7
8000827c:	0e6e6863          	bltu	t3,t1,8000836c <lfs_file_relocate+0x1ec>
80008280:	a44fe0ef          	jal	800064c4 <lfs_dir_getread.part.0.constprop.0>
80008284:	06051863          	bnez	a0,800082f4 <lfs_file_relocate+0x174>
80008288:	00040793          	mv	a5,s0
8000828c:	00100893          	li	a7,1
80008290:	00b10813          	addi	a6,sp,11
80008294:	000a0713          	mv	a4,s4
80008298:	00100693          	li	a3,1
8000829c:	00048613          	mv	a2,s1
800082a0:	000b0593          	mv	a1,s6
800082a4:	00048513          	mv	a0,s1
800082a8:	bfcfd0ef          	jal	800056a4 <lfs_bd_prog>
800082ac:	00140413          	addi	s0,s0,1
800082b0:	0a051663          	bnez	a0,8000835c <lfs_file_relocate+0x1dc>
800082b4:	03c92683          	lw	a3,60(s2)
800082b8:	04d47263          	bgeu	s0,a3,800082fc <lfs_file_relocate+0x17c>
800082bc:	03092703          	lw	a4,48(s2)
800082c0:	00100893          	li	a7,1
800082c4:	00b10813          	addi	a6,sp,11
800082c8:	00b71e13          	slli	t3,a4,0xb
800082cc:	00040793          	mv	a5,s0
800082d0:	00048613          	mv	a2,s1
800082d4:	000a8593          	mv	a1,s5
800082d8:	00048513          	mv	a0,s1
800082dc:	00140313          	addi	t1,s0,1
800082e0:	408686b3          	sub	a3,a3,s0
800082e4:	f60e4ce3          	bltz	t3,8000825c <lfs_file_relocate+0xdc>
800082e8:	03892703          	lw	a4,56(s2)
800082ec:	db9fc0ef          	jal	800050a4 <lfs_bd_read>
800082f0:	f8050ce3          	beqz	a0,80008288 <lfs_file_relocate+0x108>
800082f4:	00050993          	mv	s3,a0
800082f8:	f1dff06f          	j	80008214 <lfs_file_relocate+0x94>
800082fc:	0684a783          	lw	a5,104(s1)
80008300:	01c4a583          	lw	a1,28(s1)
80008304:	04c92503          	lw	a0,76(s2)
80008308:	0287a603          	lw	a2,40(a5)
8000830c:	badfa0ef          	jal	80002eb8 <memcpy>
80008310:	0104a603          	lw	a2,16(s1)
80008314:	0184a703          	lw	a4,24(s1)
80008318:	0144a683          	lw	a3,20(s1)
8000831c:	0684a783          	lw	a5,104(s1)
80008320:	04e92423          	sw	a4,72(s2)
80008324:	04c92023          	sw	a2,64(s2)
80008328:	04d92223          	sw	a3,68(s2)
8000832c:	0287a603          	lw	a2,40(a5)
80008330:	01c4a503          	lw	a0,28(s1)
80008334:	0ff00593          	li	a1,255
80008338:	b69fa0ef          	jal	80002ea0 <memset>
8000833c:	03092783          	lw	a5,48(s2)
80008340:	fff00713          	li	a4,-1
80008344:	00e4a823          	sw	a4,16(s1)
80008348:	00020737          	lui	a4,0x20
8000834c:	00e7e7b3          	or	a5,a5,a4
80008350:	03492c23          	sw	s4,56(s2)
80008354:	02f92823          	sw	a5,48(s2)
80008358:	ebdff06f          	j	80008214 <lfs_file_relocate+0x94>
8000835c:	fac00793          	li	a5,-84
80008360:	e8f50ce3          	beq	a0,a5,800081f8 <lfs_file_relocate+0x78>
80008364:	00050993          	mv	s3,a0
80008368:	eadff06f          	j	80008214 <lfs_file_relocate+0x94>
8000836c:	fac00993          	li	s3,-84
80008370:	ea5ff06f          	j	80008214 <lfs_file_relocate+0x94>

80008374 <lfs_file_write>:
80008374:	0305a803          	lw	a6,48(a1)
80008378:	fa010113          	addi	sp,sp,-96
8000837c:	04812c23          	sw	s0,88(sp)
80008380:	04912a23          	sw	s1,84(sp)
80008384:	05312623          	sw	s3,76(sp)
80008388:	05612023          	sw	s6,64(sp)
8000838c:	04112e23          	sw	ra,92(sp)
80008390:	00d81793          	slli	a5,a6,0xd
80008394:	00058493          	mv	s1,a1
80008398:	00050413          	mv	s0,a0
8000839c:	00060993          	mv	s3,a2
800083a0:	00068b13          	mv	s6,a3
800083a4:	2807c463          	bltz	a5,8000862c <lfs_file_write+0x2b8>
800083a8:	05212823          	sw	s2,80(sp)
800083ac:	01481793          	slli	a5,a6,0x14
800083b0:	0344a903          	lw	s2,52(s1)
800083b4:	0007da63          	bgez	a5,800083c8 <lfs_file_write+0x54>
800083b8:	02c4a783          	lw	a5,44(s1)
800083bc:	00f97663          	bgeu	s2,a5,800083c8 <lfs_file_write+0x54>
800083c0:	02f4aa23          	sw	a5,52(s1)
800083c4:	00078913          	mv	s2,a5
800083c8:	07042783          	lw	a5,112(s0)
800083cc:	012b0733          	add	a4,s6,s2
800083d0:	5ae7ec63          	bltu	a5,a4,80008988 <lfs_file_write+0x614>
800083d4:	00e81793          	slli	a5,a6,0xe
800083d8:	0407c463          	bltz	a5,80008420 <lfs_file_write+0xac>
800083dc:	02c4a783          	lw	a5,44(s1)
800083e0:	0527f063          	bgeu	a5,s2,80008420 <lfs_file_write+0xac>
800083e4:	03812c23          	sw	s8,56(sp)
800083e8:	02f4aa23          	sw	a5,52(s1)
800083ec:	01c10c13          	addi	s8,sp,28
800083f0:	00100693          	li	a3,1
800083f4:	000c0613          	mv	a2,s8
800083f8:	00048593          	mv	a1,s1
800083fc:	00040513          	mv	a0,s0
80008400:	00010e23          	sb	zero,28(sp)
80008404:	f71ff0ef          	jal	80008374 <lfs_file_write>
80008408:	00050313          	mv	t1,a0
8000840c:	4c054663          	bltz	a0,800088d8 <lfs_file_write+0x564>
80008410:	0344a783          	lw	a5,52(s1)
80008414:	fd27eee3          	bltu	a5,s2,800083f0 <lfs_file_write+0x7c>
80008418:	0304a803          	lw	a6,48(s1)
8000841c:	03812c03          	lw	s8,56(sp)
80008420:	00b81793          	slli	a5,a6,0xb
80008424:	1407c063          	bltz	a5,80008564 <lfs_file_write+0x1f0>
80008428:	0e0b0463          	beqz	s6,80008510 <lfs_file_write+0x19c>
8000842c:	05412423          	sw	s4,72(sp)
80008430:	03712e23          	sw	s7,60(sp)
80008434:	05512223          	sw	s5,68(sp)
80008438:	03912a23          	sw	s9,52(sp)
8000843c:	03b12623          	sw	s11,44(sp)
80008440:	000b0b93          	mv	s7,s6
80008444:	04048913          	addi	s2,s1,64
80008448:	fac00a13          	li	s4,-84
8000844c:	00e81793          	slli	a5,a6,0xe
80008450:	0c07de63          	bgez	a5,8000852c <lfs_file_write+0x1b8>
80008454:	06842783          	lw	a5,104(s0)
80008458:	03c4ac83          	lw	s9,60(s1)
8000845c:	01c7a703          	lw	a4,28(a5)
80008460:	20ec8c63          	beq	s9,a4,80008678 <lfs_file_write+0x304>
80008464:	0384ad83          	lw	s11,56(s1)
80008468:	41970733          	sub	a4,a4,s9
8000846c:	000b8a93          	mv	s5,s7
80008470:	03777263          	bgeu	a4,s7,80008494 <lfs_file_write+0x120>
80008474:	00070a93          	mv	s5,a4
80008478:	01c0006f          	j	80008494 <lfs_file_write+0x120>
8000847c:	17431463          	bne	t1,s4,800085e4 <lfs_file_write+0x270>
80008480:	d01ff0ef          	jal	80008180 <lfs_file_relocate>
80008484:	00050313          	mv	t1,a0
80008488:	14051e63          	bnez	a0,800085e4 <lfs_file_write+0x270>
8000848c:	0384ad83          	lw	s11,56(s1)
80008490:	03c4ac83          	lw	s9,60(s1)
80008494:	00090593          	mv	a1,s2
80008498:	000a8893          	mv	a7,s5
8000849c:	00098813          	mv	a6,s3
800084a0:	000c8793          	mv	a5,s9
800084a4:	000d8713          	mv	a4,s11
800084a8:	00100693          	li	a3,1
800084ac:	00040613          	mv	a2,s0
800084b0:	00040513          	mv	a0,s0
800084b4:	9f0fd0ef          	jal	800056a4 <lfs_bd_prog>
800084b8:	00050313          	mv	t1,a0
800084bc:	00048593          	mv	a1,s1
800084c0:	00040513          	mv	a0,s0
800084c4:	fa031ce3          	bnez	t1,8000847c <lfs_file_write+0x108>
800084c8:	06842683          	lw	a3,104(s0)
800084cc:	0344a703          	lw	a4,52(s1)
800084d0:	03c4a783          	lw	a5,60(s1)
800084d4:	0206a683          	lw	a3,32(a3) # 78000020 <__stack_size+0x77ffe020>
800084d8:	01570733          	add	a4,a4,s5
800084dc:	015787b3          	add	a5,a5,s5
800084e0:	02e4aa23          	sw	a4,52(s1)
800084e4:	02f4ae23          	sw	a5,60(s1)
800084e8:	415b8bb3          	sub	s7,s7,s5
800084ec:	06d42023          	sw	a3,96(s0)
800084f0:	0304a803          	lw	a6,48(s1)
800084f4:	015989b3          	add	s3,s3,s5
800084f8:	f40b9ae3          	bnez	s7,8000844c <lfs_file_write+0xd8>
800084fc:	04812a03          	lw	s4,72(sp)
80008500:	04412a83          	lw	s5,68(sp)
80008504:	03c12b83          	lw	s7,60(sp)
80008508:	03412c83          	lw	s9,52(sp)
8000850c:	02c12d83          	lw	s11,44(sp)
80008510:	fff807b7          	lui	a5,0xfff80
80008514:	fff78793          	addi	a5,a5,-1 # fff7ffff <fs+0x7ff02fff>
80008518:	00f877b3          	and	a5,a6,a5
8000851c:	05012903          	lw	s2,80(sp)
80008520:	02f4a823          	sw	a5,48(s1)
80008524:	000b0313          	mv	t1,s6
80008528:	0e40006f          	j	8000860c <lfs_file_write+0x298>
8000852c:	00b81793          	slli	a5,a6,0xb
80008530:	0807de63          	bgez	a5,800085cc <lfs_file_write+0x258>
80008534:	06842783          	lw	a5,104(s0)
80008538:	01c7a703          	lw	a4,28(a5)
8000853c:	0344ac83          	lw	s9,52(s1)
80008540:	ffe00793          	li	a5,-2
80008544:	02f4ac23          	sw	a5,56(s1)
80008548:	0394ae23          	sw	s9,60(s1)
8000854c:	41970733          	sub	a4,a4,s9
80008550:	ffe00d93          	li	s11,-2
80008554:	000207b7          	lui	a5,0x20
80008558:	00f867b3          	or	a5,a6,a5
8000855c:	02f4a823          	sw	a5,48(s1)
80008560:	f0dff06f          	j	8000846c <lfs_file_write+0xf8>
80008564:	0344a583          	lw	a1,52(s1)
80008568:	02c4a783          	lw	a5,44(s1)
8000856c:	06842603          	lw	a2,104(s0)
80008570:	016586b3          	add	a3,a1,s6
80008574:	0ef6e463          	bltu	a3,a5,8000865c <lfs_file_write+0x2e8>
80008578:	01c62703          	lw	a4,28(a2)
8000857c:	02862783          	lw	a5,40(a2)
80008580:	3fe00513          	li	a0,1022
80008584:	00375713          	srli	a4,a4,0x3
80008588:	0cf56463          	bltu	a0,a5,80008650 <lfs_file_write+0x2dc>
8000858c:	0ae7ec63          	bltu	a5,a4,80008644 <lfs_file_write+0x2d0>
80008590:	e8d77ce3          	bgeu	a4,a3,80008428 <lfs_file_write+0xb4>
80008594:	02062783          	lw	a5,32(a2)
80008598:	02b4ae23          	sw	a1,60(s1)
8000859c:	00040513          	mv	a0,s0
800085a0:	06f42023          	sw	a5,96(s0)
800085a4:	00048593          	mv	a1,s1
800085a8:	bd9ff0ef          	jal	80008180 <lfs_file_relocate>
800085ac:	0304a783          	lw	a5,48(s1)
800085b0:	00050313          	mv	t1,a0
800085b4:	3a051063          	bnez	a0,80008954 <lfs_file_write+0x5e0>
800085b8:	fff00737          	lui	a4,0xfff00
800085bc:	fff70713          	addi	a4,a4,-1 # ffefffff <fs+0x7fe82fff>
800085c0:	00e7f833          	and	a6,a5,a4
800085c4:	0304a823          	sw	a6,48(s1)
800085c8:	e61ff06f          	j	80008428 <lfs_file_write+0xb4>
800085cc:	0344aa83          	lw	s5,52(s1)
800085d0:	200a9063          	bnez	s5,800087d0 <lfs_file_write+0x45c>
800085d4:	06842783          	lw	a5,104(s0)
800085d8:	03812c23          	sw	s8,56(sp)
800085dc:	03a12823          	sw	s10,48(sp)
800085e0:	0ac0006f          	j	8000868c <lfs_file_write+0x318>
800085e4:	0304a783          	lw	a5,48(s1)
800085e8:	00080737          	lui	a4,0x80
800085ec:	05012903          	lw	s2,80(sp)
800085f0:	04812a03          	lw	s4,72(sp)
800085f4:	04412a83          	lw	s5,68(sp)
800085f8:	03c12b83          	lw	s7,60(sp)
800085fc:	03412c83          	lw	s9,52(sp)
80008600:	02c12d83          	lw	s11,44(sp)
80008604:	00e7e7b3          	or	a5,a5,a4
80008608:	02f4a823          	sw	a5,48(s1)
8000860c:	05c12083          	lw	ra,92(sp)
80008610:	05812403          	lw	s0,88(sp)
80008614:	05412483          	lw	s1,84(sp)
80008618:	04c12983          	lw	s3,76(sp)
8000861c:	04012b03          	lw	s6,64(sp)
80008620:	00030513          	mv	a0,t1
80008624:	06010113          	addi	sp,sp,96
80008628:	00008067          	ret
8000862c:	368000ef          	jal	80008994 <lfs_file_flush>
80008630:	00050313          	mv	t1,a0
80008634:	fc051ce3          	bnez	a0,8000860c <lfs_file_write+0x298>
80008638:	0304a803          	lw	a6,48(s1)
8000863c:	05212823          	sw	s2,80(sp)
80008640:	d6dff06f          	j	800083ac <lfs_file_write+0x38>
80008644:	00078713          	mv	a4,a5
80008648:	ded770e3          	bgeu	a4,a3,80008428 <lfs_file_write+0xb4>
8000864c:	f49ff06f          	j	80008594 <lfs_file_write+0x220>
80008650:	3fe00793          	li	a5,1022
80008654:	f2e7fee3          	bgeu	a5,a4,80008590 <lfs_file_write+0x21c>
80008658:	fedff06f          	j	80008644 <lfs_file_write+0x2d0>
8000865c:	01c62703          	lw	a4,28(a2)
80008660:	00078693          	mv	a3,a5
80008664:	02862783          	lw	a5,40(a2)
80008668:	3fe00513          	li	a0,1022
8000866c:	00375713          	srli	a4,a4,0x3
80008670:	f0f57ee3          	bgeu	a0,a5,8000858c <lfs_file_write+0x218>
80008674:	fddff06f          	j	80008650 <lfs_file_write+0x2dc>
80008678:	00b81693          	slli	a3,a6,0xb
8000867c:	ec06c0e3          	bltz	a3,8000853c <lfs_file_write+0x1c8>
80008680:	0344aa83          	lw	s5,52(s1)
80008684:	03812c23          	sw	s8,56(sp)
80008688:	03a12823          	sw	s10,48(sp)
8000868c:	0207a703          	lw	a4,32(a5) # 20020 <__stack_size+0x1e020>
80008690:	0384a783          	lw	a5,56(s1)
80008694:	01c10c13          	addi	s8,sp,28
80008698:	06e42023          	sw	a4,96(s0)
8000869c:	00f12c23          	sw	a5,24(sp)
800086a0:	000c0593          	mv	a1,s8
800086a4:	00040513          	mv	a0,s0
800086a8:	8a1ff0ef          	jal	80007f48 <lfs_alloc>
800086ac:	00050313          	mv	t1,a0
800086b0:	0e051663          	bnez	a0,8000879c <lfs_file_write+0x428>
800086b4:	06842503          	lw	a0,104(s0)
800086b8:	01c12d83          	lw	s11,28(sp)
800086bc:	00c52783          	lw	a5,12(a0)
800086c0:	000d8593          	mv	a1,s11
800086c4:	000780e7          	jalr	a5
800086c8:	00050313          	mv	t1,a0
800086cc:	1e051263          	bnez	a0,800088b0 <lfs_file_write+0x53c>
800086d0:	06842703          	lw	a4,104(s0)
800086d4:	280a8a63          	beqz	s5,80008968 <lfs_file_write+0x5f4>
800086d8:	01c72683          	lw	a3,28(a4) # 8001c <__stack_size+0x7e01c>
800086dc:	fffa8c93          	addi	s9,s5,-1
800086e0:	ff868d13          	addi	s10,a3,-8
800086e4:	1face063          	bltu	s9,s10,800088c4 <lfs_file_write+0x550>
800086e8:	03acd533          	divu	a0,s9,s10
800086ec:	00e12623          	sw	a4,12(sp)
800086f0:	00d12423          	sw	a3,8(sp)
800086f4:	fff50513          	addi	a0,a0,-1
800086f8:	f00fc0ef          	jal	80004df8 <__popcountsi2>
800086fc:	00250793          	addi	a5,a0,2
80008700:	00279793          	slli	a5,a5,0x2
80008704:	40fc8cb3          	sub	s9,s9,a5
80008708:	03acdcb3          	divu	s9,s9,s10
8000870c:	039d0d33          	mul	s10,s10,s9
80008710:	000c8513          	mv	a0,s9
80008714:	ee4fc0ef          	jal	80004df8 <__popcountsi2>
80008718:	00251793          	slli	a5,a0,0x2
8000871c:	00812683          	lw	a3,8(sp)
80008720:	40fa87b3          	sub	a5,s5,a5
80008724:	00c12703          	lw	a4,12(sp)
80008728:	41a78ab3          	sub	s5,a5,s10
8000872c:	0eda8e63          	beq	s5,a3,80008828 <lfs_file_write+0x4b4>
80008730:	200a8e63          	beqz	s5,8000894c <lfs_file_write+0x5d8>
80008734:	00000c93          	li	s9,0
80008738:	0180006f          	j	80008750 <lfs_file_write+0x3dc>
8000873c:	f69fc0ef          	jal	800056a4 <lfs_bd_prog>
80008740:	00050313          	mv	t1,a0
80008744:	001c8c93          	addi	s9,s9,1
80008748:	16051463          	bnez	a0,800088b0 <lfs_file_write+0x53c>
8000874c:	1b9a8a63          	beq	s5,s9,80008900 <lfs_file_write+0x58c>
80008750:	01812703          	lw	a4,24(sp)
80008754:	00100893          	li	a7,1
80008758:	01710813          	addi	a6,sp,23
8000875c:	000c8793          	mv	a5,s9
80008760:	419a86b3          	sub	a3,s5,s9
80008764:	00040613          	mv	a2,s0
80008768:	00000593          	li	a1,0
8000876c:	00040513          	mv	a0,s0
80008770:	935fc0ef          	jal	800050a4 <lfs_bd_read>
80008774:	00050313          	mv	t1,a0
80008778:	00100893          	li	a7,1
8000877c:	01710813          	addi	a6,sp,23
80008780:	000c8793          	mv	a5,s9
80008784:	000d8713          	mv	a4,s11
80008788:	00100693          	li	a3,1
8000878c:	00040613          	mv	a2,s0
80008790:	00090593          	mv	a1,s2
80008794:	00040513          	mv	a0,s0
80008798:	fa0302e3          	beqz	t1,8000873c <lfs_file_write+0x3c8>
8000879c:	0304a783          	lw	a5,48(s1)
800087a0:	00080737          	lui	a4,0x80
800087a4:	05012903          	lw	s2,80(sp)
800087a8:	00e7e7b3          	or	a5,a5,a4
800087ac:	04812a03          	lw	s4,72(sp)
800087b0:	04412a83          	lw	s5,68(sp)
800087b4:	03c12b83          	lw	s7,60(sp)
800087b8:	03812c03          	lw	s8,56(sp)
800087bc:	03412c83          	lw	s9,52(sp)
800087c0:	03012d03          	lw	s10,48(sp)
800087c4:	02c12d83          	lw	s11,44(sp)
800087c8:	02f4a823          	sw	a5,48(s1)
800087cc:	e41ff06f          	j	8000860c <lfs_file_write+0x298>
800087d0:	02c4a683          	lw	a3,44(s1)
800087d4:	0284a603          	lw	a2,40(s1)
800087d8:	03c48813          	addi	a6,s1,60
800087dc:	03848793          	addi	a5,s1,56
800087e0:	fffa8713          	addi	a4,s5,-1
800087e4:	00090593          	mv	a1,s2
800087e8:	00040513          	mv	a0,s0
800087ec:	f75fd0ef          	jal	80006760 <lfs_ctz_find.constprop.0>
800087f0:	00050313          	mv	t1,a0
800087f4:	de0518e3          	bnez	a0,800085e4 <lfs_file_write+0x270>
800087f8:	06842783          	lw	a5,104(s0)
800087fc:	04c4a503          	lw	a0,76(s1)
80008800:	0ff00593          	li	a1,255
80008804:	0287a603          	lw	a2,40(a5)
80008808:	03812c23          	sw	s8,56(sp)
8000880c:	03a12823          	sw	s10,48(sp)
80008810:	e90fa0ef          	jal	80002ea0 <memset>
80008814:	fff00713          	li	a4,-1
80008818:	06842783          	lw	a5,104(s0)
8000881c:	0344aa83          	lw	s5,52(s1)
80008820:	04e4a023          	sw	a4,64(s1)
80008824:	e69ff06f          	j	8000868c <lfs_file_write+0x318>
80008828:	001c8513          	addi	a0,s9,1
8000882c:	98cfb0ef          	jal	800039b8 <__ctzsi2>
80008830:	00150793          	addi	a5,a0,1
80008834:	00050c93          	mv	s9,a0
80008838:	00f12623          	sw	a5,12(sp)
8000883c:	00000d13          	li	s10,0
80008840:	0200006f          	j	80008860 <lfs_file_write+0x4ec>
80008844:	01ac8863          	beq	s9,s10,80008854 <lfs_file_write+0x4e0>
80008848:	85dfc0ef          	jal	800050a4 <lfs_bd_read>
8000884c:	00050313          	mv	t1,a0
80008850:	f40516e3          	bnez	a0,8000879c <lfs_file_write+0x428>
80008854:	00c12783          	lw	a5,12(sp)
80008858:	001d0d13          	addi	s10,s10,1
8000885c:	0cfd0463          	beq	s10,a5,80008924 <lfs_file_write+0x5b0>
80008860:	002d1793          	slli	a5,s10,0x2
80008864:	00400893          	li	a7,4
80008868:	01810813          	addi	a6,sp,24
8000886c:	000d8713          	mv	a4,s11
80008870:	00100693          	li	a3,1
80008874:	00040613          	mv	a2,s0
80008878:	00090593          	mv	a1,s2
8000887c:	00040513          	mv	a0,s0
80008880:	00f12423          	sw	a5,8(sp)
80008884:	e21fc0ef          	jal	800056a4 <lfs_bd_prog>
80008888:	00050313          	mv	t1,a0
8000888c:	00812783          	lw	a5,8(sp)
80008890:	01812703          	lw	a4,24(sp)
80008894:	00400893          	li	a7,4
80008898:	01810813          	addi	a6,sp,24
8000889c:	00400693          	li	a3,4
800088a0:	00040613          	mv	a2,s0
800088a4:	00000593          	li	a1,0
800088a8:	00040513          	mv	a0,s0
800088ac:	f8030ce3          	beqz	t1,80008844 <lfs_file_write+0x4d0>
800088b0:	fac00793          	li	a5,-84
800088b4:	eef314e3          	bne	t1,a5,8000879c <lfs_file_write+0x428>
800088b8:	fff00793          	li	a5,-1
800088bc:	04f4a023          	sw	a5,64(s1)
800088c0:	de1ff06f          	j	800086a0 <lfs_file_write+0x32c>
800088c4:	e75698e3          	bne	a3,s5,80008734 <lfs_file_write+0x3c0>
800088c8:	00100793          	li	a5,1
800088cc:	00f12623          	sw	a5,12(sp)
800088d0:	00000c93          	li	s9,0
800088d4:	f69ff06f          	j	8000883c <lfs_file_write+0x4c8>
800088d8:	05c12083          	lw	ra,92(sp)
800088dc:	05812403          	lw	s0,88(sp)
800088e0:	05012903          	lw	s2,80(sp)
800088e4:	03812c03          	lw	s8,56(sp)
800088e8:	05412483          	lw	s1,84(sp)
800088ec:	04c12983          	lw	s3,76(sp)
800088f0:	04012b03          	lw	s6,64(sp)
800088f4:	00030513          	mv	a0,t1
800088f8:	06010113          	addi	sp,sp,96
800088fc:	00008067          	ret
80008900:	06842703          	lw	a4,104(s0)
80008904:	03b4ac23          	sw	s11,56(s1)
80008908:	0394ae23          	sw	s9,60(s1)
8000890c:	01c72703          	lw	a4,28(a4) # 8001c <__stack_size+0x7e01c>
80008910:	0304a803          	lw	a6,48(s1)
80008914:	03812c03          	lw	s8,56(sp)
80008918:	03012d03          	lw	s10,48(sp)
8000891c:	41970733          	sub	a4,a4,s9
80008920:	c35ff06f          	j	80008554 <lfs_file_write+0x1e0>
80008924:	06842783          	lw	a5,104(s0)
80008928:	002d1c93          	slli	s9,s10,0x2
8000892c:	03b4ac23          	sw	s11,56(s1)
80008930:	0394ae23          	sw	s9,60(s1)
80008934:	01c7a703          	lw	a4,28(a5)
80008938:	0304a803          	lw	a6,48(s1)
8000893c:	03812c03          	lw	s8,56(sp)
80008940:	03012d03          	lw	s10,48(sp)
80008944:	41970733          	sub	a4,a4,s9
80008948:	c0dff06f          	j	80008554 <lfs_file_write+0x1e0>
8000894c:	00000c93          	li	s9,0
80008950:	fb5ff06f          	j	80008904 <lfs_file_write+0x590>
80008954:	00080737          	lui	a4,0x80
80008958:	00e7e7b3          	or	a5,a5,a4
8000895c:	05012903          	lw	s2,80(sp)
80008960:	02f4a823          	sw	a5,48(s1)
80008964:	ca9ff06f          	j	8000860c <lfs_file_write+0x298>
80008968:	03b4ac23          	sw	s11,56(s1)
8000896c:	0204ae23          	sw	zero,60(s1)
80008970:	0304a803          	lw	a6,48(s1)
80008974:	01c72703          	lw	a4,28(a4) # 8001c <__stack_size+0x7e01c>
80008978:	03812c03          	lw	s8,56(sp)
8000897c:	03012d03          	lw	s10,48(sp)
80008980:	00000c93          	li	s9,0
80008984:	bd1ff06f          	j	80008554 <lfs_file_write+0x1e0>
80008988:	05012903          	lw	s2,80(sp)
8000898c:	fe500313          	li	t1,-27
80008990:	c7dff06f          	j	8000860c <lfs_file_write+0x298>

80008994 <lfs_file_flush>:
80008994:	0305a783          	lw	a5,48(a1)
80008998:	f8010113          	addi	sp,sp,-128
8000899c:	06812c23          	sw	s0,120(sp)
800089a0:	06912a23          	sw	s1,116(sp)
800089a4:	06112e23          	sw	ra,124(sp)
800089a8:	00d79713          	slli	a4,a5,0xd
800089ac:	00058413          	mv	s0,a1
800089b0:	00050493          	mv	s1,a0
800089b4:	00075e63          	bgez	a4,800089d0 <lfs_file_flush+0x3c>
800089b8:	00b79713          	slli	a4,a5,0xb
800089bc:	16075063          	bgez	a4,80008b1c <lfs_file_flush+0x188>
800089c0:	fffc0737          	lui	a4,0xfffc0
800089c4:	fff70713          	addi	a4,a4,-1 # fffbffff <fs+0x7ff42fff>
800089c8:	00e7f7b3          	and	a5,a5,a4
800089cc:	02f42823          	sw	a5,48(s0)
800089d0:	00e79713          	slli	a4,a5,0xe
800089d4:	02074063          	bltz	a4,800089f4 <lfs_file_flush+0x60>
800089d8:	00000793          	li	a5,0
800089dc:	07c12083          	lw	ra,124(sp)
800089e0:	07812403          	lw	s0,120(sp)
800089e4:	07412483          	lw	s1,116(sp)
800089e8:	00078513          	mv	a0,a5
800089ec:	08010113          	addi	sp,sp,128
800089f0:	00008067          	ret
800089f4:	07212823          	sw	s2,112(sp)
800089f8:	07312623          	sw	s3,108(sp)
800089fc:	00b79713          	slli	a4,a5,0xb
80008a00:	03442983          	lw	s3,52(s0)
80008a04:	02c42903          	lw	s2,44(s0)
80008a08:	0c074c63          	bltz	a4,80008ae0 <lfs_file_flush+0x14c>
80008a0c:	05400613          	li	a2,84
80008a10:	00000593          	li	a1,0
80008a14:	00c10513          	addi	a0,sp,12
80008a18:	c88fa0ef          	jal	80002ea0 <memset>
80008a1c:	02842503          	lw	a0,40(s0)
80008a20:	0004a583          	lw	a1,0(s1)
80008a24:	0044a603          	lw	a2,4(s1)
80008a28:	0084a683          	lw	a3,8(s1)
80008a2c:	00c4a703          	lw	a4,12(s1)
80008a30:	002007b7          	lui	a5,0x200
80008a34:	00178793          	addi	a5,a5,1 # 200001 <__stack_size+0x1fe001>
80008a38:	02f12e23          	sw	a5,60(sp)
80008a3c:	fff00793          	li	a5,-1
80008a40:	02a12a23          	sw	a0,52(sp)
80008a44:	03212c23          	sw	s2,56(sp)
80008a48:	05312023          	sw	s3,64(sp)
80008a4c:	04b12623          	sw	a1,76(sp)
80008a50:	04c12823          	sw	a2,80(sp)
80008a54:	04d12a23          	sw	a3,84(sp)
80008a58:	04e12c23          	sw	a4,88(sp)
80008a5c:	00f4a023          	sw	a5,0(s1)
80008a60:	0d29f863          	bgeu	s3,s2,80008b30 <lfs_file_flush+0x19c>
80008a64:	fff00913          	li	s2,-1
80008a68:	02c0006f          	j	80008a94 <lfs_file_flush+0x100>
80008a6c:	909ff0ef          	jal	80008374 <lfs_file_write>
80008a70:	00050793          	mv	a5,a0
80008a74:	04054663          	bltz	a0,80008ac0 <lfs_file_flush+0x12c>
80008a78:	0004a783          	lw	a5,0(s1)
80008a7c:	01278663          	beq	a5,s2,80008a88 <lfs_file_flush+0xf4>
80008a80:	05212623          	sw	s2,76(sp)
80008a84:	0124a023          	sw	s2,0(s1)
80008a88:	03442703          	lw	a4,52(s0)
80008a8c:	02c42783          	lw	a5,44(s0)
80008a90:	0af77063          	bgeu	a4,a5,80008b30 <lfs_file_flush+0x19c>
80008a94:	00100693          	li	a3,1
80008a98:	00b10613          	addi	a2,sp,11
80008a9c:	00c10593          	addi	a1,sp,12
80008aa0:	00048513          	mv	a0,s1
80008aa4:	0f0000ef          	jal	80008b94 <lfs_file_read>
80008aa8:	00050793          	mv	a5,a0
80008aac:	00100693          	li	a3,1
80008ab0:	00b10613          	addi	a2,sp,11
80008ab4:	00040593          	mv	a1,s0
80008ab8:	00048513          	mv	a0,s1
80008abc:	fa07d8e3          	bgez	a5,80008a6c <lfs_file_flush+0xd8>
80008ac0:	07c12083          	lw	ra,124(sp)
80008ac4:	07812403          	lw	s0,120(sp)
80008ac8:	07012903          	lw	s2,112(sp)
80008acc:	06c12983          	lw	s3,108(sp)
80008ad0:	07412483          	lw	s1,116(sp)
80008ad4:	00078513          	mv	a0,a5
80008ad8:	08010113          	addi	sp,sp,128
80008adc:	00008067          	ret
80008ae0:	00098693          	mv	a3,s3
80008ae4:	0529e263          	bltu	s3,s2,80008b28 <lfs_file_flush+0x194>
80008ae8:	fffe0737          	lui	a4,0xfffe0
80008aec:	fff70713          	addi	a4,a4,-1 # fffdffff <fs+0x7ff62fff>
80008af0:	03842603          	lw	a2,56(s0)
80008af4:	00e7f7b3          	and	a5,a5,a4
80008af8:	00010737          	lui	a4,0x10
80008afc:	00e7e7b3          	or	a5,a5,a4
80008b00:	03342a23          	sw	s3,52(s0)
80008b04:	07012903          	lw	s2,112(sp)
80008b08:	06c12983          	lw	s3,108(sp)
80008b0c:	02c42423          	sw	a2,40(s0)
80008b10:	02d42623          	sw	a3,44(s0)
80008b14:	02f42823          	sw	a5,48(s0)
80008b18:	ec1ff06f          	j	800089d8 <lfs_file_flush+0x44>
80008b1c:	fff00713          	li	a4,-1
80008b20:	04e5a023          	sw	a4,64(a1)
80008b24:	e9dff06f          	j	800089c0 <lfs_file_flush+0x2c>
80008b28:	00090693          	mv	a3,s2
80008b2c:	fbdff06f          	j	80008ae8 <lfs_file_flush+0x154>
80008b30:	07412423          	sw	s4,104(sp)
80008b34:	04040913          	addi	s2,s0,64
80008b38:	fac00a13          	li	s4,-84
80008b3c:	0140006f          	j	80008b50 <lfs_file_flush+0x1bc>
80008b40:	05479263          	bne	a5,s4,80008b84 <lfs_file_flush+0x1f0>
80008b44:	e3cff0ef          	jal	80008180 <lfs_file_relocate>
80008b48:	00050793          	mv	a5,a0
80008b4c:	02051c63          	bnez	a0,80008b84 <lfs_file_flush+0x1f0>
80008b50:	00090593          	mv	a1,s2
80008b54:	00100693          	li	a3,1
80008b58:	00048613          	mv	a2,s1
80008b5c:	00048513          	mv	a0,s1
80008b60:	9c9fc0ef          	jal	80005528 <lfs_bd_flush>
80008b64:	00050793          	mv	a5,a0
80008b68:	00040593          	mv	a1,s0
80008b6c:	00048513          	mv	a0,s1
80008b70:	fc0798e3          	bnez	a5,80008b40 <lfs_file_flush+0x1ac>
80008b74:	03442683          	lw	a3,52(s0)
80008b78:	03042783          	lw	a5,48(s0)
80008b7c:	06812a03          	lw	s4,104(sp)
80008b80:	f69ff06f          	j	80008ae8 <lfs_file_flush+0x154>
80008b84:	07012903          	lw	s2,112(sp)
80008b88:	06c12983          	lw	s3,108(sp)
80008b8c:	06812a03          	lw	s4,104(sp)
80008b90:	e4dff06f          	j	800089dc <lfs_file_flush+0x48>

80008b94 <lfs_file_read>:
80008b94:	0305a783          	lw	a5,48(a1)
80008b98:	fb010113          	addi	sp,sp,-80
80008b9c:	04812423          	sw	s0,72(sp)
80008ba0:	04912223          	sw	s1,68(sp)
80008ba4:	03a12023          	sw	s10,32(sp)
80008ba8:	01b12e23          	sw	s11,28(sp)
80008bac:	04112623          	sw	ra,76(sp)
80008bb0:	00e79713          	slli	a4,a5,0xe
80008bb4:	00058413          	mv	s0,a1
80008bb8:	00050d93          	mv	s11,a0
80008bbc:	00060d13          	mv	s10,a2
80008bc0:	00068493          	mv	s1,a3
80008bc4:	1a074863          	bltz	a4,80008d74 <lfs_file_read+0x1e0>
80008bc8:	03512a23          	sw	s5,52(sp)
80008bcc:	03442703          	lw	a4,52(s0)
80008bd0:	02c42a83          	lw	s5,44(s0)
80008bd4:	00000513          	li	a0,0
80008bd8:	1b577c63          	bgeu	a4,s5,80008d90 <lfs_file_read+0x1fc>
80008bdc:	05212023          	sw	s2,64(sp)
80008be0:	03812423          	sw	s8,40(sp)
80008be4:	40ea8ab3          	sub	s5,s5,a4
80008be8:	1954e263          	bltu	s1,s5,80008d6c <lfs_file_read+0x1d8>
80008bec:	000a8c13          	mv	s8,s5
80008bf0:	04040913          	addi	s2,s0,64
80008bf4:	1c0a8863          	beqz	s5,80008dc4 <lfs_file_read+0x230>
80008bf8:	03840793          	addi	a5,s0,56
80008bfc:	03312e23          	sw	s3,60(sp)
80008c00:	03412c23          	sw	s4,56(sp)
80008c04:	03612823          	sw	s6,48(sp)
80008c08:	03712623          	sw	s7,44(sp)
80008c0c:	03912223          	sw	s9,36(sp)
80008c10:	000409b7          	lui	s3,0x40
80008c14:	ffe00b93          	li	s7,-2
80008c18:	03c40c93          	addi	s9,s0,60
80008c1c:	00f12623          	sw	a5,12(sp)
80008c20:	00840b13          	addi	s6,s0,8
80008c24:	20100a37          	lui	s4,0x20100
80008c28:	0800006f          	j	80008ca8 <lfs_file_read+0x114>
80008c2c:	068da683          	lw	a3,104(s11)
80008c30:	03c42583          	lw	a1,60(s0)
80008c34:	01c6a683          	lw	a3,28(a3)
80008c38:	06d58e63          	beq	a1,a3,80008cb4 <lfs_file_read+0x120>
80008c3c:	40b684b3          	sub	s1,a3,a1
80008c40:	009c7463          	bgeu	s8,s1,80008c48 <lfs_file_read+0xb4>
80008c44:	000c0493          	mv	s1,s8
80008c48:	00b79713          	slli	a4,a5,0xb
80008c4c:	08075863          	bgez	a4,80008cdc <lfs_file_read+0x148>
80008c50:	00445703          	lhu	a4,4(s0)
80008c54:	00b487b3          	add	a5,s1,a1
80008c58:	00a71713          	slli	a4,a4,0xa
80008c5c:	01476733          	or	a4,a4,s4
80008c60:	18f6e863          	bltu	a3,a5,80008df0 <lfs_file_read+0x25c>
80008c64:	00058793          	mv	a5,a1
80008c68:	00048893          	mv	a7,s1
80008c6c:	000d0813          	mv	a6,s10
80008c70:	00090613          	mv	a2,s2
80008c74:	000b0593          	mv	a1,s6
80008c78:	000d8513          	mv	a0,s11
80008c7c:	849fd0ef          	jal	800064c4 <lfs_dir_getread.part.0.constprop.0>
80008c80:	08051063          	bnez	a0,80008d00 <lfs_file_read+0x16c>
80008c84:	03442703          	lw	a4,52(s0)
80008c88:	03c42783          	lw	a5,60(s0)
80008c8c:	409c0c33          	sub	s8,s8,s1
80008c90:	00970733          	add	a4,a4,s1
80008c94:	009787b3          	add	a5,a5,s1
80008c98:	02e42a23          	sw	a4,52(s0)
80008c9c:	02f42e23          	sw	a5,60(s0)
80008ca0:	009d0d33          	add	s10,s10,s1
80008ca4:	100c0663          	beqz	s8,80008db0 <lfs_file_read+0x21c>
80008ca8:	03042783          	lw	a5,48(s0)
80008cac:	00d79693          	slli	a3,a5,0xd
80008cb0:	f606cee3          	bltz	a3,80008c2c <lfs_file_read+0x98>
80008cb4:	00070593          	mv	a1,a4
80008cb8:	00b79713          	slli	a4,a5,0xb
80008cbc:	08075063          	bgez	a4,80008d3c <lfs_file_read+0x1a8>
80008cc0:	03742c23          	sw	s7,56(s0)
80008cc4:	02b42e23          	sw	a1,60(s0)
80008cc8:	068da703          	lw	a4,104(s11)
80008ccc:	0137e7b3          	or	a5,a5,s3
80008cd0:	02f42823          	sw	a5,48(s0)
80008cd4:	01c72683          	lw	a3,28(a4) # 1001c <__stack_size+0xe01c>
80008cd8:	f65ff06f          	j	80008c3c <lfs_file_read+0xa8>
80008cdc:	03842703          	lw	a4,56(s0)
80008ce0:	00058793          	mv	a5,a1
80008ce4:	00048893          	mv	a7,s1
80008ce8:	000d0813          	mv	a6,s10
80008cec:	00090613          	mv	a2,s2
80008cf0:	00000593          	li	a1,0
80008cf4:	000d8513          	mv	a0,s11
80008cf8:	bacfc0ef          	jal	800050a4 <lfs_bd_read>
80008cfc:	f80504e3          	beqz	a0,80008c84 <lfs_file_read+0xf0>
80008d00:	04012903          	lw	s2,64(sp)
80008d04:	03c12983          	lw	s3,60(sp)
80008d08:	03812a03          	lw	s4,56(sp)
80008d0c:	03412a83          	lw	s5,52(sp)
80008d10:	03012b03          	lw	s6,48(sp)
80008d14:	02c12b83          	lw	s7,44(sp)
80008d18:	02812c03          	lw	s8,40(sp)
80008d1c:	02412c83          	lw	s9,36(sp)
80008d20:	04c12083          	lw	ra,76(sp)
80008d24:	04812403          	lw	s0,72(sp)
80008d28:	04412483          	lw	s1,68(sp)
80008d2c:	02012d03          	lw	s10,32(sp)
80008d30:	01c12d83          	lw	s11,28(sp)
80008d34:	05010113          	addi	sp,sp,80
80008d38:	00008067          	ret
80008d3c:	02c42683          	lw	a3,44(s0)
80008d40:	02842603          	lw	a2,40(s0)
80008d44:	00c12783          	lw	a5,12(sp)
80008d48:	00058713          	mv	a4,a1
80008d4c:	000c8813          	mv	a6,s9
80008d50:	00090593          	mv	a1,s2
80008d54:	000d8513          	mv	a0,s11
80008d58:	a09fd0ef          	jal	80006760 <lfs_ctz_find.constprop.0>
80008d5c:	fa0512e3          	bnez	a0,80008d00 <lfs_file_read+0x16c>
80008d60:	03042783          	lw	a5,48(s0)
80008d64:	03c42583          	lw	a1,60(s0)
80008d68:	f61ff06f          	j	80008cc8 <lfs_file_read+0x134>
80008d6c:	00048a93          	mv	s5,s1
80008d70:	e7dff06f          	j	80008bec <lfs_file_read+0x58>
80008d74:	c21ff0ef          	jal	80008994 <lfs_file_flush>
80008d78:	fa0514e3          	bnez	a0,80008d20 <lfs_file_read+0x18c>
80008d7c:	03512a23          	sw	s5,52(sp)
80008d80:	03442703          	lw	a4,52(s0)
80008d84:	02c42a83          	lw	s5,44(s0)
80008d88:	00000513          	li	a0,0
80008d8c:	e55768e3          	bltu	a4,s5,80008bdc <lfs_file_read+0x48>
80008d90:	04c12083          	lw	ra,76(sp)
80008d94:	04812403          	lw	s0,72(sp)
80008d98:	03412a83          	lw	s5,52(sp)
80008d9c:	04412483          	lw	s1,68(sp)
80008da0:	02012d03          	lw	s10,32(sp)
80008da4:	01c12d83          	lw	s11,28(sp)
80008da8:	05010113          	addi	sp,sp,80
80008dac:	00008067          	ret
80008db0:	03c12983          	lw	s3,60(sp)
80008db4:	03812a03          	lw	s4,56(sp)
80008db8:	03012b03          	lw	s6,48(sp)
80008dbc:	02c12b83          	lw	s7,44(sp)
80008dc0:	02412c83          	lw	s9,36(sp)
80008dc4:	04c12083          	lw	ra,76(sp)
80008dc8:	04812403          	lw	s0,72(sp)
80008dcc:	04012903          	lw	s2,64(sp)
80008dd0:	02812c03          	lw	s8,40(sp)
80008dd4:	04412483          	lw	s1,68(sp)
80008dd8:	02012d03          	lw	s10,32(sp)
80008ddc:	01c12d83          	lw	s11,28(sp)
80008de0:	000a8513          	mv	a0,s5
80008de4:	03412a83          	lw	s5,52(sp)
80008de8:	05010113          	addi	sp,sp,80
80008dec:	00008067          	ret
80008df0:	fac00513          	li	a0,-84
80008df4:	f0dff06f          	j	80008d00 <lfs_file_read+0x16c>

80008df8 <lfs_file_seek>:
80008df8:	fe010113          	addi	sp,sp,-32
80008dfc:	00812c23          	sw	s0,24(sp)
80008e00:	00912a23          	sw	s1,20(sp)
80008e04:	01212823          	sw	s2,16(sp)
80008e08:	01312623          	sw	s3,12(sp)
80008e0c:	00112e23          	sw	ra,28(sp)
80008e10:	00050913          	mv	s2,a0
80008e14:	00058413          	mv	s0,a1
80008e18:	00060993          	mv	s3,a2
80008e1c:	00068493          	mv	s1,a3
80008e20:	b75ff0ef          	jal	80008994 <lfs_file_flush>
80008e24:	02051463          	bnez	a0,80008e4c <lfs_file_seek+0x54>
80008e28:	07092783          	lw	a5,112(s2)
80008e2c:	03442503          	lw	a0,52(s0)
80008e30:	02048c63          	beqz	s1,80008e68 <lfs_file_seek+0x70>
80008e34:	00100713          	li	a4,1
80008e38:	02e48e63          	beq	s1,a4,80008e74 <lfs_file_seek+0x7c>
80008e3c:	00200713          	li	a4,2
80008e40:	02e48863          	beq	s1,a4,80008e70 <lfs_file_seek+0x78>
80008e44:	02a7ec63          	bltu	a5,a0,80008e7c <lfs_file_seek+0x84>
80008e48:	02a42a23          	sw	a0,52(s0)
80008e4c:	01c12083          	lw	ra,28(sp)
80008e50:	01812403          	lw	s0,24(sp)
80008e54:	01412483          	lw	s1,20(sp)
80008e58:	01012903          	lw	s2,16(sp)
80008e5c:	00c12983          	lw	s3,12(sp)
80008e60:	02010113          	addi	sp,sp,32
80008e64:	00008067          	ret
80008e68:	00098513          	mv	a0,s3
80008e6c:	fd9ff06f          	j	80008e44 <lfs_file_seek+0x4c>
80008e70:	02c42503          	lw	a0,44(s0)
80008e74:	00a98533          	add	a0,s3,a0
80008e78:	fcdff06f          	j	80008e44 <lfs_file_seek+0x4c>
80008e7c:	fea00513          	li	a0,-22
80008e80:	fcdff06f          	j	80008e4c <lfs_file_seek+0x54>

80008e84 <lfs_file_rewind>:
80008e84:	ff010113          	addi	sp,sp,-16
80008e88:	00812423          	sw	s0,8(sp)
80008e8c:	00112623          	sw	ra,12(sp)
80008e90:	00058413          	mv	s0,a1
80008e94:	b01ff0ef          	jal	80008994 <lfs_file_flush>
80008e98:	00051c63          	bnez	a0,80008eb0 <lfs_file_rewind+0x2c>
80008e9c:	00c12083          	lw	ra,12(sp)
80008ea0:	02042a23          	sw	zero,52(s0)
80008ea4:	00812403          	lw	s0,8(sp)
80008ea8:	01010113          	addi	sp,sp,16
80008eac:	00008067          	ret
80008eb0:	00c12083          	lw	ra,12(sp)
80008eb4:	00812403          	lw	s0,8(sp)
80008eb8:	00152793          	slti	a5,a0,1
80008ebc:	40f007b3          	neg	a5,a5
80008ec0:	00f57533          	and	a0,a0,a5
80008ec4:	01010113          	addi	sp,sp,16
80008ec8:	00008067          	ret

80008ecc <lfs_file_truncate>:
80008ecc:	16064863          	bltz	a2,8000903c <lfs_file_truncate+0x170>
80008ed0:	0305a703          	lw	a4,48(a1)
80008ed4:	fd010113          	addi	sp,sp,-48
80008ed8:	02812423          	sw	s0,40(sp)
80008edc:	02912223          	sw	s1,36(sp)
80008ee0:	03212023          	sw	s2,32(sp)
80008ee4:	01312e23          	sw	s3,28(sp)
80008ee8:	02112623          	sw	ra,44(sp)
80008eec:	00e71693          	slli	a3,a4,0xe
80008ef0:	0345a483          	lw	s1,52(a1)
80008ef4:	02c5a783          	lw	a5,44(a1)
80008ef8:	00060993          	mv	s3,a2
80008efc:	00050913          	mv	s2,a0
80008f00:	00058413          	mv	s0,a1
80008f04:	0006d663          	bgez	a3,80008f10 <lfs_file_truncate+0x44>
80008f08:	0097f463          	bgeu	a5,s1,80008f10 <lfs_file_truncate+0x44>
80008f0c:	00048793          	mv	a5,s1
80008f10:	06f9ea63          	bltu	s3,a5,80008f84 <lfs_file_truncate+0xb8>
80008f14:	0337f663          	bgeu	a5,s3,80008f40 <lfs_file_truncate+0x74>
80008f18:	0ef49a63          	bne	s1,a5,8000900c <lfs_file_truncate+0x140>
80008f1c:	00100693          	li	a3,1
80008f20:	00f10613          	addi	a2,sp,15
80008f24:	00040593          	mv	a1,s0
80008f28:	00090513          	mv	a0,s2
80008f2c:	000107a3          	sb	zero,15(sp)
80008f30:	c44ff0ef          	jal	80008374 <lfs_file_write>
80008f34:	02054a63          	bltz	a0,80008f68 <lfs_file_truncate+0x9c>
80008f38:	03442783          	lw	a5,52(s0)
80008f3c:	ff37e0e3          	bltu	a5,s3,80008f1c <lfs_file_truncate+0x50>
80008f40:	00040593          	mv	a1,s0
80008f44:	00090513          	mv	a0,s2
80008f48:	a4dff0ef          	jal	80008994 <lfs_file_flush>
80008f4c:	08051c63          	bnez	a0,80008fe4 <lfs_file_truncate+0x118>
80008f50:	07092783          	lw	a5,112(s2)
80008f54:	0e97e063          	bltu	a5,s1,80009034 <lfs_file_truncate+0x168>
80008f58:	0014a513          	slti	a0,s1,1
80008f5c:	40a00533          	neg	a0,a0
80008f60:	02942a23          	sw	s1,52(s0)
80008f64:	00a4f533          	and	a0,s1,a0
80008f68:	02c12083          	lw	ra,44(sp)
80008f6c:	02812403          	lw	s0,40(sp)
80008f70:	02412483          	lw	s1,36(sp)
80008f74:	02012903          	lw	s2,32(sp)
80008f78:	01c12983          	lw	s3,28(sp)
80008f7c:	03010113          	addi	sp,sp,48
80008f80:	00008067          	ret
80008f84:	00040593          	mv	a1,s0
80008f88:	00090513          	mv	a0,s2
80008f8c:	a09ff0ef          	jal	80008994 <lfs_file_flush>
80008f90:	fc051ce3          	bnez	a0,80008f68 <lfs_file_truncate+0x9c>
80008f94:	02c42683          	lw	a3,44(s0)
80008f98:	02842603          	lw	a2,40(s0)
80008f9c:	03c40813          	addi	a6,s0,60
80008fa0:	03840793          	addi	a5,s0,56
80008fa4:	00098713          	mv	a4,s3
80008fa8:	04040593          	addi	a1,s0,64
80008fac:	00090513          	mv	a0,s2
80008fb0:	fb0fd0ef          	jal	80006760 <lfs_ctz_find.constprop.0>
80008fb4:	fa051ae3          	bnez	a0,80008f68 <lfs_file_truncate+0x9c>
80008fb8:	03042783          	lw	a5,48(s0)
80008fbc:	03842703          	lw	a4,56(s0)
80008fc0:	000506b7          	lui	a3,0x50
80008fc4:	00d7e7b3          	or	a5,a5,a3
80008fc8:	02e42423          	sw	a4,40(s0)
80008fcc:	03342623          	sw	s3,44(s0)
80008fd0:	02f42823          	sw	a5,48(s0)
80008fd4:	00040593          	mv	a1,s0
80008fd8:	00090513          	mv	a0,s2
80008fdc:	9b9ff0ef          	jal	80008994 <lfs_file_flush>
80008fe0:	f60508e3          	beqz	a0,80008f50 <lfs_file_truncate+0x84>
80008fe4:	02c12083          	lw	ra,44(sp)
80008fe8:	02812403          	lw	s0,40(sp)
80008fec:	00152793          	slti	a5,a0,1
80008ff0:	40f007b3          	neg	a5,a5
80008ff4:	02412483          	lw	s1,36(sp)
80008ff8:	02012903          	lw	s2,32(sp)
80008ffc:	01c12983          	lw	s3,28(sp)
80009000:	00f57533          	and	a0,a0,a5
80009004:	03010113          	addi	sp,sp,48
80009008:	00008067          	ret
8000900c:	00040593          	mv	a1,s0
80009010:	00090513          	mv	a0,s2
80009014:	981ff0ef          	jal	80008994 <lfs_file_flush>
80009018:	f0051ee3          	bnez	a0,80008f34 <lfs_file_truncate+0x68>
8000901c:	02c42783          	lw	a5,44(s0)
80009020:	07092703          	lw	a4,112(s2)
80009024:	00f76863          	bltu	a4,a5,80009034 <lfs_file_truncate+0x168>
80009028:	02f42a23          	sw	a5,52(s0)
8000902c:	00078513          	mv	a0,a5
80009030:	f05ff06f          	j	80008f34 <lfs_file_truncate+0x68>
80009034:	fea00513          	li	a0,-22
80009038:	f31ff06f          	j	80008f68 <lfs_file_truncate+0x9c>
8000903c:	fea00513          	li	a0,-22
80009040:	00008067          	ret

80009044 <lfs_dir_compact>:
80009044:	f5010113          	addi	sp,sp,-176
80009048:	07b12e23          	sw	s11,124(sp)
8000904c:	00058d93          	mv	s11,a1
80009050:	000da883          	lw	a7,0(s11)
80009054:	0045a583          	lw	a1,4(a1)
80009058:	0a812423          	sw	s0,168(sp)
8000905c:	0a912223          	sw	s1,164(sp)
80009060:	0b212023          	sw	s2,160(sp)
80009064:	09312e23          	sw	s3,156(sp)
80009068:	09412c23          	sw	s4,152(sp)
8000906c:	09512a23          	sw	s5,148(sp)
80009070:	09912223          	sw	s9,132(sp)
80009074:	00078413          	mv	s0,a5
80009078:	40f80cb3          	sub	s9,a6,a5
8000907c:	0a112623          	sw	ra,172(sp)
80009080:	09612823          	sw	s6,144(sp)
80009084:	09712623          	sw	s7,140(sp)
80009088:	09812423          	sw	s8,136(sp)
8000908c:	09a12023          	sw	s10,128(sp)
80009090:	02b12423          	sw	a1,40(sp)
80009094:	03112623          	sw	a7,44(sp)
80009098:	04b12023          	sw	a1,64(sp)
8000909c:	05112223          	sw	a7,68(sp)
800090a0:	00100793          	li	a5,1
800090a4:	00080493          	mv	s1,a6
800090a8:	00050913          	mv	s2,a0
800090ac:	00060993          	mv	s3,a2
800090b0:	00068a13          	mv	s4,a3
800090b4:	00070a93          	mv	s5,a4
800090b8:	4797dc63          	bge	a5,s9,80009530 <lfs_dir_compact+0x4ec>
800090bc:	40800b33          	neg	s6,s0
800090c0:	40100737          	lui	a4,0x40100
800090c4:	010b1b13          	slli	s6,s6,0x10
800090c8:	80005bb7          	lui	s7,0x80005
800090cc:	c0070713          	addi	a4,a4,-1024 # 400ffc00 <__stack_size+0x400fdc00>
800090d0:	410b5b13          	srai	s6,s6,0x10
800090d4:	05010c13          	addi	s8,sp,80
800090d8:	fd8b8b93          	addi	s7,s7,-40 # 80004fd8 <lfs_dir_commit_size>
800090dc:	02e12223          	sw	a4,36(sp)
800090e0:	05c0006f          	j	8000913c <lfs_dir_compact+0xf8>
800090e4:	0fe00893          	li	a7,254
800090e8:	0398cc63          	blt	a7,s9,80009120 <lfs_dir_compact+0xdc>
800090ec:	06892f83          	lw	t6,104(s2)
800090f0:	01cfa303          	lw	t1,28(t6)
800090f4:	018fae03          	lw	t3,24(t6)
800090f8:	00135893          	srli	a7,t1,0x1
800090fc:	fffe0e93          	addi	t4,t3,-1 # feffff <__stack_size+0xfedfff>
80009100:	01d888b3          	add	a7,a7,t4
80009104:	03c8fe33          	remu	t3,a7,t3
80009108:	fdc30313          	addi	t1,t1,-36
8000910c:	41c888b3          	sub	a7,a7,t3
80009110:	01137463          	bgeu	t1,a7,80009118 <lfs_dir_compact+0xd4>
80009114:	00030893          	mv	a7,t1
80009118:	05012303          	lw	t1,80(sp)
8000911c:	0c68fe63          	bgeu	a7,t1,800091f8 <lfs_dir_compact+0x1b4>
80009120:	330020ef          	jal	8000b450 <lfs_dir_split>
80009124:	00050313          	mv	t1,a0
80009128:	408d0cb3          	sub	s9,s10,s0
8000912c:	1e051a63          	bnez	a0,80009320 <lfs_dir_compact+0x2dc>
80009130:	00100793          	li	a5,1
80009134:	0b97de63          	bge	a5,s9,800091f0 <lfs_dir_compact+0x1ac>
80009138:	000d0493          	mv	s1,s10
8000913c:	02412883          	lw	a7,36(sp)
80009140:	401cdd13          	srai	s10,s9,0x1
80009144:	00000813          	li	a6,0
80009148:	000a0793          	mv	a5,s4
8000914c:	00098713          	mv	a4,s3
80009150:	fff00693          	li	a3,-1
80009154:	00000613          	li	a2,0
80009158:	000a8593          	mv	a1,s5
8000915c:	01812a23          	sw	s8,20(sp)
80009160:	01712823          	sw	s7,16(sp)
80009164:	01612623          	sw	s6,12(sp)
80009168:	00912423          	sw	s1,8(sp)
8000916c:	00812223          	sw	s0,4(sp)
80009170:	00012023          	sw	zero,0(sp)
80009174:	00090513          	mv	a0,s2
80009178:	01a40d33          	add	s10,s0,s10
8000917c:	04012823          	sw	zero,80(sp)
80009180:	010d1d13          	slli	s10,s10,0x10
80009184:	ba5fc0ef          	jal	80005d28 <lfs_dir_traverse>
80009188:	00050313          	mv	t1,a0
8000918c:	010d5d13          	srli	s10,s10,0x10
80009190:	00048813          	mv	a6,s1
80009194:	000d0793          	mv	a5,s10
80009198:	000a8713          	mv	a4,s5
8000919c:	000a0693          	mv	a3,s4
800091a0:	00098613          	mv	a2,s3
800091a4:	000d8593          	mv	a1,s11
800091a8:	00090513          	mv	a0,s2
800091ac:	f2030ce3          	beqz	t1,800090e4 <lfs_dir_compact+0xa0>
800091b0:	0ac12083          	lw	ra,172(sp)
800091b4:	0a812403          	lw	s0,168(sp)
800091b8:	0a412483          	lw	s1,164(sp)
800091bc:	0a012903          	lw	s2,160(sp)
800091c0:	09c12983          	lw	s3,156(sp)
800091c4:	09812a03          	lw	s4,152(sp)
800091c8:	09412a83          	lw	s5,148(sp)
800091cc:	09012b03          	lw	s6,144(sp)
800091d0:	08c12b83          	lw	s7,140(sp)
800091d4:	08812c03          	lw	s8,136(sp)
800091d8:	08412c83          	lw	s9,132(sp)
800091dc:	08012d03          	lw	s10,128(sp)
800091e0:	07c12d83          	lw	s11,124(sp)
800091e4:	00030513          	mv	a0,t1
800091e8:	0b010113          	addi	sp,sp,176
800091ec:	00008067          	ret
800091f0:	06892f83          	lw	t6,104(s2)
800091f4:	000d0493          	mv	s1,s10
800091f8:	008da783          	lw	a5,8(s11)
800091fc:	024fa703          	lw	a4,36(t6)
80009200:	00178793          	addi	a5,a5,1
80009204:	00fda423          	sw	a5,8(s11)
80009208:	0ae05663          	blez	a4,800092b4 <lfs_dir_compact+0x270>
8000920c:	00170713          	addi	a4,a4,1
80009210:	02e7f7b3          	remu	a5,a5,a4
80009214:	0a079063          	bnez	a5,800092b4 <lfs_dir_compact+0x270>
80009218:	000da783          	lw	a5,0(s11)
8000921c:	06078063          	beqz	a5,8000927c <lfs_dir_compact+0x238>
80009220:	004da683          	lw	a3,4(s11)
80009224:	00100713          	li	a4,1
80009228:	04d77a63          	bgeu	a4,a3,8000927c <lfs_dir_compact+0x238>
8000922c:	00100b93          	li	s7,1
80009230:	05778663          	beq	a5,s7,8000927c <lfs_dir_compact+0x238>
80009234:	02812703          	lw	a4,40(sp)
80009238:	fff00793          	li	a5,-1
8000923c:	00f92823          	sw	a5,16(s2)
80009240:	00100793          	li	a5,1
80009244:	fe400313          	li	t1,-28
80009248:	f6e7f4e3          	bgeu	a5,a4,800091b0 <lfs_dir_compact+0x16c>
8000924c:	02c12703          	lw	a4,44(sp)
80009250:	f6e7f0e3          	bgeu	a5,a4,800091b0 <lfs_dir_compact+0x16c>
80009254:	004d8593          	addi	a1,s11,4
80009258:	00090513          	mv	a0,s2
8000925c:	cedfe0ef          	jal	80007f48 <lfs_alloc>
80009260:	00050313          	mv	t1,a0
80009264:	34050863          	beqz	a0,800095b4 <lfs_dir_compact+0x570>
80009268:	fe400793          	li	a5,-28
8000926c:	34f50463          	beq	a0,a5,800095b4 <lfs_dir_compact+0x570>
80009270:	f40b80e3          	beqz	s7,800091b0 <lfs_dir_compact+0x16c>
80009274:	000b8c93          	mv	s9,s7
80009278:	0440006f          	j	800092bc <lfs_dir_compact+0x278>
8000927c:	800055b7          	lui	a1,0x80005
80009280:	05010613          	addi	a2,sp,80
80009284:	00858593          	addi	a1,a1,8 # 80005008 <lfs_fs_size_count>
80009288:	00090513          	mv	a0,s2
8000928c:	04012823          	sw	zero,80(sp)
80009290:	a69fe0ef          	jal	80007cf8 <lfs_fs_traverse>
80009294:	00050313          	mv	t1,a0
80009298:	00051463          	bnez	a0,800092a0 <lfs_dir_compact+0x25c>
8000929c:	05012303          	lw	t1,80(sp)
800092a0:	f00348e3          	bltz	t1,800091b0 <lfs_dir_compact+0x16c>
800092a4:	06892783          	lw	a5,104(s2)
800092a8:	0207a783          	lw	a5,32(a5)
800092ac:	0017d793          	srli	a5,a5,0x1
800092b0:	24f36663          	bltu	t1,a5,800094fc <lfs_dir_compact+0x4b8>
800092b4:	00000b93          	li	s7,0
800092b8:	00000c93          	li	s9,0
800092bc:	04890b13          	addi	s6,s2,72
800092c0:	000b0613          	mv	a2,s6
800092c4:	000d8593          	mv	a1,s11
800092c8:	00090513          	mv	a0,s2
800092cc:	83cfd0ef          	jal	80006308 <lfs_dir_getgstate>
800092d0:	00050313          	mv	t1,a0
800092d4:	ec051ee3          	bnez	a0,800091b0 <lfs_dir_compact+0x16c>
800092d8:	06892503          	lw	a0,104(s2)
800092dc:	004da583          	lw	a1,4(s11)
800092e0:	fff00d13          	li	s10,-1
800092e4:	01c52783          	lw	a5,28(a0)
800092e8:	00c52703          	lw	a4,12(a0)
800092ec:	04b12823          	sw	a1,80(sp)
800092f0:	ff878793          	addi	a5,a5,-8
800092f4:	04012a23          	sw	zero,84(sp)
800092f8:	05a12c23          	sw	s10,88(sp)
800092fc:	05a12e23          	sw	s10,92(sp)
80009300:	06012023          	sw	zero,96(sp)
80009304:	06f12223          	sw	a5,100(sp)
80009308:	000700e7          	jalr	a4
8000930c:	00050313          	mv	t1,a0
80009310:	02050863          	beqz	a0,80009340 <lfs_dir_compact+0x2fc>
80009314:	fac00793          	li	a5,-84
80009318:	e8f31ce3          	bne	t1,a5,800091b0 <lfs_dir_compact+0x16c>
8000931c:	f19ff06f          	j	80009234 <lfs_dir_compact+0x1f0>
80009320:	fe400793          	li	a5,-28
80009324:	e8f516e3          	bne	a0,a5,800091b0 <lfs_dir_compact+0x16c>
80009328:	06892f83          	lw	t6,104(s2)
8000932c:	05012703          	lw	a4,80(sp)
80009330:	01cfa783          	lw	a5,28(t6)
80009334:	fdc78793          	addi	a5,a5,-36
80009338:	ece7f0e3          	bgeu	a5,a4,800091f8 <lfs_dir_compact+0x1b4>
8000933c:	e75ff06f          	j	800091b0 <lfs_dir_compact+0x16c>
80009340:	05010c13          	addi	s8,sp,80
80009344:	00400693          	li	a3,4
80009348:	008d8613          	addi	a2,s11,8
8000934c:	000c0593          	mv	a1,s8
80009350:	00090513          	mv	a0,s2
80009354:	cacfc0ef          	jal	80005800 <lfs_dir_commitprog>
80009358:	00050313          	mv	t1,a0
8000935c:	fa051ce3          	bnez	a0,80009314 <lfs_dir_compact+0x2d0>
80009360:	04810713          	addi	a4,sp,72
80009364:	408007b3          	neg	a5,s0
80009368:	00e12a23          	sw	a4,20(sp)
8000936c:	01079793          	slli	a5,a5,0x10
80009370:	80006737          	lui	a4,0x80006
80009374:	4107d793          	srai	a5,a5,0x10
80009378:	88c70713          	addi	a4,a4,-1908 # 8000588c <lfs_dir_commit_commit>
8000937c:	401008b7          	lui	a7,0x40100
80009380:	00e12823          	sw	a4,16(sp)
80009384:	00f12623          	sw	a5,12(sp)
80009388:	00912423          	sw	s1,8(sp)
8000938c:	00812223          	sw	s0,4(sp)
80009390:	00012023          	sw	zero,0(sp)
80009394:	c0088893          	addi	a7,a7,-1024 # 400ffc00 <__stack_size+0x400fdc00>
80009398:	00000813          	li	a6,0
8000939c:	000a0793          	mv	a5,s4
800093a0:	00098713          	mv	a4,s3
800093a4:	fff00693          	li	a3,-1
800093a8:	00000613          	li	a2,0
800093ac:	000a8593          	mv	a1,s5
800093b0:	00090513          	mv	a0,s2
800093b4:	05212423          	sw	s2,72(sp)
800093b8:	05812623          	sw	s8,76(sp)
800093bc:	96dfc0ef          	jal	80005d28 <lfs_dir_traverse>
800093c0:	00050313          	mv	t1,a0
800093c4:	f40518e3          	bnez	a0,80009314 <lfs_dir_compact+0x2d0>
800093c8:	018da783          	lw	a5,24(s11)
800093cc:	09a78263          	beq	a5,s10,80009450 <lfs_dir_compact+0x40c>
800093d0:	01cda783          	lw	a5,28(s11)
800093d4:	07a78e63          	beq	a5,s10,80009450 <lfs_dir_compact+0x40c>
800093d8:	05412703          	lw	a4,84(sp)
800093dc:	06412683          	lw	a3,100(sp)
800093e0:	017dc783          	lbu	a5,23(s11)
800093e4:	00c70713          	addi	a4,a4,12
800093e8:	34e6ee63          	bltu	a3,a4,80009744 <lfs_dir_compact+0x700>
800093ec:	05812503          	lw	a0,88(sp)
800093f0:	60078793          	addi	a5,a5,1536
800093f4:	00100737          	lui	a4,0x100
800093f8:	01479793          	slli	a5,a5,0x14
800093fc:	c0870713          	addi	a4,a4,-1016 # ffc08 <__stack_size+0xfdc08>
80009400:	00e7ed33          	or	s10,a5,a4
80009404:	00ad4533          	xor	a0,s10,a0
80009408:	d14fa0ef          	jal	8000391c <__bswapsi2>
8000940c:	00050793          	mv	a5,a0
80009410:	00400693          	li	a3,4
80009414:	03c10613          	addi	a2,sp,60
80009418:	000c0593          	mv	a1,s8
8000941c:	00090513          	mv	a0,s2
80009420:	02f12e23          	sw	a5,60(sp)
80009424:	bdcfc0ef          	jal	80005800 <lfs_dir_commitprog>
80009428:	00050313          	mv	t1,a0
8000942c:	ee0514e3          	bnez	a0,80009314 <lfs_dir_compact+0x2d0>
80009430:	00800693          	li	a3,8
80009434:	018d8613          	addi	a2,s11,24
80009438:	000c0593          	mv	a1,s8
8000943c:	00090513          	mv	a0,s2
80009440:	bc0fc0ef          	jal	80005800 <lfs_dir_commitprog>
80009444:	00050313          	mv	t1,a0
80009448:	ec0516e3          	bnez	a0,80009314 <lfs_dir_compact+0x2d0>
8000944c:	05a12c23          	sw	s10,88(sp)
80009450:	000c9e63          	bnez	s9,8000946c <lfs_dir_compact+0x428>
80009454:	04892783          	lw	a5,72(s2)
80009458:	0e079463          	bnez	a5,80009540 <lfs_dir_compact+0x4fc>
8000945c:	04c92783          	lw	a5,76(s2)
80009460:	0e079063          	bnez	a5,80009540 <lfs_dir_compact+0x4fc>
80009464:	05092783          	lw	a5,80(s2)
80009468:	0c079c63          	bnez	a5,80009540 <lfs_dir_compact+0x4fc>
8000946c:	000c0593          	mv	a1,s8
80009470:	00090513          	mv	a0,s2
80009474:	dd4fc0ef          	jal	80005a48 <lfs_dir_commitcrc>
80009478:	00050313          	mv	t1,a0
8000947c:	e8051ce3          	bnez	a0,80009314 <lfs_dir_compact+0x2d0>
80009480:	05412783          	lw	a5,84(sp)
80009484:	000da683          	lw	a3,0(s11)
80009488:	004da703          	lw	a4,4(s11)
8000948c:	00fda623          	sw	a5,12(s11)
80009490:	05812783          	lw	a5,88(sp)
80009494:	00eda023          	sw	a4,0(s11)
80009498:	00dda223          	sw	a3,4(s11)
8000949c:	00fda823          	sw	a5,16(s11)
800094a0:	03c92783          	lw	a5,60(s2)
800094a4:	40848433          	sub	s0,s1,s0
800094a8:	008d9a23          	sh	s0,20(s11)
800094ac:	0147d613          	srli	a2,a5,0x14
800094b0:	70067613          	andi	a2,a2,1792
800094b4:	00060e63          	beqz	a2,800094d0 <lfs_dir_compact+0x48c>
800094b8:	04092583          	lw	a1,64(s2)
800094bc:	1ab70663          	beq	a4,a1,80009668 <lfs_dir_compact+0x624>
800094c0:	04492603          	lw	a2,68(s2)
800094c4:	1ac68263          	beq	a3,a2,80009668 <lfs_dir_compact+0x624>
800094c8:	1ab68063          	beq	a3,a1,80009668 <lfs_dir_compact+0x624>
800094cc:	18c70e63          	beq	a4,a2,80009668 <lfs_dir_compact+0x624>
800094d0:	0e0c9663          	bnez	s9,800095bc <lfs_dir_compact+0x578>
800094d4:	03c92683          	lw	a3,60(s2)
800094d8:	04092703          	lw	a4,64(s2)
800094dc:	04492783          	lw	a5,68(s2)
800094e0:	02d92823          	sw	a3,48(s2)
800094e4:	02e92a23          	sw	a4,52(s2)
800094e8:	02f92c23          	sw	a5,56(s2)
800094ec:	04092423          	sw	zero,72(s2)
800094f0:	04092623          	sw	zero,76(s2)
800094f4:	04092823          	sw	zero,80(s2)
800094f8:	cb9ff06f          	j	800091b0 <lfs_dir_compact+0x16c>
800094fc:	00048813          	mv	a6,s1
80009500:	00040793          	mv	a5,s0
80009504:	000a8713          	mv	a4,s5
80009508:	000a0693          	mv	a3,s4
8000950c:	00098613          	mv	a2,s3
80009510:	000d8593          	mv	a1,s11
80009514:	00090513          	mv	a0,s2
80009518:	739010ef          	jal	8000b450 <lfs_dir_split>
8000951c:	00050313          	mv	t1,a0
80009520:	00050c63          	beqz	a0,80009538 <lfs_dir_compact+0x4f4>
80009524:	fe400793          	li	a5,-28
80009528:	c8f514e3          	bne	a0,a5,800091b0 <lfs_dir_compact+0x16c>
8000952c:	d89ff06f          	j	800092b4 <lfs_dir_compact+0x270>
80009530:	06852f83          	lw	t6,104(a0)
80009534:	cc5ff06f          	j	800091f8 <lfs_dir_compact+0x1b4>
80009538:	00040493          	mv	s1,s0
8000953c:	d79ff06f          	j	800092b4 <lfs_dir_compact+0x270>
80009540:	05412783          	lw	a5,84(sp)
80009544:	06412703          	lw	a4,100(sp)
80009548:	01078793          	addi	a5,a5,16
8000954c:	1ef76c63          	bltu	a4,a5,80009744 <lfs_dir_compact+0x700>
80009550:	05812503          	lw	a0,88(sp)
80009554:	800007b7          	lui	a5,0x80000
80009558:	c0c78793          	addi	a5,a5,-1012 # 7ffffc0c <__stack_size+0x7fffdc0c>
8000955c:	00f54533          	xor	a0,a0,a5
80009560:	02f12223          	sw	a5,36(sp)
80009564:	bb8fa0ef          	jal	8000391c <__bswapsi2>
80009568:	00050713          	mv	a4,a0
8000956c:	00400693          	li	a3,4
80009570:	03c10613          	addi	a2,sp,60
80009574:	000c0593          	mv	a1,s8
80009578:	00090513          	mv	a0,s2
8000957c:	02e12e23          	sw	a4,60(sp)
80009580:	a80fc0ef          	jal	80005800 <lfs_dir_commitprog>
80009584:	00050313          	mv	t1,a0
80009588:	d80516e3          	bnez	a0,80009314 <lfs_dir_compact+0x2d0>
8000958c:	00c00693          	li	a3,12
80009590:	000b0613          	mv	a2,s6
80009594:	000c0593          	mv	a1,s8
80009598:	00090513          	mv	a0,s2
8000959c:	a64fc0ef          	jal	80005800 <lfs_dir_commitprog>
800095a0:	00050313          	mv	t1,a0
800095a4:	d60518e3          	bnez	a0,80009314 <lfs_dir_compact+0x2d0>
800095a8:	02412783          	lw	a5,36(sp)
800095ac:	04f12c23          	sw	a5,88(sp)
800095b0:	ebdff06f          	j	8000946c <lfs_dir_compact+0x428>
800095b4:	00100c93          	li	s9,1
800095b8:	d05ff06f          	j	800092bc <lfs_dir_compact+0x278>
800095bc:	02092783          	lw	a5,32(s2)
800095c0:	02812683          	lw	a3,40(sp)
800095c4:	08f68863          	beq	a3,a5,80009654 <lfs_dir_compact+0x610>
800095c8:	02492703          	lw	a4,36(s2)
800095cc:	02c12603          	lw	a2,44(sp)
800095d0:	08e60263          	beq	a2,a4,80009654 <lfs_dir_compact+0x610>
800095d4:	08e68063          	beq	a3,a4,80009654 <lfs_dir_compact+0x610>
800095d8:	06f60e63          	beq	a2,a5,80009654 <lfs_dir_compact+0x610>
800095dc:	02892783          	lw	a5,40(s2)
800095e0:	04078263          	beqz	a5,80009624 <lfs_dir_compact+0x5e0>
800095e4:	02812603          	lw	a2,40(sp)
800095e8:	02c12583          	lw	a1,44(sp)
800095ec:	01c0006f          	j	80009608 <lfs_dir_compact+0x5c4>
800095f0:	00c7a683          	lw	a3,12(a5)
800095f4:	00d58e63          	beq	a1,a3,80009610 <lfs_dir_compact+0x5cc>
800095f8:	00d60c63          	beq	a2,a3,80009610 <lfs_dir_compact+0x5cc>
800095fc:	00e58a63          	beq	a1,a4,80009610 <lfs_dir_compact+0x5cc>
80009600:	0007a783          	lw	a5,0(a5)
80009604:	02078063          	beqz	a5,80009624 <lfs_dir_compact+0x5e0>
80009608:	0087a703          	lw	a4,8(a5)
8000960c:	fee612e3          	bne	a2,a4,800095f0 <lfs_dir_compact+0x5ac>
80009610:	000da703          	lw	a4,0(s11)
80009614:	00e7a423          	sw	a4,8(a5)
80009618:	004da703          	lw	a4,4(s11)
8000961c:	00e7a623          	sw	a4,12(a5)
80009620:	fe1ff06f          	j	80009600 <lfs_dir_compact+0x5bc>
80009624:	000c0613          	mv	a2,s8
80009628:	04010593          	addi	a1,sp,64
8000962c:	00090513          	mv	a0,s2
80009630:	02612223          	sw	t1,36(sp)
80009634:	97dfd0ef          	jal	80006fb0 <lfs_fs_parent>
80009638:	02412303          	lw	t1,36(sp)
8000963c:	00050813          	mv	a6,a0
80009640:	04055263          	bgez	a0,80009684 <lfs_dir_compact+0x640>
80009644:	ffe00793          	li	a5,-2
80009648:	0cf50663          	beq	a0,a5,80009714 <lfs_dir_compact+0x6d0>
8000964c:	00050313          	mv	t1,a0
80009650:	b61ff06f          	j	800091b0 <lfs_dir_compact+0x16c>
80009654:	000da783          	lw	a5,0(s11)
80009658:	02f92023          	sw	a5,32(s2)
8000965c:	004da783          	lw	a5,4(s11)
80009660:	02f92223          	sw	a5,36(s2)
80009664:	f79ff06f          	j	800095dc <lfs_dir_compact+0x598>
80009668:	80000737          	lui	a4,0x80000
8000966c:	3ff70713          	addi	a4,a4,1023 # 800003ff <_prtl8+0x57>
80009670:	00e7f7b3          	and	a5,a5,a4
80009674:	02f92e23          	sw	a5,60(s2)
80009678:	04092023          	sw	zero,64(s2)
8000967c:	04092223          	sw	zero,68(s2)
80009680:	e51ff06f          	j	800094d0 <lfs_dir_compact+0x48c>
80009684:	03c92703          	lw	a4,60(s2)
80009688:	04892683          	lw	a3,72(s2)
8000968c:	80000437          	lui	s0,0x80000
80009690:	00170713          	addi	a4,a4,1
80009694:	3ff77793          	andi	a5,a4,1023
80009698:	00f037b3          	snez	a5,a5
8000969c:	01f79793          	slli	a5,a5,0x1f
800096a0:	00e7c7b3          	xor	a5,a5,a4
800096a4:	0087f7b3          	and	a5,a5,s0
800096a8:	00f6c6b3          	xor	a3,a3,a5
800096ac:	00f74733          	xor	a4,a4,a5
800096b0:	04d92423          	sw	a3,72(s2)
800096b4:	02e92e23          	sw	a4,60(s2)
800096b8:	00100693          	li	a3,1
800096bc:	04810613          	addi	a2,sp,72
800096c0:	000c0593          	mv	a1,s8
800096c4:	00090513          	mv	a0,s2
800096c8:	02612223          	sw	t1,36(sp)
800096cc:	05012423          	sw	a6,72(sp)
800096d0:	05b12623          	sw	s11,76(sp)
800096d4:	0c0000ef          	jal	80009794 <lfs_dir_commit>
800096d8:	02412303          	lw	t1,36(sp)
800096dc:	00050793          	mv	a5,a0
800096e0:	04051e63          	bnez	a0,8000973c <lfs_dir_compact+0x6f8>
800096e4:	03c92703          	lw	a4,60(s2)
800096e8:	04892683          	lw	a3,72(s2)
800096ec:	fff70713          	addi	a4,a4,-1
800096f0:	3ff77793          	andi	a5,a4,1023
800096f4:	00f037b3          	snez	a5,a5
800096f8:	01f79793          	slli	a5,a5,0x1f
800096fc:	00e7c7b3          	xor	a5,a5,a4
80009700:	0087f7b3          	and	a5,a5,s0
80009704:	00f6c6b3          	xor	a3,a3,a5
80009708:	00f74733          	xor	a4,a4,a5
8000970c:	04d92423          	sw	a3,72(s2)
80009710:	02e92e23          	sw	a4,60(s2)
80009714:	000c0613          	mv	a2,s8
80009718:	04010593          	addi	a1,sp,64
8000971c:	00090513          	mv	a0,s2
80009720:	02612223          	sw	t1,36(sp)
80009724:	bf1fd0ef          	jal	80007314 <lfs_fs_pred>
80009728:	02412303          	lw	t1,36(sp)
8000972c:	00050793          	mv	a5,a0
80009730:	00050e63          	beqz	a0,8000974c <lfs_dir_compact+0x708>
80009734:	ffe00713          	li	a4,-2
80009738:	a6e50ce3          	beq	a0,a4,800091b0 <lfs_dir_compact+0x16c>
8000973c:	00078313          	mv	t1,a5
80009740:	a71ff06f          	j	800091b0 <lfs_dir_compact+0x16c>
80009744:	fe400313          	li	t1,-28
80009748:	a69ff06f          	j	800091b0 <lfs_dir_compact+0x16c>
8000974c:	06714783          	lbu	a5,103(sp)
80009750:	00100737          	lui	a4,0x100
80009754:	c0870713          	addi	a4,a4,-1016 # ffc08 <__stack_size+0xfdc08>
80009758:	60078793          	addi	a5,a5,1536
8000975c:	01479793          	slli	a5,a5,0x14
80009760:	00e7e7b3          	or	a5,a5,a4
80009764:	00100693          	li	a3,1
80009768:	04810613          	addi	a2,sp,72
8000976c:	000c0593          	mv	a1,s8
80009770:	00090513          	mv	a0,s2
80009774:	02612223          	sw	t1,36(sp)
80009778:	04f12423          	sw	a5,72(sp)
8000977c:	05b12623          	sw	s11,76(sp)
80009780:	014000ef          	jal	80009794 <lfs_dir_commit>
80009784:	02412303          	lw	t1,36(sp)
80009788:	00050793          	mv	a5,a0
8000978c:	a20502e3          	beqz	a0,800091b0 <lfs_dir_compact+0x16c>
80009790:	fadff06f          	j	8000973c <lfs_dir_compact+0x6f8>

80009794 <lfs_dir_commit>:
80009794:	f8010113          	addi	sp,sp,-128
80009798:	06812c23          	sw	s0,120(sp)
8000979c:	02852403          	lw	s0,40(a0)
800097a0:	06912a23          	sw	s1,116(sp)
800097a4:	07212823          	sw	s2,112(sp)
800097a8:	07312623          	sw	s3,108(sp)
800097ac:	07412423          	sw	s4,104(sp)
800097b0:	07512223          	sw	s5,100(sp)
800097b4:	06112e23          	sw	ra,124(sp)
800097b8:	00050913          	mv	s2,a0
800097bc:	00058493          	mv	s1,a1
800097c0:	00060a13          	mv	s4,a2
800097c4:	00068993          	mv	s3,a3
800097c8:	00100a93          	li	s5,1
800097cc:	02041263          	bnez	s0,800097f0 <lfs_dir_commit+0x5c>
800097d0:	0c00006f          	j	80009890 <lfs_dir_commit+0xfc>
800097d4:	00c42603          	lw	a2,12(s0) # 8000000c <_start+0xc>
800097d8:	0044a683          	lw	a3,4(s1)
800097dc:	02c68463          	beq	a3,a2,80009804 <lfs_dir_commit+0x70>
800097e0:	02f68263          	beq	a3,a5,80009804 <lfs_dir_commit+0x70>
800097e4:	02e60063          	beq	a2,a4,80009804 <lfs_dir_commit+0x70>
800097e8:	00042403          	lw	s0,0(s0)
800097ec:	0a040263          	beqz	s0,80009890 <lfs_dir_commit+0xfc>
800097f0:	00840793          	addi	a5,s0,8
800097f4:	fef48ae3          	beq	s1,a5,800097e8 <lfs_dir_commit+0x54>
800097f8:	00842783          	lw	a5,8(s0)
800097fc:	0004a703          	lw	a4,0(s1)
80009800:	fcf71ae3          	bne	a4,a5,800097d4 <lfs_dir_commit+0x40>
80009804:	00644783          	lbu	a5,6(s0)
80009808:	ff5790e3          	bne	a5,s5,800097e8 <lfs_dir_commit+0x54>
8000980c:	03042783          	lw	a5,48(s0)
80009810:	00b79713          	slli	a4,a5,0xb
80009814:	fc075ae3          	bgez	a4,800097e8 <lfs_dir_commit+0x54>
80009818:	06892783          	lw	a5,104(s2)
8000981c:	02c42683          	lw	a3,44(s0)
80009820:	0287a703          	lw	a4,40(a5)
80009824:	fcd772e3          	bgeu	a4,a3,800097e8 <lfs_dir_commit+0x54>
80009828:	03442703          	lw	a4,52(s0)
8000982c:	0207a783          	lw	a5,32(a5)
80009830:	00040593          	mv	a1,s0
80009834:	02e42e23          	sw	a4,60(s0)
80009838:	06f92023          	sw	a5,96(s2)
8000983c:	00090513          	mv	a0,s2
80009840:	941fe0ef          	jal	80008180 <lfs_file_relocate>
80009844:	02051463          	bnez	a0,8000986c <lfs_dir_commit+0xd8>
80009848:	03042783          	lw	a5,48(s0)
8000984c:	fff00737          	lui	a4,0xfff00
80009850:	fff70713          	addi	a4,a4,-1 # ffefffff <fs+0x7fe82fff>
80009854:	00e7f7b3          	and	a5,a5,a4
80009858:	02f42823          	sw	a5,48(s0)
8000985c:	00040593          	mv	a1,s0
80009860:	00090513          	mv	a0,s2
80009864:	930ff0ef          	jal	80008994 <lfs_file_flush>
80009868:	f80500e3          	beqz	a0,800097e8 <lfs_dir_commit+0x54>
8000986c:	07c12083          	lw	ra,124(sp)
80009870:	07812403          	lw	s0,120(sp)
80009874:	07412483          	lw	s1,116(sp)
80009878:	07012903          	lw	s2,112(sp)
8000987c:	06c12983          	lw	s3,108(sp)
80009880:	06812a03          	lw	s4,104(sp)
80009884:	06412a83          	lw	s5,100(sp)
80009888:	08010113          	addi	sp,sp,128
8000988c:	00008067          	ret
80009890:	03c92e83          	lw	t4,60(s2)
80009894:	07612023          	sw	s6,96(sp)
80009898:	014ede13          	srli	t3,t4,0x14
8000989c:	700e7e13          	andi	t3,t3,1792
800098a0:	4a098863          	beqz	s3,80009d50 <lfs_dir_commit+0x5bc>
800098a4:	00399593          	slli	a1,s3,0x3
800098a8:	000a0713          	mv	a4,s4
800098ac:	014585b3          	add	a1,a1,s4
800098b0:	fff00a93          	li	s5,-1
800098b4:	fff00b13          	li	s6,-1
800098b8:	40100813          	li	a6,1025
800098bc:	4ff00893          	li	a7,1279
800098c0:	60000313          	li	t1,1536
800098c4:	0300006f          	j	800098f4 <lfs_dir_commit+0x160>
800098c8:	11160a63          	beq	a2,a7,800099dc <lfs_dir_commit+0x248>
800098cc:	02679063          	bne	a5,t1,800098ec <lfs_dir_commit+0x158>
800098d0:	00472783          	lw	a5,4(a4)
800098d4:	00157513          	andi	a0,a0,1
800098d8:	0007a683          	lw	a3,0(a5)
800098dc:	00d4ac23          	sw	a3,24(s1)
800098e0:	0047a783          	lw	a5,4(a5)
800098e4:	00a48ba3          	sb	a0,23(s1)
800098e8:	00f4ae23          	sw	a5,28(s1)
800098ec:	00870713          	addi	a4,a4,8
800098f0:	02e58a63          	beq	a1,a4,80009924 <lfs_dir_commit+0x190>
800098f4:	00072683          	lw	a3,0(a4)
800098f8:	0146d793          	srli	a5,a3,0x14
800098fc:	7ff7f613          	andi	a2,a5,2047
80009900:	0146d513          	srli	a0,a3,0x14
80009904:	7007f793          	andi	a5,a5,1792
80009908:	fd0610e3          	bne	a2,a6,800098c8 <lfs_dir_commit+0x134>
8000990c:	0144d783          	lhu	a5,20(s1)
80009910:	00870713          	addi	a4,a4,8
80009914:	00068a93          	mv	s5,a3
80009918:	00178793          	addi	a5,a5,1
8000991c:	00f49a23          	sh	a5,20(s1)
80009920:	fce59ae3          	bne	a1,a4,800098f4 <lfs_dir_commit+0x160>
80009924:	020e0263          	beqz	t3,80009948 <lfs_dir_commit+0x1b4>
80009928:	04092703          	lw	a4,64(s2)
8000992c:	0004a783          	lw	a5,0(s1)
80009930:	04492503          	lw	a0,68(s2)
80009934:	18f70463          	beq	a4,a5,80009abc <lfs_dir_commit+0x328>
80009938:	0044a683          	lw	a3,4(s1)
8000993c:	18a68063          	beq	a3,a0,80009abc <lfs_dir_commit+0x328>
80009940:	16d70e63          	beq	a4,a3,80009abc <lfs_dir_commit+0x328>
80009944:	16a78c63          	beq	a5,a0,80009abc <lfs_dir_commit+0x328>
80009948:	300b5063          	bgez	s6,80009c48 <lfs_dir_commit+0x4b4>
8000994c:	05712e23          	sw	s7,92(sp)
80009950:	05812c23          	sw	s8,88(sp)
80009954:	0164c783          	lbu	a5,22(s1)
80009958:	08079c63          	bnez	a5,800099f0 <lfs_dir_commit+0x25c>
8000995c:	0144d803          	lhu	a6,20(s1)
80009960:	0fe00793          	li	a5,254
80009964:	0907e663          	bltu	a5,a6,800099f0 <lfs_dir_commit+0x25c>
80009968:	fff00793          	li	a5,-1
8000996c:	00f92823          	sw	a5,16(s2)
80009970:	00048713          	mv	a4,s1
80009974:	00000793          	li	a5,0
80009978:	00098693          	mv	a3,s3
8000997c:	000a0613          	mv	a2,s4
80009980:	00048593          	mv	a1,s1
80009984:	00090513          	mv	a0,s2
80009988:	ebcff0ef          	jal	80009044 <lfs_dir_compact>
8000998c:	12051063          	bnez	a0,80009aac <lfs_dir_commit+0x318>
80009990:	0044ac03          	lw	s8,4(s1)
80009994:	0004ab83          	lw	s7,0(s1)
80009998:	02892403          	lw	s0,40(s2)
8000999c:	00ab5b13          	srli	s6,s6,0xa
800099a0:	3ffb7b13          	andi	s6,s6,1023
800099a4:	02040263          	beqz	s0,800099c8 <lfs_dir_commit+0x234>
800099a8:	00842783          	lw	a5,8(s0)
800099ac:	16fb8e63          	beq	s7,a5,80009b28 <lfs_dir_commit+0x394>
800099b0:	00c42703          	lw	a4,12(s0)
800099b4:	17870a63          	beq	a4,s8,80009b28 <lfs_dir_commit+0x394>
800099b8:	17878863          	beq	a5,s8,80009b28 <lfs_dir_commit+0x394>
800099bc:	16eb8663          	beq	s7,a4,80009b28 <lfs_dir_commit+0x394>
800099c0:	00042403          	lw	s0,0(s0)
800099c4:	fe0412e3          	bnez	s0,800099a8 <lfs_dir_commit+0x214>
800099c8:	06012b03          	lw	s6,96(sp)
800099cc:	05c12b83          	lw	s7,92(sp)
800099d0:	05812c03          	lw	s8,88(sp)
800099d4:	00000513          	li	a0,0
800099d8:	e95ff06f          	j	8000986c <lfs_dir_commit+0xd8>
800099dc:	0144d783          	lhu	a5,20(s1)
800099e0:	00068b13          	mv	s6,a3
800099e4:	fff78793          	addi	a5,a5,-1
800099e8:	00f49a23          	sh	a5,20(s1)
800099ec:	f01ff06f          	j	800098ec <lfs_dir_commit+0x158>
800099f0:	06892783          	lw	a5,104(s2)
800099f4:	0004ae03          	lw	t3,0(s1)
800099f8:	00c4a603          	lw	a2,12(s1)
800099fc:	01c7a303          	lw	t1,28(a5)
80009a00:	02810793          	addi	a5,sp,40
80009a04:	0104a683          	lw	a3,16(s1)
80009a08:	00f12a23          	sw	a5,20(sp)
80009a0c:	800067b7          	lui	a5,0x80006
80009a10:	88c78793          	addi	a5,a5,-1908 # 8000588c <lfs_dir_commit_commit>
80009a14:	ff830313          	addi	t1,t1,-8
80009a18:	03010413          	addi	s0,sp,48
80009a1c:	00f12823          	sw	a5,16(sp)
80009a20:	03c12823          	sw	t3,48(sp)
80009a24:	00012623          	sw	zero,12(sp)
80009a28:	fff00e13          	li	t3,-1
80009a2c:	00012423          	sw	zero,8(sp)
80009a30:	00012223          	sw	zero,4(sp)
80009a34:	00012023          	sw	zero,0(sp)
80009a38:	00000893          	li	a7,0
80009a3c:	00000813          	li	a6,0
80009a40:	00098793          	mv	a5,s3
80009a44:	000a0713          	mv	a4,s4
80009a48:	00048593          	mv	a1,s1
80009a4c:	00090513          	mv	a0,s2
80009a50:	02c12a23          	sw	a2,52(sp)
80009a54:	02d12c23          	sw	a3,56(sp)
80009a58:	03c12e23          	sw	t3,60(sp)
80009a5c:	04c12023          	sw	a2,64(sp)
80009a60:	04612223          	sw	t1,68(sp)
80009a64:	03212423          	sw	s2,40(sp)
80009a68:	02812623          	sw	s0,44(sp)
80009a6c:	abcfc0ef          	jal	80005d28 <lfs_dir_traverse>
80009a70:	02051663          	bnez	a0,80009a9c <lfs_dir_commit+0x308>
80009a74:	04892783          	lw	a5,72(s2)
80009a78:	24079e63          	bnez	a5,80009cd4 <lfs_dir_commit+0x540>
80009a7c:	04c92783          	lw	a5,76(s2)
80009a80:	24079a63          	bnez	a5,80009cd4 <lfs_dir_commit+0x540>
80009a84:	05092783          	lw	a5,80(s2)
80009a88:	24079663          	bnez	a5,80009cd4 <lfs_dir_commit+0x540>
80009a8c:	00040593          	mv	a1,s0
80009a90:	00090513          	mv	a0,s2
80009a94:	fb5fb0ef          	jal	80005a48 <lfs_dir_commitcrc>
80009a98:	1a050e63          	beqz	a0,80009c54 <lfs_dir_commit+0x4c0>
80009a9c:	fe400793          	li	a5,-28
80009aa0:	1af50063          	beq	a0,a5,80009c40 <lfs_dir_commit+0x4ac>
80009aa4:	fac00793          	li	a5,-84
80009aa8:	18f50c63          	beq	a0,a5,80009c40 <lfs_dir_commit+0x4ac>
80009aac:	06012b03          	lw	s6,96(sp)
80009ab0:	05c12b83          	lw	s7,92(sp)
80009ab4:	05812c03          	lw	s8,88(sp)
80009ab8:	db5ff06f          	j	8000986c <lfs_dir_commit+0xd8>
80009abc:	0144d783          	lhu	a5,20(s1)
80009ac0:	04892583          	lw	a1,72(s2)
80009ac4:	04c92603          	lw	a2,76(s2)
80009ac8:	05092683          	lw	a3,80(s2)
80009acc:	80000b37          	lui	s6,0x80000
80009ad0:	fff78793          	addi	a5,a5,-1
80009ad4:	c00b0b13          	addi	s6,s6,-1024 # 7ffffc00 <__stack_size+0x7fffdc00>
80009ad8:	01079793          	slli	a5,a5,0x10
80009adc:	016efb33          	and	s6,t4,s6
80009ae0:	0107d793          	srli	a5,a5,0x10
80009ae4:	00f49a23          	sh	a5,20(s1)
80009ae8:	00e64633          	xor	a2,a2,a4
80009aec:	0165c5b3          	xor	a1,a1,s6
80009af0:	00a6c733          	xor	a4,a3,a0
80009af4:	04b92423          	sw	a1,72(s2)
80009af8:	04c92623          	sw	a2,76(s2)
80009afc:	04e92823          	sw	a4,80(s2)
80009b00:	e40796e3          	bnez	a5,8000994c <lfs_dir_commit+0x1b8>
80009b04:	03010613          	addi	a2,sp,48
80009b08:	00048593          	mv	a1,s1
80009b0c:	00090513          	mv	a0,s2
80009b10:	805fd0ef          	jal	80007314 <lfs_fs_pred>
80009b14:	24050663          	beqz	a0,80009d60 <lfs_dir_commit+0x5cc>
80009b18:	ffe00793          	li	a5,-2
80009b1c:	e2f508e3          	beq	a0,a5,8000994c <lfs_dir_commit+0x1b8>
80009b20:	06012b03          	lw	s6,96(sp)
80009b24:	d49ff06f          	j	8000986c <lfs_dir_commit+0xd8>
80009b28:	0004a883          	lw	a7,0(s1)
80009b2c:	0044a803          	lw	a6,4(s1)
80009b30:	0084a503          	lw	a0,8(s1)
80009b34:	00c4a583          	lw	a1,12(s1)
80009b38:	0104a603          	lw	a2,16(s1)
80009b3c:	0144a683          	lw	a3,20(s1)
80009b40:	0184a703          	lw	a4,24(s1)
80009b44:	01c4a783          	lw	a5,28(s1)
80009b48:	00445303          	lhu	t1,4(s0)
80009b4c:	01142423          	sw	a7,8(s0)
80009b50:	01042623          	sw	a6,12(s0)
80009b54:	00a42823          	sw	a0,16(s0)
80009b58:	00b42a23          	sw	a1,20(s0)
80009b5c:	00c42c23          	sw	a2,24(s0)
80009b60:	00d42e23          	sw	a3,28(s0)
80009b64:	02e42023          	sw	a4,32(s0)
80009b68:	02f42223          	sw	a5,36(s0)
80009b6c:	09630263          	beq	t1,s6,80009bf0 <lfs_dir_commit+0x45c>
80009b70:	086b7863          	bgeu	s6,t1,80009c00 <lfs_dir_commit+0x46c>
80009b74:	fff30313          	addi	t1,t1,-1
80009b78:	01031313          	slli	t1,t1,0x10
80009b7c:	00644703          	lbu	a4,6(s0)
80009b80:	01035313          	srli	t1,t1,0x10
80009b84:	00641223          	sh	t1,4(s0)
80009b88:	00200793          	li	a5,2
80009b8c:	00f71863          	bne	a4,a5,80009b9c <lfs_dir_commit+0x408>
80009b90:	02842783          	lw	a5,40(s0)
80009b94:	fff78793          	addi	a5,a5,-1
80009b98:	02f42423          	sw	a5,40(s0)
80009b9c:	02040a13          	addi	s4,s0,32
80009ba0:	00840993          	addi	s3,s0,8
80009ba4:	01c0006f          	j	80009bc0 <lfs_dir_commit+0x42c>
80009ba8:	01f44303          	lbu	t1,31(s0)
80009bac:	e0030ae3          	beqz	t1,800099c0 <lfs_dir_commit+0x22c>
80009bb0:	01d41223          	sh	t4,4(s0)
80009bb4:	d69fc0ef          	jal	8000691c <lfs_dir_fetchmatch>
80009bb8:	ee051ae3          	bnez	a0,80009aac <lfs_dir_commit+0x318>
80009bbc:	00445303          	lhu	t1,4(s0)
80009bc0:	01c45e03          	lhu	t3,28(s0)
80009bc4:	00000893          	li	a7,0
80009bc8:	00000813          	li	a6,0
80009bcc:	41c30eb3          	sub	t4,t1,t3
80009bd0:	00000793          	li	a5,0
80009bd4:	00000713          	li	a4,0
80009bd8:	fff00693          	li	a3,-1
80009bdc:	000a0613          	mv	a2,s4
80009be0:	00098593          	mv	a1,s3
80009be4:	00090513          	mv	a0,s2
80009be8:	fdc370e3          	bgeu	t1,t3,80009ba8 <lfs_dir_commit+0x414>
80009bec:	dd5ff06f          	j	800099c0 <lfs_dir_commit+0x22c>
80009bf0:	fff00793          	li	a5,-1
80009bf4:	00f42423          	sw	a5,8(s0)
80009bf8:	00f42623          	sw	a5,12(s0)
80009bfc:	fa1ff06f          	j	80009b9c <lfs_dir_commit+0x408>
80009c00:	00840793          	addi	a5,s0,8
80009c04:	f8f48ce3          	beq	s1,a5,80009b9c <lfs_dir_commit+0x408>
80009c08:	00aad793          	srli	a5,s5,0xa
80009c0c:	3ff7f793          	andi	a5,a5,1023
80009c10:	f8f366e3          	bltu	t1,a5,80009b9c <lfs_dir_commit+0x408>
80009c14:	00130313          	addi	t1,t1,1
80009c18:	01031313          	slli	t1,t1,0x10
80009c1c:	00644703          	lbu	a4,6(s0)
80009c20:	01035313          	srli	t1,t1,0x10
80009c24:	00641223          	sh	t1,4(s0)
80009c28:	00200793          	li	a5,2
80009c2c:	f6f718e3          	bne	a4,a5,80009b9c <lfs_dir_commit+0x408>
80009c30:	02842783          	lw	a5,40(s0)
80009c34:	00178793          	addi	a5,a5,1
80009c38:	02f42423          	sw	a5,40(s0)
80009c3c:	f61ff06f          	j	80009b9c <lfs_dir_commit+0x408>
80009c40:	0144d803          	lhu	a6,20(s1)
80009c44:	d25ff06f          	j	80009968 <lfs_dir_commit+0x1d4>
80009c48:	0144d783          	lhu	a5,20(s1)
80009c4c:	d00790e3          	bnez	a5,8000994c <lfs_dir_commit+0x1b8>
80009c50:	eb5ff06f          	j	80009b04 <lfs_dir_commit+0x370>
80009c54:	03812783          	lw	a5,56(sp)
80009c58:	0004ab83          	lw	s7,0(s1)
80009c5c:	0044ac03          	lw	s8,4(s1)
80009c60:	00f4a823          	sw	a5,16(s1)
80009c64:	03412783          	lw	a5,52(sp)
80009c68:	00f4a623          	sw	a5,12(s1)
80009c6c:	03c92703          	lw	a4,60(s2)
80009c70:	01475793          	srli	a5,a4,0x14
80009c74:	7007f793          	andi	a5,a5,1792
80009c78:	02078a63          	beqz	a5,80009cac <lfs_dir_commit+0x518>
80009c7c:	04092683          	lw	a3,64(s2)
80009c80:	00db8a63          	beq	s7,a3,80009c94 <lfs_dir_commit+0x500>
80009c84:	04492783          	lw	a5,68(s2)
80009c88:	00fc0663          	beq	s8,a5,80009c94 <lfs_dir_commit+0x500>
80009c8c:	00dc0463          	beq	s8,a3,80009c94 <lfs_dir_commit+0x500>
80009c90:	00fb9e63          	bne	s7,a5,80009cac <lfs_dir_commit+0x518>
80009c94:	800007b7          	lui	a5,0x80000
80009c98:	3ff78793          	addi	a5,a5,1023 # 800003ff <_prtl8+0x57>
80009c9c:	00f77733          	and	a4,a4,a5
80009ca0:	02e92e23          	sw	a4,60(s2)
80009ca4:	04092023          	sw	zero,64(s2)
80009ca8:	04092223          	sw	zero,68(s2)
80009cac:	03c92683          	lw	a3,60(s2)
80009cb0:	04092703          	lw	a4,64(s2)
80009cb4:	04492783          	lw	a5,68(s2)
80009cb8:	02d92823          	sw	a3,48(s2)
80009cbc:	02e92a23          	sw	a4,52(s2)
80009cc0:	02f92c23          	sw	a5,56(s2)
80009cc4:	04092423          	sw	zero,72(s2)
80009cc8:	04092623          	sw	zero,76(s2)
80009ccc:	04092823          	sw	zero,80(s2)
80009cd0:	cc9ff06f          	j	80009998 <lfs_dir_commit+0x204>
80009cd4:	04890b93          	addi	s7,s2,72
80009cd8:	000b8613          	mv	a2,s7
80009cdc:	00048593          	mv	a1,s1
80009ce0:	00090513          	mv	a0,s2
80009ce4:	e24fc0ef          	jal	80006308 <lfs_dir_getgstate>
80009ce8:	dc0512e3          	bnez	a0,80009aac <lfs_dir_commit+0x318>
80009cec:	03412783          	lw	a5,52(sp)
80009cf0:	04412703          	lw	a4,68(sp)
80009cf4:	01078793          	addi	a5,a5,16
80009cf8:	f4f764e3          	bltu	a4,a5,80009c40 <lfs_dir_commit+0x4ac>
80009cfc:	03812503          	lw	a0,56(sp)
80009d00:	80000c37          	lui	s8,0x80000
80009d04:	c0cc0c13          	addi	s8,s8,-1012 # 7ffffc0c <__stack_size+0x7fffdc0c>
80009d08:	01854533          	xor	a0,a0,s8
80009d0c:	c11f90ef          	jal	8000391c <__bswapsi2>
80009d10:	00050793          	mv	a5,a0
80009d14:	00400693          	li	a3,4
80009d18:	02410613          	addi	a2,sp,36
80009d1c:	00040593          	mv	a1,s0
80009d20:	00090513          	mv	a0,s2
80009d24:	02f12223          	sw	a5,36(sp)
80009d28:	ad9fb0ef          	jal	80005800 <lfs_dir_commitprog>
80009d2c:	d60518e3          	bnez	a0,80009a9c <lfs_dir_commit+0x308>
80009d30:	00c00693          	li	a3,12
80009d34:	000b8613          	mv	a2,s7
80009d38:	00040593          	mv	a1,s0
80009d3c:	00090513          	mv	a0,s2
80009d40:	ac1fb0ef          	jal	80005800 <lfs_dir_commitprog>
80009d44:	d4051ce3          	bnez	a0,80009a9c <lfs_dir_commit+0x308>
80009d48:	03812c23          	sw	s8,56(sp)
80009d4c:	d41ff06f          	j	80009a8c <lfs_dir_commit+0x2f8>
80009d50:	060e0663          	beqz	t3,80009dbc <lfs_dir_commit+0x628>
80009d54:	fff00a93          	li	s5,-1
80009d58:	fff00b13          	li	s6,-1
80009d5c:	bcdff06f          	j	80009928 <lfs_dir_commit+0x194>
80009d60:	04714783          	lbu	a5,71(sp)
80009d64:	be0784e3          	beqz	a5,8000994c <lfs_dir_commit+0x1b8>
80009d68:	04890613          	addi	a2,s2,72
80009d6c:	00048593          	mv	a1,s1
80009d70:	00090513          	mv	a0,s2
80009d74:	d94fc0ef          	jal	80006308 <lfs_dir_getgstate>
80009d78:	da0514e3          	bnez	a0,80009b20 <lfs_dir_commit+0x38c>
80009d7c:	0174c783          	lbu	a5,23(s1)
80009d80:	00100737          	lui	a4,0x100
80009d84:	c0870713          	addi	a4,a4,-1016 # ffc08 <__stack_size+0xfdc08>
80009d88:	60078793          	addi	a5,a5,1536
80009d8c:	01479793          	slli	a5,a5,0x14
80009d90:	00e7e7b3          	or	a5,a5,a4
80009d94:	01848493          	addi	s1,s1,24
80009d98:	00100693          	li	a3,1
80009d9c:	02810613          	addi	a2,sp,40
80009da0:	03010593          	addi	a1,sp,48
80009da4:	00090513          	mv	a0,s2
80009da8:	02f12423          	sw	a5,40(sp)
80009dac:	02912623          	sw	s1,44(sp)
80009db0:	9e5ff0ef          	jal	80009794 <lfs_dir_commit>
80009db4:	06012b03          	lw	s6,96(sp)
80009db8:	ab5ff06f          	j	8000986c <lfs_dir_commit+0xd8>
80009dbc:	05712e23          	sw	s7,92(sp)
80009dc0:	05812c23          	sw	s8,88(sp)
80009dc4:	fff00a93          	li	s5,-1
80009dc8:	fff00b13          	li	s6,-1
80009dcc:	b89ff06f          	j	80009954 <lfs_dir_commit+0x1c0>

80009dd0 <lfs_file_sync>:
80009dd0:	fb010113          	addi	sp,sp,-80
80009dd4:	04812423          	sw	s0,72(sp)
80009dd8:	05212023          	sw	s2,64(sp)
80009ddc:	00058413          	mv	s0,a1
80009de0:	00050913          	mv	s2,a0
80009de4:	03612823          	sw	s6,48(sp)
80009de8:	00090513          	mv	a0,s2
80009dec:	00858b13          	addi	s6,a1,8
80009df0:	00040593          	mv	a1,s0
80009df4:	04912223          	sw	s1,68(sp)
80009df8:	03312e23          	sw	s3,60(sp)
80009dfc:	03412c23          	sw	s4,56(sp)
80009e00:	03512a23          	sw	s5,52(sp)
80009e04:	03712623          	sw	s7,44(sp)
80009e08:	04112623          	sw	ra,76(sp)
80009e0c:	fff00bb7          	lui	s7,0xfff00
80009e10:	b85fe0ef          	jal	80008994 <lfs_file_flush>
80009e14:	03042783          	lw	a5,48(s0)
80009e18:	00090ab7          	lui	s5,0x90
80009e1c:	00010a37          	lui	s4,0x10
80009e20:	fff00993          	li	s3,-1
80009e24:	fffb8b93          	addi	s7,s7,-1 # ffefffff <fs+0x7fe82fff>
80009e28:	00050493          	mv	s1,a0
80009e2c:	0e051063          	bnez	a0,80009f0c <lfs_file_sync+0x13c>
80009e30:	0157f733          	and	a4,a5,s5
80009e34:	0f471263          	bne	a4,s4,80009f18 <lfs_file_sync+0x148>
80009e38:	00842703          	lw	a4,8(s0)
80009e3c:	0d370e63          	beq	a4,s3,80009f18 <lfs_file_sync+0x148>
80009e40:	00c42703          	lw	a4,12(s0)
80009e44:	0d370a63          	beq	a4,s3,80009f18 <lfs_file_sync+0x148>
80009e48:	00b79713          	slli	a4,a5,0xb
80009e4c:	0e075e63          	bgez	a4,80009f48 <lfs_file_sync+0x178>
80009e50:	04c42883          	lw	a7,76(s0)
80009e54:	02c42703          	lw	a4,44(s0)
80009e58:	201007b7          	lui	a5,0x20100
80009e5c:	05042603          	lw	a2,80(s0)
80009e60:	00445683          	lhu	a3,4(s0)
80009e64:	00f76733          	or	a4,a4,a5
80009e68:	00862783          	lw	a5,8(a2)
80009e6c:	00462803          	lw	a6,4(a2)
80009e70:	00a69693          	slli	a3,a3,0xa
80009e74:	00f6e7b3          	or	a5,a3,a5
80009e78:	00d76733          	or	a4,a4,a3
80009e7c:	102006b7          	lui	a3,0x10200
80009e80:	00d7e7b3          	or	a5,a5,a3
80009e84:	01010613          	addi	a2,sp,16
80009e88:	00200693          	li	a3,2
80009e8c:	000b0593          	mv	a1,s6
80009e90:	00090513          	mv	a0,s2
80009e94:	00e12823          	sw	a4,16(sp)
80009e98:	01112a23          	sw	a7,20(sp)
80009e9c:	00f12c23          	sw	a5,24(sp)
80009ea0:	01012e23          	sw	a6,28(sp)
80009ea4:	8f1ff0ef          	jal	80009794 <lfs_dir_commit>
80009ea8:	0c050a63          	beqz	a0,80009f7c <lfs_file_sync+0x1ac>
80009eac:	fe400713          	li	a4,-28
80009eb0:	03042783          	lw	a5,48(s0)
80009eb4:	0ae51a63          	bne	a0,a4,80009f68 <lfs_file_sync+0x198>
80009eb8:	00b79713          	slli	a4,a5,0xb
80009ebc:	0a075663          	bgez	a4,80009f68 <lfs_file_sync+0x198>
80009ec0:	06892783          	lw	a5,104(s2)
80009ec4:	03442703          	lw	a4,52(s0)
80009ec8:	00040593          	mv	a1,s0
80009ecc:	0207a783          	lw	a5,32(a5) # 20100020 <__stack_size+0x200fe020>
80009ed0:	02e42e23          	sw	a4,60(s0)
80009ed4:	00090513          	mv	a0,s2
80009ed8:	06f92023          	sw	a5,96(s2)
80009edc:	aa4fe0ef          	jal	80008180 <lfs_file_relocate>
80009ee0:	03042783          	lw	a5,48(s0)
80009ee4:	00050493          	mv	s1,a0
80009ee8:	02051263          	bnez	a0,80009f0c <lfs_file_sync+0x13c>
80009eec:	0177f7b3          	and	a5,a5,s7
80009ef0:	02f42823          	sw	a5,48(s0)
80009ef4:	00040593          	mv	a1,s0
80009ef8:	00090513          	mv	a0,s2
80009efc:	a99fe0ef          	jal	80008994 <lfs_file_flush>
80009f00:	03042783          	lw	a5,48(s0)
80009f04:	00050493          	mv	s1,a0
80009f08:	f20504e3          	beqz	a0,80009e30 <lfs_file_sync+0x60>
80009f0c:	00080737          	lui	a4,0x80
80009f10:	00e7e7b3          	or	a5,a5,a4
80009f14:	02f42823          	sw	a5,48(s0)
80009f18:	04c12083          	lw	ra,76(sp)
80009f1c:	04812403          	lw	s0,72(sp)
80009f20:	04012903          	lw	s2,64(sp)
80009f24:	03c12983          	lw	s3,60(sp)
80009f28:	03812a03          	lw	s4,56(sp)
80009f2c:	03412a83          	lw	s5,52(sp)
80009f30:	03012b03          	lw	s6,48(sp)
80009f34:	02c12b83          	lw	s7,44(sp)
80009f38:	00048513          	mv	a0,s1
80009f3c:	04412483          	lw	s1,68(sp)
80009f40:	05010113          	addi	sp,sp,80
80009f44:	00008067          	ret
80009f48:	02c42703          	lw	a4,44(s0)
80009f4c:	02842683          	lw	a3,40(s0)
80009f50:	202007b7          	lui	a5,0x20200
80009f54:	00e12623          	sw	a4,12(sp)
80009f58:	00d12423          	sw	a3,8(sp)
80009f5c:	00800713          	li	a4,8
80009f60:	00810893          	addi	a7,sp,8
80009f64:	ef9ff06f          	j	80009e5c <lfs_file_sync+0x8c>
80009f68:	00080737          	lui	a4,0x80
80009f6c:	00e7e7b3          	or	a5,a5,a4
80009f70:	02f42823          	sw	a5,48(s0)
80009f74:	00050493          	mv	s1,a0
80009f78:	fa1ff06f          	j	80009f18 <lfs_file_sync+0x148>
80009f7c:	03042783          	lw	a5,48(s0)
80009f80:	ffff0737          	lui	a4,0xffff0
80009f84:	fff70713          	addi	a4,a4,-1 # fffeffff <fs+0x7ff72fff>
80009f88:	00e7f7b3          	and	a5,a5,a4
80009f8c:	02f42823          	sw	a5,48(s0)
80009f90:	f89ff06f          	j	80009f18 <lfs_file_sync+0x148>

80009f94 <lfs_file_close>:
80009f94:	ff010113          	addi	sp,sp,-16
80009f98:	00812423          	sw	s0,8(sp)
80009f9c:	00912223          	sw	s1,4(sp)
80009fa0:	01212023          	sw	s2,0(sp)
80009fa4:	00050493          	mv	s1,a0
80009fa8:	00112623          	sw	ra,12(sp)
80009fac:	00058413          	mv	s0,a1
80009fb0:	e21ff0ef          	jal	80009dd0 <lfs_file_sync>
80009fb4:	0284a783          	lw	a5,40(s1)
80009fb8:	00050913          	mv	s2,a0
80009fbc:	00078e63          	beqz	a5,80009fd8 <lfs_file_close+0x44>
80009fc0:	00879663          	bne	a5,s0,80009fcc <lfs_file_close+0x38>
80009fc4:	0500006f          	j	8000a014 <lfs_file_close+0x80>
80009fc8:	04878863          	beq	a5,s0,8000a018 <lfs_file_close+0x84>
80009fcc:	00078713          	mv	a4,a5
80009fd0:	0007a783          	lw	a5,0(a5) # 20200000 <__stack_size+0x201fe000>
80009fd4:	fe079ae3          	bnez	a5,80009fc8 <lfs_file_close+0x34>
80009fd8:	05042783          	lw	a5,80(s0)
80009fdc:	0007a783          	lw	a5,0(a5)
80009fe0:	04078663          	beqz	a5,8000a02c <lfs_file_close+0x98>
80009fe4:	03042783          	lw	a5,48(s0)
80009fe8:	ffe00737          	lui	a4,0xffe00
80009fec:	fff70713          	addi	a4,a4,-1 # ffdfffff <fs+0x7fd82fff>
80009ff0:	00e7f7b3          	and	a5,a5,a4
80009ff4:	00c12083          	lw	ra,12(sp)
80009ff8:	02f42823          	sw	a5,48(s0)
80009ffc:	00812403          	lw	s0,8(sp)
8000a000:	00412483          	lw	s1,4(sp)
8000a004:	00090513          	mv	a0,s2
8000a008:	00012903          	lw	s2,0(sp)
8000a00c:	01010113          	addi	sp,sp,16
8000a010:	00008067          	ret
8000a014:	02848713          	addi	a4,s1,40
8000a018:	00042783          	lw	a5,0(s0)
8000a01c:	00f72023          	sw	a5,0(a4)
8000a020:	05042783          	lw	a5,80(s0)
8000a024:	0007a783          	lw	a5,0(a5)
8000a028:	fa079ee3          	bnez	a5,80009fe4 <lfs_file_close+0x50>
8000a02c:	04c42503          	lw	a0,76(s0)
8000a030:	9f4f80ef          	jal	80002224 <free>
8000a034:	fb1ff06f          	j	80009fe4 <lfs_file_close+0x50>

8000a038 <lfs_setattr>:
8000a038:	07452803          	lw	a6,116(a0)
8000a03c:	0ce86a63          	bltu	a6,a4,8000a110 <lfs_setattr+0xd8>
8000a040:	fb010113          	addi	sp,sp,-80
8000a044:	04812423          	sw	s0,72(sp)
8000a048:	04912223          	sw	s1,68(sp)
8000a04c:	00058793          	mv	a5,a1
8000a050:	00060413          	mv	s0,a2
8000a054:	00068493          	mv	s1,a3
8000a058:	00410613          	addi	a2,sp,4
8000a05c:	00000693          	li	a3,0
8000a060:	01010593          	addi	a1,sp,16
8000a064:	05212023          	sw	s2,64(sp)
8000a068:	03312e23          	sw	s3,60(sp)
8000a06c:	04112623          	sw	ra,76(sp)
8000a070:	00050913          	mv	s2,a0
8000a074:	00070993          	mv	s3,a4
8000a078:	00f12223          	sw	a5,4(sp)
8000a07c:	818fd0ef          	jal	80007094 <lfs_dir_find>
8000a080:	04054263          	bltz	a0,8000a0c4 <lfs_setattr+0x8c>
8000a084:	00a55793          	srli	a5,a0,0xa
8000a088:	3ff7f793          	andi	a5,a5,1023
8000a08c:	3ff00713          	li	a4,1023
8000a090:	04e78863          	beq	a5,a4,8000a0e0 <lfs_setattr+0xa8>
8000a094:	00a79793          	slli	a5,a5,0xa
8000a098:	30040413          	addi	s0,s0,768
8000a09c:	01441413          	slli	s0,s0,0x14
8000a0a0:	01346433          	or	s0,s0,s3
8000a0a4:	00f46433          	or	s0,s0,a5
8000a0a8:	00100693          	li	a3,1
8000a0ac:	00810613          	addi	a2,sp,8
8000a0b0:	01010593          	addi	a1,sp,16
8000a0b4:	00090513          	mv	a0,s2
8000a0b8:	00812423          	sw	s0,8(sp)
8000a0bc:	00912623          	sw	s1,12(sp)
8000a0c0:	ed4ff0ef          	jal	80009794 <lfs_dir_commit>
8000a0c4:	04c12083          	lw	ra,76(sp)
8000a0c8:	04812403          	lw	s0,72(sp)
8000a0cc:	04412483          	lw	s1,68(sp)
8000a0d0:	04012903          	lw	s2,64(sp)
8000a0d4:	03c12983          	lw	s3,60(sp)
8000a0d8:	05010113          	addi	sp,sp,80
8000a0dc:	00008067          	ret
8000a0e0:	00000893          	li	a7,0
8000a0e4:	00000813          	li	a6,0
8000a0e8:	00000793          	li	a5,0
8000a0ec:	00000713          	li	a4,0
8000a0f0:	fff00693          	li	a3,-1
8000a0f4:	02090613          	addi	a2,s2,32
8000a0f8:	01010593          	addi	a1,sp,16
8000a0fc:	00090513          	mv	a0,s2
8000a100:	81dfc0ef          	jal	8000691c <lfs_dir_fetchmatch>
8000a104:	fc0510e3          	bnez	a0,8000a0c4 <lfs_setattr+0x8c>
8000a108:	00000793          	li	a5,0
8000a10c:	f8dff06f          	j	8000a098 <lfs_setattr+0x60>
8000a110:	fe400513          	li	a0,-28
8000a114:	00008067          	ret

8000a118 <lfs_format>:
8000a118:	f9010113          	addi	sp,sp,-112
8000a11c:	06812423          	sw	s0,104(sp)
8000a120:	06912223          	sw	s1,100(sp)
8000a124:	06112623          	sw	ra,108(sp)
8000a128:	00050413          	mv	s0,a0
8000a12c:	a9cfb0ef          	jal	800053c8 <lfs_init>
8000a130:	00050493          	mv	s1,a0
8000a134:	00050e63          	beqz	a0,8000a150 <lfs_format+0x38>
8000a138:	06c12083          	lw	ra,108(sp)
8000a13c:	06812403          	lw	s0,104(sp)
8000a140:	00048513          	mv	a0,s1
8000a144:	06412483          	lw	s1,100(sp)
8000a148:	07010113          	addi	sp,sp,112
8000a14c:	00008067          	ret
8000a150:	06842783          	lw	a5,104(s0)
8000a154:	06442503          	lw	a0,100(s0)
8000a158:	00000593          	li	a1,0
8000a15c:	02c7a603          	lw	a2,44(a5)
8000a160:	d41f80ef          	jal	80002ea0 <memset>
8000a164:	06842703          	lw	a4,104(s0)
8000a168:	04042a23          	sw	zero,84(s0)
8000a16c:	02c72783          	lw	a5,44(a4)
8000a170:	02072703          	lw	a4,32(a4)
8000a174:	00379793          	slli	a5,a5,0x3
8000a178:	00f77463          	bgeu	a4,a5,8000a180 <lfs_format+0x68>
8000a17c:	00070793          	mv	a5,a4
8000a180:	04f42c23          	sw	a5,88(s0)
8000a184:	04042e23          	sw	zero,92(s0)
8000a188:	06e42023          	sw	a4,96(s0)
8000a18c:	04010593          	addi	a1,sp,64
8000a190:	00040513          	mv	a0,s0
8000a194:	f15fd0ef          	jal	800080a8 <lfs_dir_alloc>
8000a198:	00050493          	mv	s1,a0
8000a19c:	08051663          	bnez	a0,8000a228 <lfs_format+0x110>
8000a1a0:	06842783          	lw	a5,104(s0)
8000a1a4:	07442803          	lw	a6,116(s0)
8000a1a8:	0ff00737          	lui	a4,0xff00
8000a1ac:	01c7ae83          	lw	t4,28(a5)
8000a1b0:	0207ae03          	lw	t3,32(a5)
8000a1b4:	06c42303          	lw	t1,108(s0)
8000a1b8:	07042883          	lw	a7,112(s0)
8000a1bc:	00870713          	addi	a4,a4,8 # ff00008 <__stack_size+0xfefe008>
8000a1c0:	201007b7          	lui	a5,0x20100
8000a1c4:	01878793          	addi	a5,a5,24 # 20100018 <__stack_size+0x200fe018>
8000a1c8:	02e12823          	sw	a4,48(sp)
8000a1cc:	80010737          	lui	a4,0x80010
8000a1d0:	00020f37          	lui	t5,0x20
8000a1d4:	03012223          	sw	a6,36(sp)
8000a1d8:	f5870713          	addi	a4,a4,-168 # 8000ff58 <_ctype_+0xec>
8000a1dc:	40100837          	lui	a6,0x40100
8000a1e0:	02f12c23          	sw	a5,56(sp)
8000a1e4:	00300693          	li	a3,3
8000a1e8:	01010793          	addi	a5,sp,16
8000a1ec:	02810613          	addi	a2,sp,40
8000a1f0:	04010593          	addi	a1,sp,64
8000a1f4:	00040513          	mv	a0,s0
8000a1f8:	01e12823          	sw	t5,16(sp)
8000a1fc:	01d12a23          	sw	t4,20(sp)
8000a200:	01c12c23          	sw	t3,24(sp)
8000a204:	00612e23          	sw	t1,28(sp)
8000a208:	03112023          	sw	a7,32(sp)
8000a20c:	03012423          	sw	a6,40(sp)
8000a210:	02012623          	sw	zero,44(sp)
8000a214:	02e12a23          	sw	a4,52(sp)
8000a218:	02f12e23          	sw	a5,60(sp)
8000a21c:	d78ff0ef          	jal	80009794 <lfs_dir_commit>
8000a220:	00050493          	mv	s1,a0
8000a224:	02050263          	beqz	a0,8000a248 <lfs_format+0x130>
8000a228:	00040513          	mv	a0,s0
8000a22c:	df5fa0ef          	jal	80005020 <lfs_deinit>
8000a230:	06c12083          	lw	ra,108(sp)
8000a234:	06812403          	lw	s0,104(sp)
8000a238:	00048513          	mv	a0,s1
8000a23c:	06412483          	lw	s1,100(sp)
8000a240:	07010113          	addi	sp,sp,112
8000a244:	00008067          	ret
8000a248:	00100313          	li	t1,1
8000a24c:	00000893          	li	a7,0
8000a250:	00000813          	li	a6,0
8000a254:	00000793          	li	a5,0
8000a258:	00000713          	li	a4,0
8000a25c:	fff00693          	li	a3,-1
8000a260:	00810613          	addi	a2,sp,8
8000a264:	04010593          	addi	a1,sp,64
8000a268:	00040513          	mv	a0,s0
8000a26c:	00012423          	sw	zero,8(sp)
8000a270:	00612623          	sw	t1,12(sp)
8000a274:	ea8fc0ef          	jal	8000691c <lfs_dir_fetchmatch>
8000a278:	00050493          	mv	s1,a0
8000a27c:	fa0516e3          	bnez	a0,8000a228 <lfs_format+0x110>
8000a280:	00000693          	li	a3,0
8000a284:	00000613          	li	a2,0
8000a288:	04010593          	addi	a1,sp,64
8000a28c:	00040513          	mv	a0,s0
8000a290:	04010b23          	sb	zero,86(sp)
8000a294:	d00ff0ef          	jal	80009794 <lfs_dir_commit>
8000a298:	00050493          	mv	s1,a0
8000a29c:	f8dff06f          	j	8000a228 <lfs_format+0x110>

8000a2a0 <lfs_removeattr>:
8000a2a0:	fc010113          	addi	sp,sp,-64
8000a2a4:	02812c23          	sw	s0,56(sp)
8000a2a8:	00058713          	mv	a4,a1
8000a2ac:	00060413          	mv	s0,a2
8000a2b0:	00000693          	li	a3,0
8000a2b4:	00410613          	addi	a2,sp,4
8000a2b8:	01010593          	addi	a1,sp,16
8000a2bc:	02912a23          	sw	s1,52(sp)
8000a2c0:	02112e23          	sw	ra,60(sp)
8000a2c4:	00050493          	mv	s1,a0
8000a2c8:	00e12223          	sw	a4,4(sp)
8000a2cc:	dc9fc0ef          	jal	80007094 <lfs_dir_find>
8000a2d0:	04054263          	bltz	a0,8000a314 <lfs_removeattr+0x74>
8000a2d4:	00a55793          	srli	a5,a0,0xa
8000a2d8:	3ff7f793          	andi	a5,a5,1023
8000a2dc:	3ff00713          	li	a4,1023
8000a2e0:	04e78463          	beq	a5,a4,8000a328 <lfs_removeattr+0x88>
8000a2e4:	00a79793          	slli	a5,a5,0xa
8000a2e8:	30040413          	addi	s0,s0,768
8000a2ec:	01441413          	slli	s0,s0,0x14
8000a2f0:	00f467b3          	or	a5,s0,a5
8000a2f4:	3ff7e793          	ori	a5,a5,1023
8000a2f8:	00100693          	li	a3,1
8000a2fc:	00810613          	addi	a2,sp,8
8000a300:	01010593          	addi	a1,sp,16
8000a304:	00048513          	mv	a0,s1
8000a308:	00f12423          	sw	a5,8(sp)
8000a30c:	00012623          	sw	zero,12(sp)
8000a310:	c84ff0ef          	jal	80009794 <lfs_dir_commit>
8000a314:	03c12083          	lw	ra,60(sp)
8000a318:	03812403          	lw	s0,56(sp)
8000a31c:	03412483          	lw	s1,52(sp)
8000a320:	04010113          	addi	sp,sp,64
8000a324:	00008067          	ret
8000a328:	00000893          	li	a7,0
8000a32c:	00000813          	li	a6,0
8000a330:	00000793          	li	a5,0
8000a334:	00000713          	li	a4,0
8000a338:	fff00693          	li	a3,-1
8000a33c:	02048613          	addi	a2,s1,32
8000a340:	01010593          	addi	a1,sp,16
8000a344:	00048513          	mv	a0,s1
8000a348:	dd4fc0ef          	jal	8000691c <lfs_dir_fetchmatch>
8000a34c:	fc0514e3          	bnez	a0,8000a314 <lfs_removeattr+0x74>
8000a350:	00000793          	li	a5,0
8000a354:	f95ff06f          	j	8000a2e8 <lfs_removeattr+0x48>

8000a358 <lfs_fs_forceconsistency>:
8000a358:	03052703          	lw	a4,48(a0)
8000a35c:	f8010113          	addi	sp,sp,-128
8000a360:	06812c23          	sw	s0,120(sp)
8000a364:	01475793          	srli	a5,a4,0x14
8000a368:	06112e23          	sw	ra,124(sp)
8000a36c:	7007f793          	andi	a5,a5,1792
8000a370:	00050413          	mv	s0,a0
8000a374:	1a079463          	bnez	a5,8000a51c <lfs_fs_forceconsistency+0x1c4>
8000a378:	3ff77713          	andi	a4,a4,1023
8000a37c:	14070e63          	beqz	a4,8000a4d8 <lfs_fs_forceconsistency+0x180>
8000a380:	00100793          	li	a5,1
8000a384:	06912a23          	sw	s1,116(sp)
8000a388:	02012223          	sw	zero,36(sp)
8000a38c:	800004b7          	lui	s1,0x80000
8000a390:	00012823          	sw	zero,16(sp)
8000a394:	00012a23          	sw	zero,20(sp)
8000a398:	00012c23          	sw	zero,24(sp)
8000a39c:	00012e23          	sw	zero,28(sp)
8000a3a0:	02012023          	sw	zero,32(sp)
8000a3a4:	02012423          	sw	zero,40(sp)
8000a3a8:	02012623          	sw	zero,44(sp)
8000a3ac:	02f103a3          	sb	a5,39(sp)
8000a3b0:	02012823          	sw	zero,48(sp)
8000a3b4:	02012a23          	sw	zero,52(sp)
8000a3b8:	02012c23          	sw	zero,56(sp)
8000a3bc:	02012e23          	sw	zero,60(sp)
8000a3c0:	04012023          	sw	zero,64(sp)
8000a3c4:	04012223          	sw	zero,68(sp)
8000a3c8:	04012423          	sw	zero,72(sp)
8000a3cc:	04f12623          	sw	a5,76(sp)
8000a3d0:	c0048493          	addi	s1,s1,-1024 # 7ffffc00 <__stack_size+0x7fffdc00>
8000a3d4:	00000893          	li	a7,0
8000a3d8:	00000813          	li	a6,0
8000a3dc:	00000793          	li	a5,0
8000a3e0:	00000713          	li	a4,0
8000a3e4:	fff00693          	li	a3,-1
8000a3e8:	04810613          	addi	a2,sp,72
8000a3ec:	03010593          	addi	a1,sp,48
8000a3f0:	00040513          	mv	a0,s0
8000a3f4:	d28fc0ef          	jal	8000691c <lfs_dir_fetchmatch>
8000a3f8:	1c051663          	bnez	a0,8000a5c4 <lfs_fs_forceconsistency+0x26c>
8000a3fc:	02714783          	lbu	a5,39(sp)
8000a400:	0e079a63          	bnez	a5,8000a4f4 <lfs_fs_forceconsistency+0x19c>
8000a404:	05010613          	addi	a2,sp,80
8000a408:	02810593          	addi	a1,sp,40
8000a40c:	00040513          	mv	a0,s0
8000a410:	ba1fc0ef          	jal	80006fb0 <lfs_fs_parent>
8000a414:	14054c63          	bltz	a0,8000a56c <lfs_fs_forceconsistency+0x214>
8000a418:	3ff57813          	andi	a6,a0,1023
8000a41c:	00050693          	mv	a3,a0
8000a420:	00010793          	mv	a5,sp
8000a424:	00000713          	li	a4,0
8000a428:	00048613          	mv	a2,s1
8000a42c:	05010593          	addi	a1,sp,80
8000a430:	00040513          	mv	a0,s0
8000a434:	c8dfb0ef          	jal	800060c0 <lfs_dir_getslice>
8000a438:	18054663          	bltz	a0,8000a5c4 <lfs_fs_forceconsistency+0x26c>
8000a43c:	00012783          	lw	a5,0(sp)
8000a440:	02812703          	lw	a4,40(sp)
8000a444:	02c12683          	lw	a3,44(sp)
8000a448:	0ae78263          	beq	a5,a4,8000a4ec <lfs_fs_forceconsistency+0x194>
8000a44c:	10d78a63          	beq	a5,a3,8000a560 <lfs_fs_forceconsistency+0x208>
8000a450:	601007b7          	lui	a5,0x60100
8000a454:	c0878793          	addi	a5,a5,-1016 # 600ffc08 <__stack_size+0x600fdc08>
8000a458:	00100693          	li	a3,1
8000a45c:	00810613          	addi	a2,sp,8
8000a460:	01010593          	addi	a1,sp,16
8000a464:	00040513          	mv	a0,s0
8000a468:	00f12423          	sw	a5,8(sp)
8000a46c:	00212623          	sw	sp,12(sp)
8000a470:	b24ff0ef          	jal	80009794 <lfs_dir_commit>
8000a474:	14051863          	bnez	a0,8000a5c4 <lfs_fs_forceconsistency+0x26c>
8000a478:	03042783          	lw	a5,48(s0)
8000a47c:	03c42703          	lw	a4,60(s0)
8000a480:	04842683          	lw	a3,72(s0)
8000a484:	3ff7f793          	andi	a5,a5,1023
8000a488:	40f007b3          	neg	a5,a5
8000a48c:	01879793          	slli	a5,a5,0x18
8000a490:	4187d793          	srai	a5,a5,0x18
8000a494:	00e787b3          	add	a5,a5,a4
8000a498:	3ff7f713          	andi	a4,a5,1023
8000a49c:	00e03733          	snez	a4,a4
8000a4a0:	01f71713          	slli	a4,a4,0x1f
8000a4a4:	00f74733          	xor	a4,a4,a5
8000a4a8:	04042583          	lw	a1,64(s0)
8000a4ac:	04442603          	lw	a2,68(s0)
8000a4b0:	80000537          	lui	a0,0x80000
8000a4b4:	00a77733          	and	a4,a4,a0
8000a4b8:	07412483          	lw	s1,116(sp)
8000a4bc:	00e7c7b3          	xor	a5,a5,a4
8000a4c0:	00e6c733          	xor	a4,a3,a4
8000a4c4:	04e42423          	sw	a4,72(s0)
8000a4c8:	02f42e23          	sw	a5,60(s0)
8000a4cc:	02f42823          	sw	a5,48(s0)
8000a4d0:	02b42a23          	sw	a1,52(s0)
8000a4d4:	02c42c23          	sw	a2,56(s0)
8000a4d8:	00000513          	li	a0,0
8000a4dc:	07c12083          	lw	ra,124(sp)
8000a4e0:	07812403          	lw	s0,120(sp)
8000a4e4:	08010113          	addi	sp,sp,128
8000a4e8:	00008067          	ret
8000a4ec:	00412783          	lw	a5,4(sp)
8000a4f0:	f6d790e3          	bne	a5,a3,8000a450 <lfs_fs_forceconsistency+0xf8>
8000a4f4:	02000613          	li	a2,32
8000a4f8:	03010593          	addi	a1,sp,48
8000a4fc:	01010513          	addi	a0,sp,16
8000a500:	9b9f80ef          	jal	80002eb8 <memcpy>
8000a504:	04812703          	lw	a4,72(sp)
8000a508:	fff00793          	li	a5,-1
8000a50c:	f6f706e3          	beq	a4,a5,8000a478 <lfs_fs_forceconsistency+0x120>
8000a510:	04c12703          	lw	a4,76(sp)
8000a514:	ecf710e3          	bne	a4,a5,8000a3d4 <lfs_fs_forceconsistency+0x7c>
8000a518:	f61ff06f          	j	8000a478 <lfs_fs_forceconsistency+0x120>
8000a51c:	00000893          	li	a7,0
8000a520:	00000813          	li	a6,0
8000a524:	00000793          	li	a5,0
8000a528:	00000713          	li	a4,0
8000a52c:	fff00693          	li	a3,-1
8000a530:	03450613          	addi	a2,a0,52 # 80000034 <__syscall+0x18>
8000a534:	05010593          	addi	a1,sp,80
8000a538:	be4fc0ef          	jal	8000691c <lfs_dir_fetchmatch>
8000a53c:	fa0510e3          	bnez	a0,8000a4dc <lfs_fs_forceconsistency+0x184>
8000a540:	00000693          	li	a3,0
8000a544:	00000613          	li	a2,0
8000a548:	05010593          	addi	a1,sp,80
8000a54c:	00040513          	mv	a0,s0
8000a550:	a44ff0ef          	jal	80009794 <lfs_dir_commit>
8000a554:	f80514e3          	bnez	a0,8000a4dc <lfs_fs_forceconsistency+0x184>
8000a558:	03042703          	lw	a4,48(s0)
8000a55c:	e1dff06f          	j	8000a378 <lfs_fs_forceconsistency+0x20>
8000a560:	00412783          	lw	a5,4(sp)
8000a564:	eef716e3          	bne	a4,a5,8000a450 <lfs_fs_forceconsistency+0xf8>
8000a568:	f8dff06f          	j	8000a4f4 <lfs_fs_forceconsistency+0x19c>
8000a56c:	ffe00793          	li	a5,-2
8000a570:	04f51a63          	bne	a0,a5,8000a5c4 <lfs_fs_forceconsistency+0x26c>
8000a574:	04840613          	addi	a2,s0,72
8000a578:	03010593          	addi	a1,sp,48
8000a57c:	00040513          	mv	a0,s0
8000a580:	d89fb0ef          	jal	80006308 <lfs_dir_getgstate>
8000a584:	04051063          	bnez	a0,8000a5c4 <lfs_fs_forceconsistency+0x26c>
8000a588:	04714783          	lbu	a5,71(sp)
8000a58c:	00100737          	lui	a4,0x100
8000a590:	c0870713          	addi	a4,a4,-1016 # ffc08 <__stack_size+0xfdc08>
8000a594:	60078793          	addi	a5,a5,1536
8000a598:	01479793          	slli	a5,a5,0x14
8000a59c:	00e7e7b3          	or	a5,a5,a4
8000a5a0:	00f12423          	sw	a5,8(sp)
8000a5a4:	00100693          	li	a3,1
8000a5a8:	04810793          	addi	a5,sp,72
8000a5ac:	00810613          	addi	a2,sp,8
8000a5b0:	01010593          	addi	a1,sp,16
8000a5b4:	00040513          	mv	a0,s0
8000a5b8:	00f12623          	sw	a5,12(sp)
8000a5bc:	9d8ff0ef          	jal	80009794 <lfs_dir_commit>
8000a5c0:	ea050ce3          	beqz	a0,8000a478 <lfs_fs_forceconsistency+0x120>
8000a5c4:	07c12083          	lw	ra,124(sp)
8000a5c8:	07812403          	lw	s0,120(sp)
8000a5cc:	07412483          	lw	s1,116(sp)
8000a5d0:	08010113          	addi	sp,sp,128
8000a5d4:	00008067          	ret

8000a5d8 <lfs_mkdir>:
8000a5d8:	f4010113          	addi	sp,sp,-192
8000a5dc:	0a812c23          	sw	s0,184(sp)
8000a5e0:	0a112e23          	sw	ra,188(sp)
8000a5e4:	00050413          	mv	s0,a0
8000a5e8:	00b12623          	sw	a1,12(sp)
8000a5ec:	d6dff0ef          	jal	8000a358 <lfs_fs_forceconsistency>
8000a5f0:	00050a63          	beqz	a0,8000a604 <lfs_mkdir+0x2c>
8000a5f4:	0bc12083          	lw	ra,188(sp)
8000a5f8:	0b812403          	lw	s0,184(sp)
8000a5fc:	0c010113          	addi	sp,sp,192
8000a600:	00008067          	ret
8000a604:	01610693          	addi	a3,sp,22
8000a608:	00c10613          	addi	a2,sp,12
8000a60c:	02010593          	addi	a1,sp,32
8000a610:	00040513          	mv	a0,s0
8000a614:	a81fc0ef          	jal	80007094 <lfs_dir_find>
8000a618:	ffe00793          	li	a5,-2
8000a61c:	16f51463          	bne	a0,a5,8000a784 <lfs_mkdir+0x1ac>
8000a620:	0b212823          	sw	s2,176(sp)
8000a624:	01615903          	lhu	s2,22(sp)
8000a628:	3ff00793          	li	a5,1023
8000a62c:	16f90863          	beq	s2,a5,8000a79c <lfs_mkdir+0x1c4>
8000a630:	0b312623          	sw	s3,172(sp)
8000a634:	00c12983          	lw	s3,12(sp)
8000a638:	0a912a23          	sw	s1,180(sp)
8000a63c:	00098513          	mv	a0,s3
8000a640:	91df80ef          	jal	80002f5c <strlen>
8000a644:	06c42783          	lw	a5,108(s0)
8000a648:	00050493          	mv	s1,a0
8000a64c:	26a7e863          	bltu	a5,a0,8000a8bc <lfs_mkdir+0x2e4>
8000a650:	06842783          	lw	a5,104(s0)
8000a654:	04010593          	addi	a1,sp,64
8000a658:	00040513          	mv	a0,s0
8000a65c:	0207a783          	lw	a5,32(a5)
8000a660:	06f42023          	sw	a5,96(s0)
8000a664:	a45fd0ef          	jal	800080a8 <lfs_dir_alloc>
8000a668:	12051e63          	bnez	a0,8000a7a4 <lfs_mkdir+0x1cc>
8000a66c:	02012783          	lw	a5,32(sp)
8000a670:	06f12023          	sw	a5,96(sp)
8000a674:	02412783          	lw	a5,36(sp)
8000a678:	06f12223          	sw	a5,100(sp)
8000a67c:	02812783          	lw	a5,40(sp)
8000a680:	06f12423          	sw	a5,104(sp)
8000a684:	02c12783          	lw	a5,44(sp)
8000a688:	06f12623          	sw	a5,108(sp)
8000a68c:	03012783          	lw	a5,48(sp)
8000a690:	06f12823          	sw	a5,112(sp)
8000a694:	03412783          	lw	a5,52(sp)
8000a698:	06f12a23          	sw	a5,116(sp)
8000a69c:	03812783          	lw	a5,56(sp)
8000a6a0:	06f12c23          	sw	a5,120(sp)
8000a6a4:	03c12783          	lw	a5,60(sp)
8000a6a8:	06f12e23          	sw	a5,124(sp)
8000a6ac:	00c0006f          	j	8000a6b8 <lfs_mkdir+0xe0>
8000a6b0:	a6cfc0ef          	jal	8000691c <lfs_dir_fetchmatch>
8000a6b4:	0e051863          	bnez	a0,8000a7a4 <lfs_mkdir+0x1cc>
8000a6b8:	07714303          	lbu	t1,119(sp)
8000a6bc:	00000893          	li	a7,0
8000a6c0:	00000813          	li	a6,0
8000a6c4:	00000793          	li	a5,0
8000a6c8:	00000713          	li	a4,0
8000a6cc:	fff00693          	li	a3,-1
8000a6d0:	07810613          	addi	a2,sp,120
8000a6d4:	06010593          	addi	a1,sp,96
8000a6d8:	00040513          	mv	a0,s0
8000a6dc:	fc031ae3          	bnez	t1,8000a6b0 <lfs_mkdir+0xd8>
8000a6e0:	0b412423          	sw	s4,168(sp)
8000a6e4:	60100a37          	lui	s4,0x60100
8000a6e8:	c08a0a13          	addi	s4,s4,-1016 # 600ffc08 <__stack_size+0x600fdc08>
8000a6ec:	07810793          	addi	a5,sp,120
8000a6f0:	00100693          	li	a3,1
8000a6f4:	01810613          	addi	a2,sp,24
8000a6f8:	04010593          	addi	a1,sp,64
8000a6fc:	01412c23          	sw	s4,24(sp)
8000a700:	00f12e23          	sw	a5,28(sp)
8000a704:	890ff0ef          	jal	80009794 <lfs_dir_commit>
8000a708:	0a051c63          	bnez	a0,8000a7c0 <lfs_mkdir+0x1e8>
8000a70c:	03714783          	lbu	a5,55(sp)
8000a710:	0c079263          	bnez	a5,8000a7d4 <lfs_mkdir+0x1fc>
8000a714:	00a91793          	slli	a5,s2,0xa
8000a718:	200006b7          	lui	a3,0x20000
8000a71c:	0097e733          	or	a4,a5,s1
8000a720:	00200637          	lui	a2,0x200
8000a724:	00868693          	addi	a3,a3,8 # 20000008 <__stack_size+0x1fffe008>
8000a728:	40100837          	lui	a6,0x40100
8000a72c:	0107e833          	or	a6,a5,a6
8000a730:	00c76733          	or	a4,a4,a2
8000a734:	00d7e7b3          	or	a5,a5,a3
8000a738:	08010613          	addi	a2,sp,128
8000a73c:	08f12823          	sw	a5,144(sp)
8000a740:	00400693          	li	a3,4
8000a744:	04010793          	addi	a5,sp,64
8000a748:	02010593          	addi	a1,sp,32
8000a74c:	00040513          	mv	a0,s0
8000a750:	09312623          	sw	s3,140(sp)
8000a754:	09412c23          	sw	s4,152(sp)
8000a758:	09012023          	sw	a6,128(sp)
8000a75c:	08012223          	sw	zero,132(sp)
8000a760:	08e12423          	sw	a4,136(sp)
8000a764:	08f12a23          	sw	a5,148(sp)
8000a768:	08f12e23          	sw	a5,156(sp)
8000a76c:	828ff0ef          	jal	80009794 <lfs_dir_commit>
8000a770:	0b412483          	lw	s1,180(sp)
8000a774:	0b012903          	lw	s2,176(sp)
8000a778:	0ac12983          	lw	s3,172(sp)
8000a77c:	0a812a03          	lw	s4,168(sp)
8000a780:	e75ff06f          	j	8000a5f4 <lfs_mkdir+0x1c>
8000a784:	e60548e3          	bltz	a0,8000a5f4 <lfs_mkdir+0x1c>
8000a788:	0bc12083          	lw	ra,188(sp)
8000a78c:	0b812403          	lw	s0,184(sp)
8000a790:	fef00513          	li	a0,-17
8000a794:	0c010113          	addi	sp,sp,192
8000a798:	00008067          	ret
8000a79c:	0b012903          	lw	s2,176(sp)
8000a7a0:	e55ff06f          	j	8000a5f4 <lfs_mkdir+0x1c>
8000a7a4:	0bc12083          	lw	ra,188(sp)
8000a7a8:	0b812403          	lw	s0,184(sp)
8000a7ac:	0b412483          	lw	s1,180(sp)
8000a7b0:	0b012903          	lw	s2,176(sp)
8000a7b4:	0ac12983          	lw	s3,172(sp)
8000a7b8:	0c010113          	addi	sp,sp,192
8000a7bc:	00008067          	ret
8000a7c0:	0b412483          	lw	s1,180(sp)
8000a7c4:	0b012903          	lw	s2,176(sp)
8000a7c8:	0ac12983          	lw	s3,172(sp)
8000a7cc:	0a812a03          	lw	s4,168(sp)
8000a7d0:	e25ff06f          	j	8000a5f4 <lfs_mkdir+0x1c>
8000a7d4:	03c42703          	lw	a4,60(s0)
8000a7d8:	04842683          	lw	a3,72(s0)
8000a7dc:	0b512223          	sw	s5,164(sp)
8000a7e0:	00170713          	addi	a4,a4,1
8000a7e4:	3ff77793          	andi	a5,a4,1023
8000a7e8:	00f037b3          	snez	a5,a5
8000a7ec:	01f79793          	slli	a5,a5,0x1f
8000a7f0:	00e7c7b3          	xor	a5,a5,a4
8000a7f4:	80000ab7          	lui	s5,0x80000
8000a7f8:	0157f7b3          	and	a5,a5,s5
8000a7fc:	00f6c6b3          	xor	a3,a3,a5
8000a800:	00f74733          	xor	a4,a4,a5
8000a804:	08010613          	addi	a2,sp,128
8000a808:	04d42423          	sw	a3,72(s0)
8000a80c:	04010793          	addi	a5,sp,64
8000a810:	02e42e23          	sw	a4,60(s0)
8000a814:	00100693          	li	a3,1
8000a818:	06010593          	addi	a1,sp,96
8000a81c:	00040513          	mv	a0,s0
8000a820:	00c12423          	sw	a2,8(sp)
8000a824:	09412023          	sw	s4,128(sp)
8000a828:	08f12223          	sw	a5,132(sp)
8000a82c:	f69fe0ef          	jal	80009794 <lfs_dir_commit>
8000a830:	00050e63          	beqz	a0,8000a84c <lfs_mkdir+0x274>
8000a834:	0b412483          	lw	s1,180(sp)
8000a838:	0b012903          	lw	s2,176(sp)
8000a83c:	0ac12983          	lw	s3,172(sp)
8000a840:	0a812a03          	lw	s4,168(sp)
8000a844:	0a412a83          	lw	s5,164(sp)
8000a848:	dadff06f          	j	8000a5f4 <lfs_mkdir+0x1c>
8000a84c:	03c42683          	lw	a3,60(s0)
8000a850:	04842803          	lw	a6,72(s0)
8000a854:	03714583          	lbu	a1,55(sp)
8000a858:	fff68693          	addi	a3,a3,-1
8000a85c:	3ff6f713          	andi	a4,a3,1023
8000a860:	00e03733          	snez	a4,a4
8000a864:	01f71713          	slli	a4,a4,0x1f
8000a868:	00d74733          	xor	a4,a4,a3
8000a86c:	01577733          	and	a4,a4,s5
8000a870:	00a91793          	slli	a5,s2,0xa
8000a874:	00e84833          	xor	a6,a6,a4
8000a878:	00e6c6b3          	xor	a3,a3,a4
8000a87c:	20000537          	lui	a0,0x20000
8000a880:	0015b593          	seqz	a1,a1
8000a884:	0097e733          	or	a4,a5,s1
8000a888:	00850513          	addi	a0,a0,8 # 20000008 <__stack_size+0x1fffe008>
8000a88c:	40b005b3          	neg	a1,a1
8000a890:	05042423          	sw	a6,72(s0)
8000a894:	02d42e23          	sw	a3,60(s0)
8000a898:	40100837          	lui	a6,0x40100
8000a89c:	002006b7          	lui	a3,0x200
8000a8a0:	0107e833          	or	a6,a5,a6
8000a8a4:	00812603          	lw	a2,8(sp)
8000a8a8:	0a412a83          	lw	s5,164(sp)
8000a8ac:	00d76733          	or	a4,a4,a3
8000a8b0:	00a7e7b3          	or	a5,a5,a0
8000a8b4:	00ba7a33          	and	s4,s4,a1
8000a8b8:	e85ff06f          	j	8000a73c <lfs_mkdir+0x164>
8000a8bc:	0b412483          	lw	s1,180(sp)
8000a8c0:	0b012903          	lw	s2,176(sp)
8000a8c4:	0ac12983          	lw	s3,172(sp)
8000a8c8:	fdc00513          	li	a0,-36
8000a8cc:	d29ff06f          	j	8000a5f4 <lfs_mkdir+0x1c>

8000a8d0 <lfs_file_opencfg>:
8000a8d0:	f9010113          	addi	sp,sp,-112
8000a8d4:	06812423          	sw	s0,104(sp)
8000a8d8:	07212023          	sw	s2,96(sp)
8000a8dc:	05312e23          	sw	s3,92(sp)
8000a8e0:	05412c23          	sw	s4,88(sp)
8000a8e4:	00c12623          	sw	a2,12(sp)
8000a8e8:	06112623          	sw	ra,108(sp)
8000a8ec:	06912223          	sw	s1,100(sp)
8000a8f0:	0036f613          	andi	a2,a3,3
8000a8f4:	00100793          	li	a5,1
8000a8f8:	00068a13          	mv	s4,a3
8000a8fc:	00050913          	mv	s2,a0
8000a900:	00058413          	mv	s0,a1
8000a904:	00070993          	mv	s3,a4
8000a908:	00f60863          	beq	a2,a5,8000a918 <lfs_file_opencfg+0x48>
8000a90c:	a4dff0ef          	jal	8000a358 <lfs_fs_forceconsistency>
8000a910:	00050493          	mv	s1,a0
8000a914:	18051c63          	bnez	a0,8000aaac <lfs_file_opencfg+0x1dc>
8000a918:	002007b7          	lui	a5,0x200
8000a91c:	05512a23          	sw	s5,84(sp)
8000a920:	00fa67b3          	or	a5,s4,a5
8000a924:	00840a93          	addi	s5,s0,8
8000a928:	05342823          	sw	s3,80(s0)
8000a92c:	02f42823          	sw	a5,48(s0)
8000a930:	02042a23          	sw	zero,52(s0)
8000a934:	02042e23          	sw	zero,60(s0)
8000a938:	04042623          	sw	zero,76(s0)
8000a93c:	00440693          	addi	a3,s0,4
8000a940:	00c10613          	addi	a2,sp,12
8000a944:	000a8593          	mv	a1,s5
8000a948:	00090513          	mv	a0,s2
8000a94c:	f48fc0ef          	jal	80007094 <lfs_dir_find>
8000a950:	00050493          	mv	s1,a0
8000a954:	12054863          	bltz	a0,8000aa84 <lfs_file_opencfg+0x1b4>
8000a958:	00100713          	li	a4,1
8000a95c:	00e40323          	sb	a4,6(s0)
8000a960:	02892683          	lw	a3,40(s2)
8000a964:	200a7793          	andi	a5,s4,512
8000a968:	00d42023          	sw	a3,0(s0)
8000a96c:	02892423          	sw	s0,40(s2)
8000a970:	1c079a63          	bnez	a5,8000ab44 <lfs_file_opencfg+0x274>
8000a974:	01455493          	srli	s1,a0,0x14
8000a978:	1ae49063          	bne	s1,a4,8000ab18 <lfs_file_opencfg+0x248>
8000a97c:	05912223          	sw	s9,68(sp)
8000a980:	00445c83          	lhu	s9,4(s0)
8000a984:	400a7693          	andi	a3,s4,1024
8000a988:	00ac9c93          	slli	s9,s9,0xa
8000a98c:	28068463          	beqz	a3,8000ac14 <lfs_file_opencfg+0x344>
8000a990:	03042783          	lw	a5,48(s0)
8000a994:	00010737          	lui	a4,0x10
8000a998:	00e7e7b3          	or	a5,a5,a4
8000a99c:	20100737          	lui	a4,0x20100
8000a9a0:	00ececb3          	or	s9,s9,a4
8000a9a4:	02f42823          	sw	a5,48(s0)
8000a9a8:	05042683          	lw	a3,80(s0)
8000a9ac:	0086a783          	lw	a5,8(a3) # 200008 <__stack_size+0x1fe008>
8000a9b0:	1a078a63          	beqz	a5,8000ab64 <lfs_file_opencfg+0x294>
8000a9b4:	05612823          	sw	s6,80(sp)
8000a9b8:	80000b37          	lui	s6,0x80000
8000a9bc:	05712623          	sw	s7,76(sp)
8000a9c0:	05812423          	sw	s8,72(sp)
8000a9c4:	05a12023          	sw	s10,64(sp)
8000a9c8:	03b12e23          	sw	s11,60(sp)
8000a9cc:	00000993          	li	s3,0
8000a9d0:	00000a13          	li	s4,0
8000a9d4:	00200d93          	li	s11,2
8000a9d8:	00010bb7          	lui	s7,0x10
8000a9dc:	c00b0b13          	addi	s6,s6,-1024 # 7ffffc00 <__stack_size+0x7fffdc00>
8000a9e0:	00100c13          	li	s8,1
8000a9e4:	ffe00d13          	li	s10,-2
8000a9e8:	0600006f          	j	8000aa48 <lfs_file_opencfg+0x178>
8000a9ec:	0046a783          	lw	a5,4(a3)
8000a9f0:	00445303          	lhu	t1,4(s0)
8000a9f4:	013787b3          	add	a5,a5,s3
8000a9f8:	0007c683          	lbu	a3,0(a5) # 200000 <__stack_size+0x1fe000>
8000a9fc:	0087a803          	lw	a6,8(a5)
8000aa00:	00a31313          	slli	t1,t1,0xa
8000aa04:	0047a783          	lw	a5,4(a5)
8000aa08:	30068893          	addi	a7,a3,768
8000aa0c:	01036333          	or	t1,t1,a6
8000aa10:	01489693          	slli	a3,a7,0x14
8000aa14:	3ff87813          	andi	a6,a6,1023
8000aa18:	00d366b3          	or	a3,t1,a3
8000aa1c:	ea4fb0ef          	jal	800060c0 <lfs_dir_getslice>
8000aa20:	03042783          	lw	a5,48(s0)
8000aa24:	00050493          	mv	s1,a0
8000aa28:	0e054e63          	bltz	a0,8000ab24 <lfs_file_opencfg+0x254>
8000aa2c:	0037f713          	andi	a4,a5,3
8000aa30:	05042683          	lw	a3,80(s0)
8000aa34:	03871863          	bne	a4,s8,8000aa64 <lfs_file_opencfg+0x194>
8000aa38:	0086a783          	lw	a5,8(a3)
8000aa3c:	001a0a13          	addi	s4,s4,1
8000aa40:	00c98993          	addi	s3,s3,12 # 4000c <__stack_size+0x3e00c>
8000aa44:	10fa7663          	bgeu	s4,a5,8000ab50 <lfs_file_opencfg+0x280>
8000aa48:	03042783          	lw	a5,48(s0)
8000aa4c:	00000713          	li	a4,0
8000aa50:	000b0613          	mv	a2,s6
8000aa54:	0037f813          	andi	a6,a5,3
8000aa58:	000a8593          	mv	a1,s5
8000aa5c:	00090513          	mv	a0,s2
8000aa60:	f9b816e3          	bne	a6,s11,8000a9ec <lfs_file_opencfg+0x11c>
8000aa64:	0046a703          	lw	a4,4(a3)
8000aa68:	07492603          	lw	a2,116(s2)
8000aa6c:	0177e5b3          	or	a1,a5,s7
8000aa70:	01370733          	add	a4,a4,s3
8000aa74:	00872703          	lw	a4,8(a4) # 20100008 <__stack_size+0x200fe008>
8000aa78:	12e66a63          	bltu	a2,a4,8000abac <lfs_file_opencfg+0x2dc>
8000aa7c:	02b42823          	sw	a1,48(s0)
8000aa80:	fb9ff06f          	j	8000aa38 <lfs_file_opencfg+0x168>
8000aa84:	ffe00793          	li	a5,-2
8000aa88:	04f50463          	beq	a0,a5,8000aad0 <lfs_file_opencfg+0x200>
8000aa8c:	03042783          	lw	a5,48(s0)
8000aa90:	00080737          	lui	a4,0x80
8000aa94:	00e7e7b3          	or	a5,a5,a4
8000aa98:	02f42823          	sw	a5,48(s0)
8000aa9c:	00040593          	mv	a1,s0
8000aaa0:	00090513          	mv	a0,s2
8000aaa4:	cf0ff0ef          	jal	80009f94 <lfs_file_close>
8000aaa8:	05412a83          	lw	s5,84(sp)
8000aaac:	06c12083          	lw	ra,108(sp)
8000aab0:	06812403          	lw	s0,104(sp)
8000aab4:	06012903          	lw	s2,96(sp)
8000aab8:	05c12983          	lw	s3,92(sp)
8000aabc:	05812a03          	lw	s4,88(sp)
8000aac0:	00048513          	mv	a0,s1
8000aac4:	06412483          	lw	s1,100(sp)
8000aac8:	07010113          	addi	sp,sp,112
8000aacc:	00008067          	ret
8000aad0:	00445703          	lhu	a4,4(s0)
8000aad4:	3ff00793          	li	a5,1023
8000aad8:	faf70ae3          	beq	a4,a5,8000aa8c <lfs_file_opencfg+0x1bc>
8000aadc:	00100793          	li	a5,1
8000aae0:	00f40323          	sb	a5,6(s0)
8000aae4:	02892783          	lw	a5,40(s2)
8000aae8:	100a7693          	andi	a3,s4,256
8000aaec:	00f42023          	sw	a5,0(s0)
8000aaf0:	02892423          	sw	s0,40(s2)
8000aaf4:	f8068ce3          	beqz	a3,8000aa8c <lfs_file_opencfg+0x1bc>
8000aaf8:	00c12483          	lw	s1,12(sp)
8000aafc:	00048513          	mv	a0,s1
8000ab00:	c5cf80ef          	jal	80002f5c <strlen>
8000ab04:	06c92783          	lw	a5,108(s2)
8000ab08:	0aa7f663          	bgeu	a5,a0,8000abb4 <lfs_file_opencfg+0x2e4>
8000ab0c:	03042783          	lw	a5,48(s0)
8000ab10:	fdc00493          	li	s1,-36
8000ab14:	f7dff06f          	j	8000aa90 <lfs_file_opencfg+0x1c0>
8000ab18:	03042783          	lw	a5,48(s0)
8000ab1c:	feb00493          	li	s1,-21
8000ab20:	f71ff06f          	j	8000aa90 <lfs_file_opencfg+0x1c0>
8000ab24:	f1a504e3          	beq	a0,s10,8000aa2c <lfs_file_opencfg+0x15c>
8000ab28:	05012b03          	lw	s6,80(sp)
8000ab2c:	04c12b83          	lw	s7,76(sp)
8000ab30:	04812c03          	lw	s8,72(sp)
8000ab34:	04412c83          	lw	s9,68(sp)
8000ab38:	04012d03          	lw	s10,64(sp)
8000ab3c:	03c12d83          	lw	s11,60(sp)
8000ab40:	f51ff06f          	j	8000aa90 <lfs_file_opencfg+0x1c0>
8000ab44:	03042783          	lw	a5,48(s0)
8000ab48:	fef00493          	li	s1,-17
8000ab4c:	f45ff06f          	j	8000aa90 <lfs_file_opencfg+0x1c0>
8000ab50:	05012b03          	lw	s6,80(sp)
8000ab54:	04c12b83          	lw	s7,76(sp)
8000ab58:	04812c03          	lw	s8,72(sp)
8000ab5c:	04012d03          	lw	s10,64(sp)
8000ab60:	03c12d83          	lw	s11,60(sp)
8000ab64:	06892783          	lw	a5,104(s2)
8000ab68:	0006a503          	lw	a0,0(a3)
8000ab6c:	0287a783          	lw	a5,40(a5)
8000ab70:	16050a63          	beqz	a0,8000ace4 <lfs_file_opencfg+0x414>
8000ab74:	04a42623          	sw	a0,76(s0)
8000ab78:	06892783          	lw	a5,104(s2)
8000ab7c:	0ff00593          	li	a1,255
8000ab80:	0287a603          	lw	a2,40(a5)
8000ab84:	b1cf80ef          	jal	80002ea0 <memset>
8000ab88:	fff00793          	li	a5,-1
8000ab8c:	04f42023          	sw	a5,64(s0)
8000ab90:	20100713          	li	a4,513
8000ab94:	014cd793          	srli	a5,s9,0x14
8000ab98:	0ce78063          	beq	a5,a4,8000ac58 <lfs_file_opencfg+0x388>
8000ab9c:	05412a83          	lw	s5,84(sp)
8000aba0:	04412c83          	lw	s9,68(sp)
8000aba4:	00000493          	li	s1,0
8000aba8:	f05ff06f          	j	8000aaac <lfs_file_opencfg+0x1dc>
8000abac:	fe400493          	li	s1,-28
8000abb0:	f79ff06f          	j	8000ab28 <lfs_file_opencfg+0x258>
8000abb4:	00445703          	lhu	a4,4(s0)
8000abb8:	201006b7          	lui	a3,0x20100
8000abbc:	40100837          	lui	a6,0x40100
8000abc0:	00a71713          	slli	a4,a4,0xa
8000abc4:	00a76533          	or	a0,a4,a0
8000abc8:	001007b7          	lui	a5,0x100
8000abcc:	01076833          	or	a6,a4,a6
8000abd0:	00f567b3          	or	a5,a0,a5
8000abd4:	00d76733          	or	a4,a4,a3
8000abd8:	01810613          	addi	a2,sp,24
8000abdc:	00300693          	li	a3,3
8000abe0:	000a8593          	mv	a1,s5
8000abe4:	00090513          	mv	a0,s2
8000abe8:	01012c23          	sw	a6,24(sp)
8000abec:	00012e23          	sw	zero,28(sp)
8000abf0:	02f12023          	sw	a5,32(sp)
8000abf4:	02912223          	sw	s1,36(sp)
8000abf8:	02e12423          	sw	a4,40(sp)
8000abfc:	02012623          	sw	zero,44(sp)
8000ac00:	b95fe0ef          	jal	80009794 <lfs_dir_commit>
8000ac04:	f00514e3          	bnez	a0,8000ab0c <lfs_file_opencfg+0x23c>
8000ac08:	05912223          	sw	s9,68(sp)
8000ac0c:	20100cb7          	lui	s9,0x20100
8000ac10:	d99ff06f          	j	8000a9a8 <lfs_file_opencfg+0xd8>
8000ac14:	200006b7          	lui	a3,0x20000
8000ac18:	00868693          	addi	a3,a3,8 # 20000008 <__stack_size+0x1fffe008>
8000ac1c:	70100637          	lui	a2,0x70100
8000ac20:	00dce6b3          	or	a3,s9,a3
8000ac24:	00800813          	li	a6,8
8000ac28:	02840793          	addi	a5,s0,40
8000ac2c:	00000713          	li	a4,0
8000ac30:	c0060613          	addi	a2,a2,-1024 # 700ffc00 <__stack_size+0x700fdc00>
8000ac34:	000a8593          	mv	a1,s5
8000ac38:	00090513          	mv	a0,s2
8000ac3c:	c84fb0ef          	jal	800060c0 <lfs_dir_getslice>
8000ac40:	00050c93          	mv	s9,a0
8000ac44:	d60552e3          	bgez	a0,8000a9a8 <lfs_file_opencfg+0xd8>
8000ac48:	03042783          	lw	a5,48(s0)
8000ac4c:	04412c83          	lw	s9,68(sp)
8000ac50:	00050493          	mv	s1,a0
8000ac54:	e3dff06f          	j	8000aa90 <lfs_file_opencfg+0x1c0>
8000ac58:	06892703          	lw	a4,104(s2)
8000ac5c:	03042783          	lw	a5,48(s0)
8000ac60:	001006b7          	lui	a3,0x100
8000ac64:	02872803          	lw	a6,40(a4) # 80028 <__stack_size+0x7e028>
8000ac68:	3ffcfc93          	andi	s9,s9,1023
8000ac6c:	ffe00713          	li	a4,-2
8000ac70:	00d7e7b3          	or	a5,a5,a3
8000ac74:	02e42423          	sw	a4,40(s0)
8000ac78:	03942623          	sw	s9,44(s0)
8000ac7c:	02f42823          	sw	a5,48(s0)
8000ac80:	04e42023          	sw	a4,64(s0)
8000ac84:	04042223          	sw	zero,68(s0)
8000ac88:	05042423          	sw	a6,72(s0)
8000ac8c:	f00c88e3          	beqz	s9,8000ab9c <lfs_file_opencfg+0x2cc>
8000ac90:	00445683          	lhu	a3,4(s0)
8000ac94:	3fe00793          	li	a5,1022
8000ac98:	00a69693          	slli	a3,a3,0xa
8000ac9c:	0107f463          	bgeu	a5,a6,8000aca4 <lfs_file_opencfg+0x3d4>
8000aca0:	3fe00813          	li	a6,1022
8000aca4:	04c42783          	lw	a5,76(s0)
8000aca8:	0106e6b3          	or	a3,a3,a6
8000acac:	200005b7          	lui	a1,0x20000
8000acb0:	70100637          	lui	a2,0x70100
8000acb4:	00b6e6b3          	or	a3,a3,a1
8000acb8:	3ff87813          	andi	a6,a6,1023
8000acbc:	00000713          	li	a4,0
8000acc0:	c0060613          	addi	a2,a2,-1024 # 700ffc00 <__stack_size+0x700fdc00>
8000acc4:	000a8593          	mv	a1,s5
8000acc8:	00090513          	mv	a0,s2
8000accc:	bf4fb0ef          	jal	800060c0 <lfs_dir_getslice>
8000acd0:	00050493          	mv	s1,a0
8000acd4:	ec0554e3          	bgez	a0,8000ab9c <lfs_file_opencfg+0x2cc>
8000acd8:	03042783          	lw	a5,48(s0)
8000acdc:	04412c83          	lw	s9,68(sp)
8000ace0:	db1ff06f          	j	8000aa90 <lfs_file_opencfg+0x1c0>
8000ace4:	00078513          	mv	a0,a5
8000ace8:	f0cf70ef          	jal	800023f4 <malloc>
8000acec:	04a42623          	sw	a0,76(s0)
8000acf0:	e80514e3          	bnez	a0,8000ab78 <lfs_file_opencfg+0x2a8>
8000acf4:	03042783          	lw	a5,48(s0)
8000acf8:	04412c83          	lw	s9,68(sp)
8000acfc:	ff400493          	li	s1,-12
8000ad00:	d91ff06f          	j	8000aa90 <lfs_file_opencfg+0x1c0>

8000ad04 <lfs_file_open>:
8000ad04:	80011737          	lui	a4,0x80011
8000ad08:	be470713          	addi	a4,a4,-1052 # 80010be4 <defaults.0>
8000ad0c:	bc5ff06f          	j	8000a8d0 <lfs_file_opencfg>

8000ad10 <lfs_rename>:
8000ad10:	f3010113          	addi	sp,sp,-208
8000ad14:	0c812423          	sw	s0,200(sp)
8000ad18:	0c912223          	sw	s1,196(sp)
8000ad1c:	0c112623          	sw	ra,204(sp)
8000ad20:	00050493          	mv	s1,a0
8000ad24:	00b12623          	sw	a1,12(sp)
8000ad28:	00c12423          	sw	a2,8(sp)
8000ad2c:	e2cff0ef          	jal	8000a358 <lfs_fs_forceconsistency>
8000ad30:	00050413          	mv	s0,a0
8000ad34:	00050e63          	beqz	a0,8000ad50 <lfs_rename+0x40>
8000ad38:	0cc12083          	lw	ra,204(sp)
8000ad3c:	00040513          	mv	a0,s0
8000ad40:	0c812403          	lw	s0,200(sp)
8000ad44:	0c412483          	lw	s1,196(sp)
8000ad48:	0d010113          	addi	sp,sp,208
8000ad4c:	00008067          	ret
8000ad50:	00000693          	li	a3,0
8000ad54:	00c10613          	addi	a2,sp,12
8000ad58:	02010593          	addi	a1,sp,32
8000ad5c:	00048513          	mv	a0,s1
8000ad60:	b34fc0ef          	jal	80007094 <lfs_dir_find>
8000ad64:	00050413          	mv	s0,a0
8000ad68:	fc0548e3          	bltz	a0,8000ad38 <lfs_rename+0x28>
8000ad6c:	0b312e23          	sw	s3,188(sp)
8000ad70:	00a55993          	srli	s3,a0,0xa
8000ad74:	0b412c23          	sw	s4,184(sp)
8000ad78:	3ff9f993          	andi	s3,s3,1023
8000ad7c:	3ff00a13          	li	s4,1023
8000ad80:	15498263          	beq	s3,s4,8000aec4 <lfs_rename+0x1b4>
8000ad84:	01610693          	addi	a3,sp,22
8000ad88:	00810613          	addi	a2,sp,8
8000ad8c:	04010593          	addi	a1,sp,64
8000ad90:	00048513          	mv	a0,s1
8000ad94:	0d212023          	sw	s2,192(sp)
8000ad98:	0b512a23          	sw	s5,180(sp)
8000ad9c:	0b612823          	sw	s6,176(sp)
8000ada0:	0b712623          	sw	s7,172(sp)
8000ada4:	af0fc0ef          	jal	80007094 <lfs_dir_find>
8000ada8:	00050913          	mv	s2,a0
8000adac:	08054663          	bltz	a0,8000ae38 <lfs_rename+0x128>
8000adb0:	00a55793          	srli	a5,a0,0xa
8000adb4:	3ff7f793          	andi	a5,a5,1023
8000adb8:	0f478e63          	beq	a5,s4,8000aeb4 <lfs_rename+0x1a4>
8000adbc:	01455713          	srli	a4,a0,0x14
8000adc0:	01445793          	srli	a5,s0,0x14
8000adc4:	44f71663          	bne	a4,a5,8000b210 <lfs_rename+0x500>
8000adc8:	01615b83          	lhu	s7,22(sp)
8000adcc:	00200793          	li	a5,2
8000add0:	00ab9a93          	slli	s5,s7,0xa
8000add4:	36f70263          	beq	a4,a5,8000b138 <lfs_rename+0x428>
8000add8:	00812b03          	lw	s6,8(sp)
8000addc:	02412683          	lw	a3,36(sp)
8000ade0:	02012803          	lw	a6,32(sp)
8000ade4:	04012603          	lw	a2,64(sp)
8000ade8:	0484a583          	lw	a1,72(s1)
8000adec:	03c4a883          	lw	a7,60(s1)
8000adf0:	000b0513          	mv	a0,s6
8000adf4:	00068793          	mv	a5,a3
8000adf8:	08010a13          	addi	s4,sp,128
8000adfc:	0ec80e63          	beq	a6,a2,8000aef8 <lfs_rename+0x1e8>
8000ae00:	04412703          	lw	a4,68(sp)
8000ae04:	00078693          	mv	a3,a5
8000ae08:	00050b13          	mv	s6,a0
8000ae0c:	0ef70463          	beq	a4,a5,8000aef4 <lfs_rename+0x1e4>
8000ae10:	0ee80063          	beq	a6,a4,8000aef0 <lfs_rename+0x1e0>
8000ae14:	0cc78a63          	beq	a5,a2,8000aee8 <lfs_rename+0x1d8>
8000ae18:	00078693          	mv	a3,a5
8000ae1c:	0444ae03          	lw	t3,68(s1)
8000ae20:	0504a503          	lw	a0,80(s1)
8000ae24:	04c4ae83          	lw	t4,76(s1)
8000ae28:	0404a703          	lw	a4,64(s1)
8000ae2c:	00080613          	mv	a2,a6
8000ae30:	00098793          	mv	a5,s3
8000ae34:	0d80006f          	j	8000af0c <lfs_rename+0x1fc>
8000ae38:	ffe00793          	li	a5,-2
8000ae3c:	3cf51e63          	bne	a0,a5,8000b218 <lfs_rename+0x508>
8000ae40:	01615b83          	lhu	s7,22(sp)
8000ae44:	3b4b8c63          	beq	s7,s4,8000b1fc <lfs_rename+0x4ec>
8000ae48:	00812b03          	lw	s6,8(sp)
8000ae4c:	000b0513          	mv	a0,s6
8000ae50:	90cf80ef          	jal	80002f5c <strlen>
8000ae54:	06c4a783          	lw	a5,108(s1)
8000ae58:	28a7ec63          	bltu	a5,a0,8000b0f0 <lfs_rename+0x3e0>
8000ae5c:	02012803          	lw	a6,32(sp)
8000ae60:	04012603          	lw	a2,64(sp)
8000ae64:	0484a583          	lw	a1,72(s1)
8000ae68:	03c4a883          	lw	a7,60(s1)
8000ae6c:	00ab9a93          	slli	s5,s7,0xa
8000ae70:	00c80a63          	beq	a6,a2,8000ae84 <lfs_rename+0x174>
8000ae74:	02412783          	lw	a5,36(sp)
8000ae78:	04412703          	lw	a4,68(sp)
8000ae7c:	00f70463          	beq	a4,a5,8000ae84 <lfs_rename+0x174>
8000ae80:	3b071063          	bne	a4,a6,8000b220 <lfs_rename+0x510>
8000ae84:	08010a13          	addi	s4,sp,128
8000ae88:	0444ae03          	lw	t3,68(s1)
8000ae8c:	0504a503          	lw	a0,80(s1)
8000ae90:	04c4ae83          	lw	t4,76(s1)
8000ae94:	0404a703          	lw	a4,64(s1)
8000ae98:	00ae4333          	xor	t1,t3,a0
8000ae9c:	00eec6b3          	xor	a3,t4,a4
8000aea0:	2579fc63          	bgeu	s3,s7,8000b0f8 <lfs_rename+0x3e8>
8000aea4:	02412683          	lw	a3,36(sp)
8000aea8:	00080613          	mv	a2,a6
8000aeac:	00098793          	mv	a5,s3
8000aeb0:	05c0006f          	j	8000af0c <lfs_rename+0x1fc>
8000aeb4:	0c012903          	lw	s2,192(sp)
8000aeb8:	0b412a83          	lw	s5,180(sp)
8000aebc:	0b012b03          	lw	s6,176(sp)
8000aec0:	0ac12b83          	lw	s7,172(sp)
8000aec4:	fea00413          	li	s0,-22
8000aec8:	0cc12083          	lw	ra,204(sp)
8000aecc:	00040513          	mv	a0,s0
8000aed0:	0c812403          	lw	s0,200(sp)
8000aed4:	0bc12983          	lw	s3,188(sp)
8000aed8:	0b812a03          	lw	s4,184(sp)
8000aedc:	0c412483          	lw	s1,196(sp)
8000aee0:	0d010113          	addi	sp,sp,208
8000aee4:	00008067          	ret
8000aee8:	ffe00713          	li	a4,-2
8000aeec:	f8e90ee3          	beq	s2,a4,8000ae88 <lfs_rename+0x178>
8000aef0:	00078693          	mv	a3,a5
8000aef4:	00080613          	mv	a2,a6
8000aef8:	0444ae03          	lw	t3,68(s1)
8000aefc:	0504a503          	lw	a0,80(s1)
8000af00:	04c4ae83          	lw	t4,76(s1)
8000af04:	0404a703          	lw	a4,64(s1)
8000af08:	00098793          	mv	a5,s3
8000af0c:	4ff00837          	lui	a6,0x4ff00
8000af10:	00a79793          	slli	a5,a5,0xa
8000af14:	0107e7b3          	or	a5,a5,a6
8000af18:	80000337          	lui	t1,0x80000
8000af1c:	c0030313          	addi	t1,t1,-1024 # 7ffffc00 <__stack_size+0x7fffdc00>
8000af20:	0117c7b3          	xor	a5,a5,a7
8000af24:	0067f7b3          	and	a5,a5,t1
8000af28:	01d74733          	xor	a4,a4,t4
8000af2c:	00b7c5b3          	xor	a1,a5,a1
8000af30:	00c74733          	xor	a4,a4,a2
8000af34:	01c54533          	xor	a0,a0,t3
8000af38:	04e4a623          	sw	a4,76(s1)
8000af3c:	04b4a423          	sw	a1,72(s1)
8000af40:	ffe00713          	li	a4,-2
8000af44:	00d54333          	xor	t1,a0,a3
8000af48:	0117c7b3          	xor	a5,a5,a7
8000af4c:	010ae833          	or	a6,s5,a6
8000af50:	1ee90063          	beq	s2,a4,8000b130 <lfs_rename+0x420>
8000af54:	fff00737          	lui	a4,0xfff00
8000af58:	401005b7          	lui	a1,0x40100
8000af5c:	00bae5b3          	or	a1,s5,a1
8000af60:	00e47433          	and	s0,s0,a4
8000af64:	0464a823          	sw	t1,80(s1)
8000af68:	02f4ae23          	sw	a5,60(s1)
8000af6c:	04c4a023          	sw	a2,64(s1)
8000af70:	04d4a223          	sw	a3,68(s1)
8000af74:	000b0513          	mv	a0,s6
8000af78:	01546433          	or	s0,s0,s5
8000af7c:	09012023          	sw	a6,128(sp)
8000af80:	08b12423          	sw	a1,136(sp)
8000af84:	08012223          	sw	zero,132(sp)
8000af88:	08012623          	sw	zero,140(sp)
8000af8c:	fd1f70ef          	jal	80002f5c <strlen>
8000af90:	008567b3          	or	a5,a0,s0
8000af94:	10100737          	lui	a4,0x10100
8000af98:	0159eab3          	or	s5,s3,s5
8000af9c:	00eaeab3          	or	s5,s5,a4
8000afa0:	08f12823          	sw	a5,144(sp)
8000afa4:	00400693          	li	a3,4
8000afa8:	02010793          	addi	a5,sp,32
8000afac:	000a0613          	mv	a2,s4
8000afb0:	04010593          	addi	a1,sp,64
8000afb4:	00048513          	mv	a0,s1
8000afb8:	09612a23          	sw	s6,148(sp)
8000afbc:	09512c23          	sw	s5,152(sp)
8000afc0:	08f12e23          	sw	a5,156(sp)
8000afc4:	fd0fe0ef          	jal	80009794 <lfs_dir_commit>
8000afc8:	00050413          	mv	s0,a0
8000afcc:	04051863          	bnez	a0,8000b01c <lfs_rename+0x30c>
8000afd0:	02012783          	lw	a5,32(sp)
8000afd4:	04012703          	lw	a4,64(sp)
8000afd8:	02e78863          	beq	a5,a4,8000b008 <lfs_rename+0x2f8>
8000afdc:	02412603          	lw	a2,36(sp)
8000afe0:	04412683          	lw	a3,68(sp)
8000afe4:	02d60263          	beq	a2,a3,8000b008 <lfs_rename+0x2f8>
8000afe8:	02d78063          	beq	a5,a3,8000b008 <lfs_rename+0x2f8>
8000afec:	00c70e63          	beq	a4,a2,8000b008 <lfs_rename+0x2f8>
8000aff0:	00000693          	li	a3,0
8000aff4:	00000613          	li	a2,0
8000aff8:	02010593          	addi	a1,sp,32
8000affc:	00048513          	mv	a0,s1
8000b000:	f94fe0ef          	jal	80009794 <lfs_dir_commit>
8000b004:	0e051263          	bnez	a0,8000b0e8 <lfs_rename+0x3d8>
8000b008:	ffe00793          	li	a5,-2
8000b00c:	00f90863          	beq	s2,a5,8000b01c <lfs_rename+0x30c>
8000b010:	01495913          	srli	s2,s2,0x14
8000b014:	00200793          	li	a5,2
8000b018:	02f90a63          	beq	s2,a5,8000b04c <lfs_rename+0x33c>
8000b01c:	0cc12083          	lw	ra,204(sp)
8000b020:	00040513          	mv	a0,s0
8000b024:	0c812403          	lw	s0,200(sp)
8000b028:	0c012903          	lw	s2,192(sp)
8000b02c:	0bc12983          	lw	s3,188(sp)
8000b030:	0b812a03          	lw	s4,184(sp)
8000b034:	0b412a83          	lw	s5,180(sp)
8000b038:	0b012b03          	lw	s6,176(sp)
8000b03c:	0ac12b83          	lw	s7,172(sp)
8000b040:	0c412483          	lw	s1,196(sp)
8000b044:	0d010113          	addi	sp,sp,208
8000b048:	00008067          	ret
8000b04c:	03c4a703          	lw	a4,60(s1)
8000b050:	0484a683          	lw	a3,72(s1)
8000b054:	80000637          	lui	a2,0x80000
8000b058:	fff70713          	addi	a4,a4,-1 # 100fffff <__stack_size+0x100fdfff>
8000b05c:	3ff77793          	andi	a5,a4,1023
8000b060:	00f037b3          	snez	a5,a5
8000b064:	01f79793          	slli	a5,a5,0x1f
8000b068:	00e7c7b3          	xor	a5,a5,a4
8000b06c:	00c7f7b3          	and	a5,a5,a2
8000b070:	00f6c6b3          	xor	a3,a3,a5
8000b074:	00f74733          	xor	a4,a4,a5
8000b078:	04d4a423          	sw	a3,72(s1)
8000b07c:	02e4ae23          	sw	a4,60(s1)
8000b080:	04010613          	addi	a2,sp,64
8000b084:	06010593          	addi	a1,sp,96
8000b088:	00048513          	mv	a0,s1
8000b08c:	a88fc0ef          	jal	80007314 <lfs_fs_pred>
8000b090:	00050413          	mv	s0,a0
8000b094:	f80514e3          	bnez	a0,8000b01c <lfs_rename+0x30c>
8000b098:	04848613          	addi	a2,s1,72
8000b09c:	06010593          	addi	a1,sp,96
8000b0a0:	00048513          	mv	a0,s1
8000b0a4:	a64fb0ef          	jal	80006308 <lfs_dir_getgstate>
8000b0a8:	00050413          	mv	s0,a0
8000b0ac:	f60518e3          	bnez	a0,8000b01c <lfs_rename+0x30c>
8000b0b0:	07714783          	lbu	a5,119(sp)
8000b0b4:	00100737          	lui	a4,0x100
8000b0b8:	c0870713          	addi	a4,a4,-1016 # ffc08 <__stack_size+0xfdc08>
8000b0bc:	60078793          	addi	a5,a5,1536 # 100600 <__stack_size+0xfe600>
8000b0c0:	01479793          	slli	a5,a5,0x14
8000b0c4:	00e7e7b3          	or	a5,a5,a4
8000b0c8:	00f12c23          	sw	a5,24(sp)
8000b0cc:	00100693          	li	a3,1
8000b0d0:	07810793          	addi	a5,sp,120
8000b0d4:	01810613          	addi	a2,sp,24
8000b0d8:	04010593          	addi	a1,sp,64
8000b0dc:	00048513          	mv	a0,s1
8000b0e0:	00f12e23          	sw	a5,28(sp)
8000b0e4:	eb0fe0ef          	jal	80009794 <lfs_dir_commit>
8000b0e8:	00050413          	mv	s0,a0
8000b0ec:	f31ff06f          	j	8000b01c <lfs_rename+0x30c>
8000b0f0:	fdc00413          	li	s0,-36
8000b0f4:	f29ff06f          	j	8000b01c <lfs_rename+0x30c>
8000b0f8:	00198793          	addi	a5,s3,1
8000b0fc:	3ff00613          	li	a2,1023
8000b100:	10c79263          	bne	a5,a2,8000b204 <lfs_rename+0x4f4>
8000b104:	800007b7          	lui	a5,0x80000
8000b108:	c0078793          	addi	a5,a5,-1024 # 7ffffc00 <__stack_size+0x7fffdc00>
8000b10c:	00f8f733          	and	a4,a7,a5
8000b110:	800007b7          	lui	a5,0x80000
8000b114:	00b74733          	xor	a4,a4,a1
8000b118:	3ff78793          	addi	a5,a5,1023 # 800003ff <_prtl8+0x57>
8000b11c:	04d4a623          	sw	a3,76(s1)
8000b120:	04e4a423          	sw	a4,72(s1)
8000b124:	00f8f7b3          	and	a5,a7,a5
8000b128:	00000613          	li	a2,0
8000b12c:	00000693          	li	a3,0
8000b130:	00000813          	li	a6,0
8000b134:	e21ff06f          	j	8000af54 <lfs_rename+0x244>
8000b138:	200006b7          	lui	a3,0x20000
8000b13c:	08010a13          	addi	s4,sp,128
8000b140:	00868693          	addi	a3,a3,8 # 20000008 <__stack_size+0x1fffe008>
8000b144:	70100637          	lui	a2,0x70100
8000b148:	00800813          	li	a6,8
8000b14c:	000a0793          	mv	a5,s4
8000b150:	00000713          	li	a4,0
8000b154:	00dae6b3          	or	a3,s5,a3
8000b158:	c0060613          	addi	a2,a2,-1024 # 700ffc00 <__stack_size+0x700fdc00>
8000b15c:	04010593          	addi	a1,sp,64
8000b160:	00048513          	mv	a0,s1
8000b164:	f5dfa0ef          	jal	800060c0 <lfs_dir_getslice>
8000b168:	f80540e3          	bltz	a0,8000b0e8 <lfs_rename+0x3d8>
8000b16c:	00000893          	li	a7,0
8000b170:	00000813          	li	a6,0
8000b174:	00000793          	li	a5,0
8000b178:	00000713          	li	a4,0
8000b17c:	fff00693          	li	a3,-1
8000b180:	000a0613          	mv	a2,s4
8000b184:	06010593          	addi	a1,sp,96
8000b188:	00048513          	mv	a0,s1
8000b18c:	f90fb0ef          	jal	8000691c <lfs_dir_fetchmatch>
8000b190:	f4051ce3          	bnez	a0,8000b0e8 <lfs_rename+0x3d8>
8000b194:	07412783          	lw	a5,116(sp)
8000b198:	ff010737          	lui	a4,0xff010
8000b19c:	fff70713          	addi	a4,a4,-1 # ff00ffff <fs+0x7ef92fff>
8000b1a0:	00e7f7b3          	and	a5,a5,a4
8000b1a4:	fd900513          	li	a0,-39
8000b1a8:	f40790e3          	bnez	a5,8000b0e8 <lfs_rename+0x3d8>
8000b1ac:	03c4a883          	lw	a7,60(s1)
8000b1b0:	800007b7          	lui	a5,0x80000
8000b1b4:	0484a703          	lw	a4,72(s1)
8000b1b8:	00188893          	addi	a7,a7,1
8000b1bc:	3ff8f593          	andi	a1,a7,1023
8000b1c0:	00b035b3          	snez	a1,a1
8000b1c4:	01f59593          	slli	a1,a1,0x1f
8000b1c8:	0115c5b3          	xor	a1,a1,a7
8000b1cc:	00f5f5b3          	and	a1,a1,a5
8000b1d0:	00812503          	lw	a0,8(sp)
8000b1d4:	02412783          	lw	a5,36(sp)
8000b1d8:	02012803          	lw	a6,32(sp)
8000b1dc:	04012603          	lw	a2,64(sp)
8000b1e0:	00b8c8b3          	xor	a7,a7,a1
8000b1e4:	0314ae23          	sw	a7,60(s1)
8000b1e8:	00e5c5b3          	xor	a1,a1,a4
8000b1ec:	00050b13          	mv	s6,a0
8000b1f0:	00078693          	mv	a3,a5
8000b1f4:	c0c816e3          	bne	a6,a2,8000ae00 <lfs_rename+0xf0>
8000b1f8:	d01ff06f          	j	8000aef8 <lfs_rename+0x1e8>
8000b1fc:	ffe00413          	li	s0,-2
8000b200:	e1dff06f          	j	8000b01c <lfs_rename+0x30c>
8000b204:	02412683          	lw	a3,36(sp)
8000b208:	00080613          	mv	a2,a6
8000b20c:	d01ff06f          	j	8000af0c <lfs_rename+0x1fc>
8000b210:	feb00413          	li	s0,-21
8000b214:	e09ff06f          	j	8000b01c <lfs_rename+0x30c>
8000b218:	00050413          	mv	s0,a0
8000b21c:	e01ff06f          	j	8000b01c <lfs_rename+0x30c>
8000b220:	08010a13          	addi	s4,sp,128
8000b224:	bf1ff06f          	j	8000ae14 <lfs_rename+0x104>

8000b228 <lfs_remove>:
8000b228:	f9010113          	addi	sp,sp,-112
8000b22c:	06812423          	sw	s0,104(sp)
8000b230:	06112623          	sw	ra,108(sp)
8000b234:	00050413          	mv	s0,a0
8000b238:	00b12623          	sw	a1,12(sp)
8000b23c:	91cff0ef          	jal	8000a358 <lfs_fs_forceconsistency>
8000b240:	00050a63          	beqz	a0,8000b254 <lfs_remove+0x2c>
8000b244:	06c12083          	lw	ra,108(sp)
8000b248:	06812403          	lw	s0,104(sp)
8000b24c:	07010113          	addi	sp,sp,112
8000b250:	00008067          	ret
8000b254:	00000693          	li	a3,0
8000b258:	00c10613          	addi	a2,sp,12
8000b25c:	02010593          	addi	a1,sp,32
8000b260:	00040513          	mv	a0,s0
8000b264:	e31fb0ef          	jal	80007094 <lfs_dir_find>
8000b268:	fc054ee3          	bltz	a0,8000b244 <lfs_remove+0x1c>
8000b26c:	00a55713          	srli	a4,a0,0xa
8000b270:	3ff77713          	andi	a4,a4,1023
8000b274:	3ff00793          	li	a5,1023
8000b278:	1cf70263          	beq	a4,a5,8000b43c <lfs_remove+0x214>
8000b27c:	06912223          	sw	s1,100(sp)
8000b280:	01455793          	srli	a5,a0,0x14
8000b284:	00200693          	li	a3,2
8000b288:	00a71493          	slli	s1,a4,0xa
8000b28c:	02d78e63          	beq	a5,a3,8000b2c8 <lfs_remove+0xa0>
8000b290:	4ff007b7          	lui	a5,0x4ff00
8000b294:	00f4e733          	or	a4,s1,a5
8000b298:	01010613          	addi	a2,sp,16
8000b29c:	02010593          	addi	a1,sp,32
8000b2a0:	00040513          	mv	a0,s0
8000b2a4:	00100693          	li	a3,1
8000b2a8:	00e12823          	sw	a4,16(sp)
8000b2ac:	00012a23          	sw	zero,20(sp)
8000b2b0:	ce4fe0ef          	jal	80009794 <lfs_dir_commit>
8000b2b4:	06c12083          	lw	ra,108(sp)
8000b2b8:	06812403          	lw	s0,104(sp)
8000b2bc:	06412483          	lw	s1,100(sp)
8000b2c0:	07010113          	addi	sp,sp,112
8000b2c4:	00008067          	ret
8000b2c8:	200006b7          	lui	a3,0x20000
8000b2cc:	00868693          	addi	a3,a3,8 # 20000008 <__stack_size+0x1fffe008>
8000b2d0:	70100637          	lui	a2,0x70100
8000b2d4:	00800813          	li	a6,8
8000b2d8:	01810793          	addi	a5,sp,24
8000b2dc:	00000713          	li	a4,0
8000b2e0:	00d4e6b3          	or	a3,s1,a3
8000b2e4:	c0060613          	addi	a2,a2,-1024 # 700ffc00 <__stack_size+0x700fdc00>
8000b2e8:	02010593          	addi	a1,sp,32
8000b2ec:	00040513          	mv	a0,s0
8000b2f0:	dd1fa0ef          	jal	800060c0 <lfs_dir_getslice>
8000b2f4:	14054063          	bltz	a0,8000b434 <lfs_remove+0x20c>
8000b2f8:	00000893          	li	a7,0
8000b2fc:	00000813          	li	a6,0
8000b300:	00000793          	li	a5,0
8000b304:	00000713          	li	a4,0
8000b308:	fff00693          	li	a3,-1
8000b30c:	01810613          	addi	a2,sp,24
8000b310:	04010593          	addi	a1,sp,64
8000b314:	00040513          	mv	a0,s0
8000b318:	e04fb0ef          	jal	8000691c <lfs_dir_fetchmatch>
8000b31c:	10051c63          	bnez	a0,8000b434 <lfs_remove+0x20c>
8000b320:	05412783          	lw	a5,84(sp)
8000b324:	ff010737          	lui	a4,0xff010
8000b328:	fff70713          	addi	a4,a4,-1 # ff00ffff <fs+0x7ef92fff>
8000b32c:	00e7f7b3          	and	a5,a5,a4
8000b330:	fd900513          	li	a0,-39
8000b334:	10079063          	bnez	a5,8000b434 <lfs_remove+0x20c>
8000b338:	03c42703          	lw	a4,60(s0)
8000b33c:	04842683          	lw	a3,72(s0)
8000b340:	07212023          	sw	s2,96(sp)
8000b344:	00170713          	addi	a4,a4,1
8000b348:	3ff77793          	andi	a5,a4,1023
8000b34c:	00f037b3          	snez	a5,a5
8000b350:	01f79793          	slli	a5,a5,0x1f
8000b354:	00e7c7b3          	xor	a5,a5,a4
8000b358:	80000937          	lui	s2,0x80000
8000b35c:	0127f7b3          	and	a5,a5,s2
8000b360:	00f6c6b3          	xor	a3,a3,a5
8000b364:	00f74733          	xor	a4,a4,a5
8000b368:	4ff007b7          	lui	a5,0x4ff00
8000b36c:	00f4e7b3          	or	a5,s1,a5
8000b370:	04d42423          	sw	a3,72(s0)
8000b374:	02e42e23          	sw	a4,60(s0)
8000b378:	00100693          	li	a3,1
8000b37c:	01010613          	addi	a2,sp,16
8000b380:	02010593          	addi	a1,sp,32
8000b384:	00040513          	mv	a0,s0
8000b388:	00f12823          	sw	a5,16(sp)
8000b38c:	00012a23          	sw	zero,20(sp)
8000b390:	c04fe0ef          	jal	80009794 <lfs_dir_commit>
8000b394:	0a051863          	bnez	a0,8000b444 <lfs_remove+0x21c>
8000b398:	03c42703          	lw	a4,60(s0)
8000b39c:	04842683          	lw	a3,72(s0)
8000b3a0:	02010613          	addi	a2,sp,32
8000b3a4:	fff70713          	addi	a4,a4,-1
8000b3a8:	3ff77793          	andi	a5,a4,1023
8000b3ac:	00f037b3          	snez	a5,a5
8000b3b0:	01f79793          	slli	a5,a5,0x1f
8000b3b4:	00e7c7b3          	xor	a5,a5,a4
8000b3b8:	0127f7b3          	and	a5,a5,s2
8000b3bc:	00f6c6b3          	xor	a3,a3,a5
8000b3c0:	00f74733          	xor	a4,a4,a5
8000b3c4:	04d42423          	sw	a3,72(s0)
8000b3c8:	02e42e23          	sw	a4,60(s0)
8000b3cc:	04010593          	addi	a1,sp,64
8000b3d0:	00040513          	mv	a0,s0
8000b3d4:	f41fb0ef          	jal	80007314 <lfs_fs_pred>
8000b3d8:	06051663          	bnez	a0,8000b444 <lfs_remove+0x21c>
8000b3dc:	04840613          	addi	a2,s0,72
8000b3e0:	04010593          	addi	a1,sp,64
8000b3e4:	00040513          	mv	a0,s0
8000b3e8:	f21fa0ef          	jal	80006308 <lfs_dir_getgstate>
8000b3ec:	04051c63          	bnez	a0,8000b444 <lfs_remove+0x21c>
8000b3f0:	05714783          	lbu	a5,87(sp)
8000b3f4:	00100737          	lui	a4,0x100
8000b3f8:	c0870713          	addi	a4,a4,-1016 # ffc08 <__stack_size+0xfdc08>
8000b3fc:	60078793          	addi	a5,a5,1536 # 4ff00600 <__stack_size+0x4fefe600>
8000b400:	01479793          	slli	a5,a5,0x14
8000b404:	00e7e7b3          	or	a5,a5,a4
8000b408:	00f12c23          	sw	a5,24(sp)
8000b40c:	00100693          	li	a3,1
8000b410:	05810793          	addi	a5,sp,88
8000b414:	01810613          	addi	a2,sp,24
8000b418:	02010593          	addi	a1,sp,32
8000b41c:	00040513          	mv	a0,s0
8000b420:	00f12e23          	sw	a5,28(sp)
8000b424:	b70fe0ef          	jal	80009794 <lfs_dir_commit>
8000b428:	06412483          	lw	s1,100(sp)
8000b42c:	06012903          	lw	s2,96(sp)
8000b430:	e15ff06f          	j	8000b244 <lfs_remove+0x1c>
8000b434:	06412483          	lw	s1,100(sp)
8000b438:	e0dff06f          	j	8000b244 <lfs_remove+0x1c>
8000b43c:	fea00513          	li	a0,-22
8000b440:	e05ff06f          	j	8000b244 <lfs_remove+0x1c>
8000b444:	06412483          	lw	s1,100(sp)
8000b448:	06012903          	lw	s2,96(sp)
8000b44c:	df9ff06f          	j	8000b244 <lfs_remove+0x1c>

8000b450 <lfs_dir_split>:
8000b450:	fc010113          	addi	sp,sp,-64
8000b454:	02812c23          	sw	s0,56(sp)
8000b458:	00058413          	mv	s0,a1
8000b45c:	00010593          	mv	a1,sp
8000b460:	02912a23          	sw	s1,52(sp)
8000b464:	03212823          	sw	s2,48(sp)
8000b468:	03312623          	sw	s3,44(sp)
8000b46c:	03412423          	sw	s4,40(sp)
8000b470:	03512223          	sw	s5,36(sp)
8000b474:	03612023          	sw	s6,32(sp)
8000b478:	02112e23          	sw	ra,60(sp)
8000b47c:	00050913          	mv	s2,a0
8000b480:	00060a13          	mv	s4,a2
8000b484:	00068a93          	mv	s5,a3
8000b488:	00070b13          	mv	s6,a4
8000b48c:	00078993          	mv	s3,a5
8000b490:	00080493          	mv	s1,a6
8000b494:	c15fc0ef          	jal	800080a8 <lfs_dir_alloc>
8000b498:	02050663          	beqz	a0,8000b4c4 <lfs_dir_split+0x74>
8000b49c:	03c12083          	lw	ra,60(sp)
8000b4a0:	03812403          	lw	s0,56(sp)
8000b4a4:	03412483          	lw	s1,52(sp)
8000b4a8:	03012903          	lw	s2,48(sp)
8000b4ac:	02c12983          	lw	s3,44(sp)
8000b4b0:	02812a03          	lw	s4,40(sp)
8000b4b4:	02412a83          	lw	s5,36(sp)
8000b4b8:	02012b03          	lw	s6,32(sp)
8000b4bc:	04010113          	addi	sp,sp,64
8000b4c0:	00008067          	ret
8000b4c4:	01744e03          	lbu	t3,23(s0)
8000b4c8:	01c42883          	lw	a7,28(s0)
8000b4cc:	01842303          	lw	t1,24(s0)
8000b4d0:	00048813          	mv	a6,s1
8000b4d4:	00098793          	mv	a5,s3
8000b4d8:	000b0713          	mv	a4,s6
8000b4dc:	000a8693          	mv	a3,s5
8000b4e0:	000a0613          	mv	a2,s4
8000b4e4:	00010593          	mv	a1,sp
8000b4e8:	00090513          	mv	a0,s2
8000b4ec:	01c10ba3          	sb	t3,23(sp)
8000b4f0:	00612c23          	sw	t1,24(sp)
8000b4f4:	01112e23          	sw	a7,28(sp)
8000b4f8:	b4dfd0ef          	jal	80009044 <lfs_dir_compact>
8000b4fc:	fa0510e3          	bnez	a0,8000b49c <lfs_dir_split+0x4c>
8000b500:	00012683          	lw	a3,0(sp)
8000b504:	00412703          	lw	a4,4(sp)
8000b508:	00042783          	lw	a5,0(s0)
8000b50c:	00d42c23          	sw	a3,24(s0)
8000b510:	00e42e23          	sw	a4,28(s0)
8000b514:	02092603          	lw	a2,32(s2) # 80000020 <__syscall+0x4>
8000b518:	00100593          	li	a1,1
8000b51c:	00b40ba3          	sb	a1,23(s0)
8000b520:	00c78c63          	beq	a5,a2,8000b538 <lfs_dir_split+0xe8>
8000b524:	00442803          	lw	a6,4(s0)
8000b528:	02492583          	lw	a1,36(s2)
8000b52c:	00b80663          	beq	a6,a1,8000b538 <lfs_dir_split+0xe8>
8000b530:	00b78463          	beq	a5,a1,8000b538 <lfs_dir_split+0xe8>
8000b534:	f70614e3          	bne	a2,a6,8000b49c <lfs_dir_split+0x4c>
8000b538:	f60992e3          	bnez	s3,8000b49c <lfs_dir_split+0x4c>
8000b53c:	02d92023          	sw	a3,32(s2)
8000b540:	02e92223          	sw	a4,36(s2)
8000b544:	f59ff06f          	j	8000b49c <lfs_dir_split+0x4c>

8000b548 <lfs_fs_size>:
8000b548:	fe010113          	addi	sp,sp,-32
8000b54c:	800055b7          	lui	a1,0x80005
8000b550:	00c10613          	addi	a2,sp,12
8000b554:	00858593          	addi	a1,a1,8 # 80005008 <lfs_fs_size_count>
8000b558:	00112e23          	sw	ra,28(sp)
8000b55c:	00012623          	sw	zero,12(sp)
8000b560:	f98fc0ef          	jal	80007cf8 <lfs_fs_traverse>
8000b564:	00051463          	bnez	a0,8000b56c <lfs_fs_size+0x24>
8000b568:	00c12503          	lw	a0,12(sp)
8000b56c:	01c12083          	lw	ra,28(sp)
8000b570:	02010113          	addi	sp,sp,32
8000b574:	00008067          	ret

8000b578 <lfs_crc>:
8000b578:	04060c63          	beqz	a2,8000b5d0 <lfs_crc+0x58>
8000b57c:	800116b7          	lui	a3,0x80011
8000b580:	00c58633          	add	a2,a1,a2
8000b584:	bf068693          	addi	a3,a3,-1040 # 80010bf0 <rtable.0>
8000b588:	0005c783          	lbu	a5,0(a1)
8000b58c:	00455713          	srli	a4,a0,0x4
8000b590:	00158593          	addi	a1,a1,1
8000b594:	00a7c533          	xor	a0,a5,a0
8000b598:	00f57513          	andi	a0,a0,15
8000b59c:	00251513          	slli	a0,a0,0x2
8000b5a0:	00a68533          	add	a0,a3,a0
8000b5a4:	00052503          	lw	a0,0(a0)
8000b5a8:	0047d793          	srli	a5,a5,0x4
8000b5ac:	00a74733          	xor	a4,a4,a0
8000b5b0:	00e7c7b3          	xor	a5,a5,a4
8000b5b4:	00f7f793          	andi	a5,a5,15
8000b5b8:	00279793          	slli	a5,a5,0x2
8000b5bc:	00f687b3          	add	a5,a3,a5
8000b5c0:	0007a503          	lw	a0,0(a5)
8000b5c4:	00475713          	srli	a4,a4,0x4
8000b5c8:	00a74533          	xor	a0,a4,a0
8000b5cc:	fab61ee3          	bne	a2,a1,8000b588 <lfs_crc+0x10>
8000b5d0:	00008067          	ret

8000b5d4 <static_sync>:
8000b5d4:	00000513          	li	a0,0
8000b5d8:	00008067          	ret

8000b5dc <_traverse_df_cb>:
8000b5dc:	00052703          	lw	a4,0(a0)
8000b5e0:	00050793          	mv	a5,a0
8000b5e4:	00000513          	li	a0,0
8000b5e8:	00170713          	addi	a4,a4,1
8000b5ec:	00e7a023          	sw	a4,0(a5)
8000b5f0:	00008067          	ret

8000b5f4 <file_open>:
8000b5f4:	ff010113          	addi	sp,sp,-16
8000b5f8:	800117b7          	lui	a5,0x80011
8000b5fc:	00812423          	sw	s0,8(sp)
8000b600:	f2078413          	addi	s0,a5,-224 # 80010f20 <lfs_file>
8000b604:	00050613          	mv	a2,a0
8000b608:	00058693          	mv	a3,a1
8000b60c:	05440513          	addi	a0,s0,84
8000b610:	f2078593          	addi	a1,a5,-224
8000b614:	00112623          	sw	ra,12(sp)
8000b618:	eecff0ef          	jal	8000ad04 <lfs_file_open>
8000b61c:	00153513          	seqz	a0,a0
8000b620:	40a00533          	neg	a0,a0
8000b624:	00c12083          	lw	ra,12(sp)
8000b628:	00a47533          	and	a0,s0,a0
8000b62c:	00812403          	lw	s0,8(sp)
8000b630:	01010113          	addi	sp,sp,16
8000b634:	00008067          	ret

8000b638 <file_write>:
8000b638:	00058693          	mv	a3,a1
8000b63c:	00060593          	mv	a1,a2
8000b640:	00050613          	mv	a2,a0
8000b644:	80011537          	lui	a0,0x80011
8000b648:	f7450513          	addi	a0,a0,-140 # 80010f74 <lfs>
8000b64c:	d29fc06f          	j	80008374 <lfs_file_write>

8000b650 <file_read>:
8000b650:	00058693          	mv	a3,a1
8000b654:	00060593          	mv	a1,a2
8000b658:	00050613          	mv	a2,a0
8000b65c:	80011537          	lui	a0,0x80011
8000b660:	f7450513          	addi	a0,a0,-140 # 80010f74 <lfs>
8000b664:	d30fd06f          	j	80008b94 <lfs_file_read>

8000b668 <file_close>:
8000b668:	00050593          	mv	a1,a0
8000b66c:	80011537          	lui	a0,0x80011
8000b670:	f7450513          	addi	a0,a0,-140 # 80010f74 <lfs>
8000b674:	921fe06f          	j	80009f94 <lfs_file_close>

8000b678 <file_seek>:
8000b678:	00060693          	mv	a3,a2
8000b67c:	00058613          	mv	a2,a1
8000b680:	00050593          	mv	a1,a0
8000b684:	80011537          	lui	a0,0x80011
8000b688:	f7450513          	addi	a0,a0,-140 # 80010f74 <lfs>
8000b68c:	f6cfd06f          	j	80008df8 <lfs_file_seek>

8000b690 <file_tell>:
8000b690:	00050593          	mv	a1,a0
8000b694:	80011537          	lui	a0,0x80011
8000b698:	f7450513          	addi	a0,a0,-140 # 80010f74 <lfs>
8000b69c:	a04fc06f          	j	800078a0 <lfs_file_tell>

8000b6a0 <file_size>:
8000b6a0:	00050593          	mv	a1,a0
8000b6a4:	80011537          	lui	a0,0x80011
8000b6a8:	f7450513          	addi	a0,a0,-140 # 80010f74 <lfs>
8000b6ac:	9fcfc06f          	j	800078a8 <lfs_file_size>

8000b6b0 <file_available>:
8000b6b0:	08050063          	beqz	a0,8000b730 <file_available+0x80>
8000b6b4:	ff010113          	addi	sp,sp,-16
8000b6b8:	00912223          	sw	s1,4(sp)
8000b6bc:	800114b7          	lui	s1,0x80011
8000b6c0:	f7448493          	addi	s1,s1,-140 # 80010f74 <lfs>
8000b6c4:	00812423          	sw	s0,8(sp)
8000b6c8:	00050593          	mv	a1,a0
8000b6cc:	00050413          	mv	s0,a0
8000b6d0:	00048513          	mv	a0,s1
8000b6d4:	01212023          	sw	s2,0(sp)
8000b6d8:	00112623          	sw	ra,12(sp)
8000b6dc:	9c4fc0ef          	jal	800078a0 <lfs_file_tell>
8000b6e0:	00050913          	mv	s2,a0
8000b6e4:	02054863          	bltz	a0,8000b714 <file_available+0x64>
8000b6e8:	00040593          	mv	a1,s0
8000b6ec:	00048513          	mv	a0,s1
8000b6f0:	9b8fc0ef          	jal	800078a8 <lfs_file_size>
8000b6f4:	02054063          	bltz	a0,8000b714 <file_available+0x64>
8000b6f8:	00c12083          	lw	ra,12(sp)
8000b6fc:	00812403          	lw	s0,8(sp)
8000b700:	00412483          	lw	s1,4(sp)
8000b704:	41250533          	sub	a0,a0,s2
8000b708:	00012903          	lw	s2,0(sp)
8000b70c:	01010113          	addi	sp,sp,16
8000b710:	00008067          	ret
8000b714:	00c12083          	lw	ra,12(sp)
8000b718:	00812403          	lw	s0,8(sp)
8000b71c:	00412483          	lw	s1,4(sp)
8000b720:	00012903          	lw	s2,0(sp)
8000b724:	00000513          	li	a0,0
8000b728:	01010113          	addi	sp,sp,16
8000b72c:	00008067          	ret
8000b730:	00000513          	li	a0,0
8000b734:	00008067          	ret

8000b738 <file_rewind>:
8000b738:	00050593          	mv	a1,a0
8000b73c:	80011537          	lui	a0,0x80011
8000b740:	f7450513          	addi	a0,a0,-140 # 80010f74 <lfs>
8000b744:	f40fd06f          	j	80008e84 <lfs_file_rewind>

8000b748 <file_truncate>:
8000b748:	00050613          	mv	a2,a0
8000b74c:	80011537          	lui	a0,0x80011
8000b750:	f7450513          	addi	a0,a0,-140 # 80010f74 <lfs>
8000b754:	f78fd06f          	j	80008ecc <lfs_file_truncate>

8000b758 <remove>:
8000b758:	00050593          	mv	a1,a0
8000b75c:	80011537          	lui	a0,0x80011
8000b760:	f7450513          	addi	a0,a0,-140 # 80010f74 <lfs>
8000b764:	ac5ff06f          	j	8000b228 <lfs_remove>

8000b768 <rename>:
8000b768:	00058613          	mv	a2,a1
8000b76c:	00050593          	mv	a1,a0
8000b770:	80011537          	lui	a0,0x80011
8000b774:	f7450513          	addi	a0,a0,-140 # 80010f74 <lfs>
8000b778:	d98ff06f          	j	8000ad10 <lfs_rename>

8000b77c <dir_mkdir>:
8000b77c:	00050593          	mv	a1,a0
8000b780:	80011537          	lui	a0,0x80011
8000b784:	f7450513          	addi	a0,a0,-140 # 80010f74 <lfs>
8000b788:	e51fe06f          	j	8000a5d8 <lfs_mkdir>

8000b78c <exist>:
8000b78c:	800117b7          	lui	a5,0x80011
8000b790:	f2078793          	addi	a5,a5,-224 # 80010f20 <lfs_file>
8000b794:	ff010113          	addi	sp,sp,-16
8000b798:	00050593          	mv	a1,a0
8000b79c:	0cc78613          	addi	a2,a5,204
8000b7a0:	05478513          	addi	a0,a5,84
8000b7a4:	00112623          	sw	ra,12(sp)
8000b7a8:	928fc0ef          	jal	800078d0 <lfs_stat>
8000b7ac:	00c12083          	lw	ra,12(sp)
8000b7b0:	00153513          	seqz	a0,a0
8000b7b4:	01010113          	addi	sp,sp,16
8000b7b8:	00008067          	ret

8000b7bc <dir_open>:
8000b7bc:	800117b7          	lui	a5,0x80011
8000b7c0:	ff010113          	addi	sp,sp,-16
8000b7c4:	f2078793          	addi	a5,a5,-224 # 80010f20 <lfs_file>
8000b7c8:	00812423          	sw	s0,8(sp)
8000b7cc:	1d478413          	addi	s0,a5,468
8000b7d0:	00050613          	mv	a2,a0
8000b7d4:	00040593          	mv	a1,s0
8000b7d8:	05478513          	addi	a0,a5,84
8000b7dc:	00112623          	sw	ra,12(sp)
8000b7e0:	bfdfb0ef          	jal	800073dc <lfs_dir_open>
8000b7e4:	00153513          	seqz	a0,a0
8000b7e8:	40a00533          	neg	a0,a0
8000b7ec:	00c12083          	lw	ra,12(sp)
8000b7f0:	00a47533          	and	a0,s0,a0
8000b7f4:	00812403          	lw	s0,8(sp)
8000b7f8:	01010113          	addi	sp,sp,16
8000b7fc:	00008067          	ret

8000b800 <dir_close>:
8000b800:	00050593          	mv	a1,a0
8000b804:	80011537          	lui	a0,0x80011
8000b808:	f7450513          	addi	a0,a0,-140 # 80010f74 <lfs>
8000b80c:	d09fb06f          	j	80007514 <lfs_dir_close>

8000b810 <dir_read>:
8000b810:	00058613          	mv	a2,a1
8000b814:	00050593          	mv	a1,a0
8000b818:	80011537          	lui	a0,0x80011
8000b81c:	f7450513          	addi	a0,a0,-140 # 80010f74 <lfs>
8000b820:	d31fb06f          	j	80007550 <lfs_dir_read>

8000b824 <dir_rewind>:
8000b824:	00050593          	mv	a1,a0
8000b828:	80011537          	lui	a0,0x80011
8000b82c:	f7450513          	addi	a0,a0,-140 # 80010f74 <lfs>
8000b830:	814fc06f          	j	80007844 <lfs_dir_rewind>

8000b834 <dir_tell>:
8000b834:	00050593          	mv	a1,a0
8000b838:	80011537          	lui	a0,0x80011
8000b83c:	f7450513          	addi	a0,a0,-140 # 80010f74 <lfs>
8000b840:	ffdfb06f          	j	8000783c <lfs_dir_tell>

8000b844 <dir_seek>:
8000b844:	00058613          	mv	a2,a1
8000b848:	00050593          	mv	a1,a0
8000b84c:	80011537          	lui	a0,0x80011
8000b850:	f7450513          	addi	a0,a0,-140 # 80010f74 <lfs>
8000b854:	ea1fb06f          	j	800076f4 <lfs_dir_seek>

8000b858 <format>:
8000b858:	8c1fe06f          	j	8000a118 <lfs_format>

8000b85c <mount>:
8000b85c:	9d8fc06f          	j	80007a34 <lfs_mount>

8000b860 <unmount>:
8000b860:	c14fc06f          	j	80007c74 <lfs_unmount>

8000b864 <disk_free>:
8000b864:	fe010113          	addi	sp,sp,-32
8000b868:	8000b5b7          	lui	a1,0x8000b
8000b86c:	80011537          	lui	a0,0x80011
8000b870:	00c10613          	addi	a2,sp,12
8000b874:	5dc58593          	addi	a1,a1,1500 # 8000b5dc <_traverse_df_cb>
8000b878:	f7450513          	addi	a0,a0,-140 # 80010f74 <lfs>
8000b87c:	00112e23          	sw	ra,28(sp)
8000b880:	00012623          	sw	zero,12(sp)
8000b884:	c74fc0ef          	jal	80007cf8 <lfs_fs_traverse>
8000b888:	02054063          	bltz	a0,8000b8a8 <disk_free+0x44>
8000b88c:	800127b7          	lui	a5,0x80012
8000b890:	82c7a783          	lw	a5,-2004(a5) # 8001182c <cfg>
8000b894:	00c12703          	lw	a4,12(sp)
8000b898:	0207a503          	lw	a0,32(a5)
8000b89c:	01c7a783          	lw	a5,28(a5)
8000b8a0:	40e50533          	sub	a0,a0,a4
8000b8a4:	02f50533          	mul	a0,a0,a5
8000b8a8:	01c12083          	lw	ra,28(sp)
8000b8ac:	02010113          	addi	sp,sp,32
8000b8b0:	00008067          	ret

8000b8b4 <static_erase>:
8000b8b4:	ff010113          	addi	sp,sp,-16
8000b8b8:	00112623          	sw	ra,12(sp)
8000b8bc:	00812423          	sw	s0,8(sp)
8000b8c0:	00912223          	sw	s1,4(sp)
8000b8c4:	00058413          	mv	s0,a1
8000b8c8:	00050493          	mv	s1,a0
8000b8cc:	8bdf40ef          	jal	80000188 <disable>
8000b8d0:	01c4a603          	lw	a2,28(s1)
8000b8d4:	0004a783          	lw	a5,0(s1)
8000b8d8:	0ff00593          	li	a1,255
8000b8dc:	02860433          	mul	s0,a2,s0
8000b8e0:	00050493          	mv	s1,a0
8000b8e4:	00878533          	add	a0,a5,s0
8000b8e8:	db8f70ef          	jal	80002ea0 <memset>
8000b8ec:	00048513          	mv	a0,s1
8000b8f0:	8a1f40ef          	jal	80000190 <restore>
8000b8f4:	00c12083          	lw	ra,12(sp)
8000b8f8:	00812403          	lw	s0,8(sp)
8000b8fc:	00412483          	lw	s1,4(sp)
8000b900:	00000513          	li	a0,0
8000b904:	01010113          	addi	sp,sp,16
8000b908:	00008067          	ret

8000b90c <static_prog>:
8000b90c:	fe010113          	addi	sp,sp,-32
8000b910:	00112e23          	sw	ra,28(sp)
8000b914:	00812c23          	sw	s0,24(sp)
8000b918:	00912a23          	sw	s1,20(sp)
8000b91c:	01212823          	sw	s2,16(sp)
8000b920:	01312623          	sw	s3,12(sp)
8000b924:	01412423          	sw	s4,8(sp)
8000b928:	00068993          	mv	s3,a3
8000b92c:	00050493          	mv	s1,a0
8000b930:	00060913          	mv	s2,a2
8000b934:	00070a13          	mv	s4,a4
8000b938:	00058413          	mv	s0,a1
8000b93c:	84df40ef          	jal	80000188 <disable>
8000b940:	01c4a703          	lw	a4,28(s1)
8000b944:	0004a783          	lw	a5,0(s1)
8000b948:	000a0613          	mv	a2,s4
8000b94c:	02e40433          	mul	s0,s0,a4
8000b950:	00098593          	mv	a1,s3
8000b954:	00050493          	mv	s1,a0
8000b958:	01240433          	add	s0,s0,s2
8000b95c:	00878533          	add	a0,a5,s0
8000b960:	d58f70ef          	jal	80002eb8 <memcpy>
8000b964:	00048513          	mv	a0,s1
8000b968:	829f40ef          	jal	80000190 <restore>
8000b96c:	01c12083          	lw	ra,28(sp)
8000b970:	01812403          	lw	s0,24(sp)
8000b974:	01412483          	lw	s1,20(sp)
8000b978:	01012903          	lw	s2,16(sp)
8000b97c:	00c12983          	lw	s3,12(sp)
8000b980:	00812a03          	lw	s4,8(sp)
8000b984:	00000513          	li	a0,0
8000b988:	02010113          	addi	sp,sp,32
8000b98c:	00008067          	ret

8000b990 <static_read>:
8000b990:	fe010113          	addi	sp,sp,-32
8000b994:	00112e23          	sw	ra,28(sp)
8000b998:	00812c23          	sw	s0,24(sp)
8000b99c:	00912a23          	sw	s1,20(sp)
8000b9a0:	01212823          	sw	s2,16(sp)
8000b9a4:	01312623          	sw	s3,12(sp)
8000b9a8:	01412423          	sw	s4,8(sp)
8000b9ac:	00068993          	mv	s3,a3
8000b9b0:	00050493          	mv	s1,a0
8000b9b4:	00060913          	mv	s2,a2
8000b9b8:	00070a13          	mv	s4,a4
8000b9bc:	00058413          	mv	s0,a1
8000b9c0:	fc8f40ef          	jal	80000188 <disable>
8000b9c4:	01c4a703          	lw	a4,28(s1)
8000b9c8:	0004a583          	lw	a1,0(s1)
8000b9cc:	00050793          	mv	a5,a0
8000b9d0:	02e40433          	mul	s0,s0,a4
8000b9d4:	000a0613          	mv	a2,s4
8000b9d8:	00098513          	mv	a0,s3
8000b9dc:	00078493          	mv	s1,a5
8000b9e0:	01240433          	add	s0,s0,s2
8000b9e4:	008585b3          	add	a1,a1,s0
8000b9e8:	cd0f70ef          	jal	80002eb8 <memcpy>
8000b9ec:	00048513          	mv	a0,s1
8000b9f0:	fa0f40ef          	jal	80000190 <restore>
8000b9f4:	01c12083          	lw	ra,28(sp)
8000b9f8:	01812403          	lw	s0,24(sp)
8000b9fc:	01412483          	lw	s1,20(sp)
8000ba00:	01012903          	lw	s2,16(sp)
8000ba04:	00c12983          	lw	s3,12(sp)
8000ba08:	00812a03          	lw	s4,8(sp)
8000ba0c:	00000513          	li	a0,0
8000ba10:	02010113          	addi	sp,sp,32
8000ba14:	00008067          	ret

8000ba18 <littlefs_init>:
8000ba18:	800126b7          	lui	a3,0x80012
8000ba1c:	800117b7          	lui	a5,0x80011
8000ba20:	82a6a823          	sw	a0,-2000(a3) # 80011830 <littlefs>
8000ba24:	f2078793          	addi	a5,a5,-224 # 80010f20 <lfs_file>
8000ba28:	800126b7          	lui	a3,0x80012
8000ba2c:	82b6a623          	sw	a1,-2004(a3) # 8001182c <cfg>
8000ba30:	05478693          	addi	a3,a5,84
8000ba34:	00d52023          	sw	a3,0(a0)
8000ba38:	8000b6b7          	lui	a3,0x8000b
8000ba3c:	5f468693          	addi	a3,a3,1524 # 8000b5f4 <file_open>
8000ba40:	00d52223          	sw	a3,4(a0)
8000ba44:	8000b6b7          	lui	a3,0x8000b
8000ba48:	63868693          	addi	a3,a3,1592 # 8000b638 <file_write>
8000ba4c:	00d52423          	sw	a3,8(a0)
8000ba50:	8000b6b7          	lui	a3,0x8000b
8000ba54:	65068693          	addi	a3,a3,1616 # 8000b650 <file_read>
8000ba58:	00d52623          	sw	a3,12(a0)
8000ba5c:	8000b6b7          	lui	a3,0x8000b
8000ba60:	66868693          	addi	a3,a3,1640 # 8000b668 <file_close>
8000ba64:	00d52823          	sw	a3,16(a0)
8000ba68:	8000b6b7          	lui	a3,0x8000b
8000ba6c:	67868693          	addi	a3,a3,1656 # 8000b678 <file_seek>
8000ba70:	00d52a23          	sw	a3,20(a0)
8000ba74:	8000b6b7          	lui	a3,0x8000b
8000ba78:	69068693          	addi	a3,a3,1680 # 8000b690 <file_tell>
8000ba7c:	00d52c23          	sw	a3,24(a0)
8000ba80:	8000b6b7          	lui	a3,0x8000b
8000ba84:	73868693          	addi	a3,a3,1848 # 8000b738 <file_rewind>
8000ba88:	00d52e23          	sw	a3,28(a0)
8000ba8c:	8000b6b7          	lui	a3,0x8000b
8000ba90:	74868693          	addi	a3,a3,1864 # 8000b748 <file_truncate>
8000ba94:	02d52023          	sw	a3,32(a0)
8000ba98:	8000b6b7          	lui	a3,0x8000b
8000ba9c:	6a068693          	addi	a3,a3,1696 # 8000b6a0 <file_size>
8000baa0:	02d52223          	sw	a3,36(a0)
8000baa4:	8000b6b7          	lui	a3,0x8000b
8000baa8:	6b068693          	addi	a3,a3,1712 # 8000b6b0 <file_available>
8000baac:	02d52423          	sw	a3,40(a0)
8000bab0:	8000b6b7          	lui	a3,0x8000b
8000bab4:	77c68693          	addi	a3,a3,1916 # 8000b77c <dir_mkdir>
8000bab8:	02d52623          	sw	a3,44(a0)
8000babc:	8000b6b7          	lui	a3,0x8000b
8000bac0:	7bc68693          	addi	a3,a3,1980 # 8000b7bc <dir_open>
8000bac4:	02d52823          	sw	a3,48(a0)
8000bac8:	8000c6b7          	lui	a3,0x8000c
8000bacc:	80068693          	addi	a3,a3,-2048 # 8000b800 <dir_close>
8000bad0:	02d52a23          	sw	a3,52(a0)
8000bad4:	8000c6b7          	lui	a3,0x8000c
8000bad8:	81068693          	addi	a3,a3,-2032 # 8000b810 <dir_read>
8000badc:	02d52c23          	sw	a3,56(a0)
8000bae0:	8000c6b7          	lui	a3,0x8000c
8000bae4:	82468693          	addi	a3,a3,-2012 # 8000b824 <dir_rewind>
8000bae8:	02d52e23          	sw	a3,60(a0)
8000baec:	8000c6b7          	lui	a3,0x8000c
8000baf0:	83468693          	addi	a3,a3,-1996 # 8000b834 <dir_tell>
8000baf4:	04d52023          	sw	a3,64(a0)
8000baf8:	8000c6b7          	lui	a3,0x8000c
8000bafc:	84468693          	addi	a3,a3,-1980 # 8000b844 <dir_seek>
8000bb00:	04d52223          	sw	a3,68(a0)
8000bb04:	8000c6b7          	lui	a3,0x8000c
8000bb08:	85868693          	addi	a3,a3,-1960 # 8000b858 <format>
8000bb0c:	04d52423          	sw	a3,72(a0)
8000bb10:	8000c6b7          	lui	a3,0x8000c
8000bb14:	85c68693          	addi	a3,a3,-1956 # 8000b85c <mount>
8000bb18:	04d52623          	sw	a3,76(a0)
8000bb1c:	8000c6b7          	lui	a3,0x8000c
8000bb20:	86068693          	addi	a3,a3,-1952 # 8000b860 <unmount>
8000bb24:	04d52823          	sw	a3,80(a0)
8000bb28:	8000b6b7          	lui	a3,0x8000b
8000bb2c:	75868693          	addi	a3,a3,1880 # 8000b758 <remove>
8000bb30:	04d52a23          	sw	a3,84(a0)
8000bb34:	8000b6b7          	lui	a3,0x8000b
8000bb38:	76868693          	addi	a3,a3,1896 # 8000b768 <rename>
8000bb3c:	04d52c23          	sw	a3,88(a0)
8000bb40:	8000c6b7          	lui	a3,0x8000c
8000bb44:	86468693          	addi	a3,a3,-1948 # 8000b864 <disk_free>
8000bb48:	04d52e23          	sw	a3,92(a0)
8000bb4c:	8000b6b7          	lui	a3,0x8000b
8000bb50:	78c68693          	addi	a3,a3,1932 # 8000b78c <exist>
8000bb54:	06d52223          	sw	a3,100(a0)
8000bb58:	8007d6b7          	lui	a3,0x8007d
8000bb5c:	00068693          	mv	a3,a3
8000bb60:	00d5a023          	sw	a3,0(a1)
8000bb64:	8000c6b7          	lui	a3,0x8000c
8000bb68:	99068693          	addi	a3,a3,-1648 # 8000b990 <static_read>
8000bb6c:	00d5a223          	sw	a3,4(a1)
8000bb70:	8000c6b7          	lui	a3,0x8000c
8000bb74:	90c68693          	addi	a3,a3,-1780 # 8000b90c <static_prog>
8000bb78:	00d5a423          	sw	a3,8(a1)
8000bb7c:	8000c6b7          	lui	a3,0x8000c
8000bb80:	8b468693          	addi	a3,a3,-1868 # 8000b8b4 <static_erase>
8000bb84:	00060713          	mv	a4,a2
8000bb88:	00d5a623          	sw	a3,12(a1)
8000bb8c:	41f65613          	srai	a2,a2,0x1f
8000bb90:	8000b6b7          	lui	a3,0x8000b
8000bb94:	5d468693          	addi	a3,a3,1492 # 8000b5d4 <static_sync>
8000bb98:	03f67613          	andi	a2,a2,63
8000bb9c:	00d5a823          	sw	a3,16(a1)
8000bba0:	00e60633          	add	a2,a2,a4
8000bba4:	04000713          	li	a4,64
8000bba8:	00e5aa23          	sw	a4,20(a1)
8000bbac:	40665613          	srai	a2,a2,0x6
8000bbb0:	00e5ac23          	sw	a4,24(a1)
8000bbb4:	00e5ae23          	sw	a4,28(a1)
8000bbb8:	02e5a423          	sw	a4,40(a1)
8000bbbc:	00400713          	li	a4,4
8000bbc0:	20878693          	addi	a3,a5,520
8000bbc4:	02c5a023          	sw	a2,32(a1)
8000bbc8:	24878793          	addi	a5,a5,584
8000bbcc:	06400613          	li	a2,100
8000bbd0:	02e5a623          	sw	a4,44(a1)
8000bbd4:	0ff00713          	li	a4,255
8000bbd8:	00000513          	li	a0,0
8000bbdc:	02c5a223          	sw	a2,36(a1)
8000bbe0:	02e5ae23          	sw	a4,60(a1)
8000bbe4:	02d5a823          	sw	a3,48(a1)
8000bbe8:	02f5aa23          	sw	a5,52(a1)
8000bbec:	00008067          	ret

8000bbf0 <upload_fs>:
8000bbf0:	40151073          	csrw	0x401,a0
8000bbf4:	00008067          	ret

8000bbf8 <download_fs>:
8000bbf8:	40051073          	csrw	0x400,a0
8000bbfc:	00008067          	ret

8000bc00 <lexan>:
8000bc00:	fe010113          	addi	sp,sp,-32
8000bc04:	01312823          	sw	s3,16(sp)
8000bc08:	00054883          	lbu	a7,0(a0)
8000bc0c:	00068993          	mv	s3,a3
8000bc10:	24088a63          	beqz	a7,8000be64 <lexan+0x264>
8000bc14:	00812e23          	sw	s0,28(sp)
8000bc18:	00912c23          	sw	s1,24(sp)
8000bc1c:	01212a23          	sw	s2,20(sp)
8000bc20:	01412623          	sw	s4,12(sp)
8000bc24:	01512423          	sw	s5,8(sp)
8000bc28:	01612223          	sw	s6,4(sp)
8000bc2c:	01712023          	sw	s7,0(sp)
8000bc30:	40000937          	lui	s2,0x40000
8000bc34:	00100313          	li	t1,1
8000bc38:	00a00f93          	li	t6,10
8000bc3c:	00070e13          	mv	t3,a4
8000bc40:	00078e93          	mv	t4,a5
8000bc44:	00000813          	li	a6,0
8000bc48:	02100693          	li	a3,33
8000bc4c:	02000713          	li	a4,32
8000bc50:	00900593          	li	a1,9
8000bc54:	02600393          	li	t2,38
8000bc58:	03c00413          	li	s0,60
8000bc5c:	00300a93          	li	s5,3
8000bc60:	02700a13          	li	s4,39
8000bc64:	02200b13          	li	s6,34
8000bc68:	01e00b93          	li	s7,30
8000bc6c:	00100493          	li	s1,1
8000bc70:	08490913          	addi	s2,s2,132 # 40000084 <__stack_size+0x3fffe084>
8000bc74:	fff30f13          	addi	t5,t1,-1
8000bc78:	0bf88463          	beq	a7,t6,8000bd20 <lexan+0x120>
8000bc7c:	16d30463          	beq	t1,a3,8000bde4 <lexan+0x1e4>
8000bc80:	00054783          	lbu	a5,0(a0)
8000bc84:	00e78463          	beq	a5,a4,8000bc8c <lexan+0x8c>
8000bc88:	00b79663          	bne	a5,a1,8000bc94 <lexan+0x94>
8000bc8c:	00150513          	addi	a0,a0,1
8000bc90:	ff1ff06f          	j	8000bc80 <lexan+0x80>
8000bc94:	19f78663          	beq	a5,t6,8000be20 <lexan+0x220>
8000bc98:	18078463          	beqz	a5,8000be20 <lexan+0x220>
8000bc9c:	010e2023          	sw	a6,0(t3)
8000bca0:	0e778663          	beq	a5,t2,8000bd8c <lexan+0x18c>
8000bca4:	0a878663          	beq	a5,s0,8000bd50 <lexan+0x150>
8000bca8:	015ea023          	sw	s5,0(t4)
8000bcac:	11478263          	beq	a5,s4,8000bdb0 <lexan+0x1b0>
8000bcb0:	11678063          	beq	a5,s6,8000bdb0 <lexan+0x1b0>
8000bcb4:	010608b3          	add	a7,a2,a6
8000bcb8:	00f88023          	sb	a5,0(a7)
8000bcbc:	00154783          	lbu	a5,1(a0)
8000bcc0:	00180813          	addi	a6,a6,1 # 4ff00001 <__stack_size+0x4fefe001>
8000bcc4:	00150513          	addi	a0,a0,1
8000bcc8:	03f78663          	beq	a5,t6,8000bcf4 <lexan+0xf4>
8000bccc:	fe078893          	addi	a7,a5,-32
8000bcd0:	0ff8f893          	zext.b	a7,a7
8000bcd4:	01149f33          	sll	t5,s1,a7
8000bcd8:	012f72b3          	and	t0,t5,s2
8000bcdc:	041f7f13          	andi	t5,t5,65
8000bce0:	14078c63          	beqz	a5,8000be38 <lexan+0x238>
8000bce4:	00b78863          	beq	a5,a1,8000bcf4 <lexan+0xf4>
8000bce8:	151bee63          	bltu	s7,a7,8000be44 <lexan+0x244>
8000bcec:	0e029c63          	bnez	t0,8000bde4 <lexan+0x1e4>
8000bcf0:	120f0e63          	beqz	t5,8000be2c <lexan+0x22c>
8000bcf4:	010607b3          	add	a5,a2,a6
8000bcf8:	00078023          	sb	zero,0(a5)
8000bcfc:	00180813          	addi	a6,a6,1
8000bd00:	00054883          	lbu	a7,0(a0)
8000bd04:	00130793          	addi	a5,t1,1
8000bd08:	004e8e93          	addi	t4,t4,4
8000bd0c:	004e0e13          	addi	t3,t3,4
8000bd10:	06088a63          	beqz	a7,8000bd84 <lexan+0x184>
8000bd14:	00078313          	mv	t1,a5
8000bd18:	fff30f13          	addi	t5,t1,-1
8000bd1c:	f7f890e3          	bne	a7,t6,8000bc7c <lexan+0x7c>
8000bd20:	000f0513          	mv	a0,t5
8000bd24:	01c12403          	lw	s0,28(sp)
8000bd28:	01812483          	lw	s1,24(sp)
8000bd2c:	01412903          	lw	s2,20(sp)
8000bd30:	00c12a03          	lw	s4,12(sp)
8000bd34:	00812a83          	lw	s5,8(sp)
8000bd38:	00412b03          	lw	s6,4(sp)
8000bd3c:	00012b83          	lw	s7,0(sp)
8000bd40:	0109a023          	sw	a6,0(s3)
8000bd44:	01012983          	lw	s3,16(sp)
8000bd48:	02010113          	addi	sp,sp,32
8000bd4c:	00008067          	ret
8000bd50:	009ea023          	sw	s1,0(t4)
8000bd54:	010608b3          	add	a7,a2,a6
8000bd58:	00180793          	addi	a5,a6,1
8000bd5c:	00888023          	sb	s0,0(a7)
8000bd60:	00f607b3          	add	a5,a2,a5
8000bd64:	00078023          	sb	zero,0(a5)
8000bd68:	00154883          	lbu	a7,1(a0)
8000bd6c:	00150513          	addi	a0,a0,1
8000bd70:	00280813          	addi	a6,a6,2
8000bd74:	00130793          	addi	a5,t1,1
8000bd78:	004e8e93          	addi	t4,t4,4
8000bd7c:	004e0e13          	addi	t3,t3,4
8000bd80:	f8089ae3          	bnez	a7,8000bd14 <lexan+0x114>
8000bd84:	00030513          	mv	a0,t1
8000bd88:	f9dff06f          	j	8000bd24 <lexan+0x124>
8000bd8c:	000ea023          	sw	zero,0(t4)
8000bd90:	00180793          	addi	a5,a6,1
8000bd94:	010608b3          	add	a7,a2,a6
8000bd98:	00788023          	sb	t2,0(a7)
8000bd9c:	00f607b3          	add	a5,a2,a5
8000bda0:	00280813          	addi	a6,a6,2
8000bda4:	00078023          	sb	zero,0(a5)
8000bda8:	00150513          	addi	a0,a0,1
8000bdac:	f55ff06f          	j	8000bd00 <lexan+0x100>
8000bdb0:	00154883          	lbu	a7,1(a0)
8000bdb4:	00a00293          	li	t0,10
8000bdb8:	00250513          	addi	a0,a0,2
8000bdbc:	01179c63          	bne	a5,a7,8000bdd4 <lexan+0x1d4>
8000bdc0:	0500006f          	j	8000be10 <lexan+0x210>
8000bdc4:	02088063          	beqz	a7,8000bde4 <lexan+0x1e4>
8000bdc8:	ff1f0fa3          	sb	a7,-1(t5) # 1ffff <__stack_size+0x1dfff>
8000bdcc:	fff54883          	lbu	a7,-1(a0)
8000bdd0:	05178063          	beq	a5,a7,8000be10 <lexan+0x210>
8000bdd4:	00180813          	addi	a6,a6,1
8000bdd8:	01060f33          	add	t5,a2,a6
8000bddc:	00150513          	addi	a0,a0,1
8000bde0:	fe5892e3          	bne	a7,t0,8000bdc4 <lexan+0x1c4>
8000bde4:	fff00513          	li	a0,-1
8000bde8:	01c12403          	lw	s0,28(sp)
8000bdec:	01812483          	lw	s1,24(sp)
8000bdf0:	01412903          	lw	s2,20(sp)
8000bdf4:	00c12a03          	lw	s4,12(sp)
8000bdf8:	00812a83          	lw	s5,8(sp)
8000bdfc:	00412b03          	lw	s6,4(sp)
8000be00:	00012b83          	lw	s7,0(sp)
8000be04:	01012983          	lw	s3,16(sp)
8000be08:	02010113          	addi	sp,sp,32
8000be0c:	00008067          	ret
8000be10:	010607b3          	add	a5,a2,a6
8000be14:	00078023          	sb	zero,0(a5)
8000be18:	00180813          	addi	a6,a6,1
8000be1c:	ee5ff06f          	j	8000bd00 <lexan+0x100>
8000be20:	0109a023          	sw	a6,0(s3)
8000be24:	000f0513          	mv	a0,t5
8000be28:	fc1ff06f          	j	8000bde8 <lexan+0x1e8>
8000be2c:	01c00f13          	li	t5,28
8000be30:	01e89a63          	bne	a7,t5,8000be44 <lexan+0x244>
8000be34:	03c00793          	li	a5,60
8000be38:	03c00893          	li	a7,60
8000be3c:	eb179ce3          	bne	a5,a7,8000bcf4 <lexan+0xf4>
8000be40:	fa5ff06f          	j	8000bde4 <lexan+0x1e4>
8000be44:	00180813          	addi	a6,a6,1
8000be48:	010608b3          	add	a7,a2,a6
8000be4c:	fef88fa3          	sb	a5,-1(a7)
8000be50:	00154783          	lbu	a5,1(a0)
8000be54:	00a00893          	li	a7,10
8000be58:	00150513          	addi	a0,a0,1
8000be5c:	e71798e3          	bne	a5,a7,8000bccc <lexan+0xcc>
8000be60:	fd9ff06f          	j	8000be38 <lexan+0x238>
8000be64:	00000813          	li	a6,0
8000be68:	00000513          	li	a0,0
8000be6c:	0109a023          	sw	a6,0(s3)
8000be70:	ed5ff06f          	j	8000bd44 <lexan+0x144>

8000be74 <update_path>:
8000be74:	800115b7          	lui	a1,0x80011
8000be78:	1f058513          	addi	a0,a1,496 # 800111f0 <curdir>
8000be7c:	08050513          	addi	a0,a0,128
8000be80:	1f058593          	addi	a1,a1,496
8000be84:	b24f706f          	j	800031a8 <strcpy>

8000be88 <full_path>:
8000be88:	0e050a63          	beqz	a0,8000bf7c <full_path+0xf4>
8000be8c:	ff010113          	addi	sp,sp,-16
8000be90:	00812423          	sw	s0,8(sp)
8000be94:	00112623          	sw	ra,12(sp)
8000be98:	00912223          	sw	s1,4(sp)
8000be9c:	00054703          	lbu	a4,0(a0)
8000bea0:	02f00793          	li	a5,47
8000bea4:	00050413          	mv	s0,a0
8000bea8:	0af70e63          	beq	a4,a5,8000bf64 <full_path+0xdc>
8000beac:	800105b7          	lui	a1,0x80010
8000beb0:	00200613          	li	a2,2
8000beb4:	f6458593          	addi	a1,a1,-156 # 8000ff64 <_ctype_+0xf8>
8000beb8:	948f70ef          	jal	80003000 <strncmp>
8000bebc:	00051463          	bnez	a0,8000bec4 <full_path+0x3c>
8000bec0:	00240413          	addi	s0,s0,2
8000bec4:	800115b7          	lui	a1,0x80011
8000bec8:	1f058493          	addi	s1,a1,496 # 800111f0 <curdir>
8000becc:	08048493          	addi	s1,s1,128
8000bed0:	1f058593          	addi	a1,a1,496
8000bed4:	00048513          	mv	a0,s1
8000bed8:	ad0f70ef          	jal	800031a8 <strcpy>
8000bedc:	800105b7          	lui	a1,0x80010
8000bee0:	00300613          	li	a2,3
8000bee4:	f6858593          	addi	a1,a1,-152 # 8000ff68 <_ctype_+0xfc>
8000bee8:	00040513          	mv	a0,s0
8000beec:	914f70ef          	jal	80003000 <strncmp>
8000bef0:	02050263          	beqz	a0,8000bf14 <full_path+0x8c>
8000bef4:	00044783          	lbu	a5,0(s0)
8000bef8:	04079463          	bnez	a5,8000bf40 <full_path+0xb8>
8000befc:	00c12083          	lw	ra,12(sp)
8000bf00:	00812403          	lw	s0,8(sp)
8000bf04:	00048513          	mv	a0,s1
8000bf08:	00412483          	lw	s1,4(sp)
8000bf0c:	01010113          	addi	sp,sp,16
8000bf10:	00008067          	ret
8000bf14:	02f00593          	li	a1,47
8000bf18:	00048513          	mv	a0,s1
8000bf1c:	00340413          	addi	s0,s0,3
8000bf20:	c40f70ef          	jal	80003360 <strrchr>
8000bf24:	00050463          	beqz	a0,8000bf2c <full_path+0xa4>
8000bf28:	00050023          	sb	zero,0(a0)
8000bf2c:	02f00593          	li	a1,47
8000bf30:	00048513          	mv	a0,s1
8000bf34:	c2cf70ef          	jal	80003360 <strrchr>
8000bf38:	00050463          	beqz	a0,8000bf40 <full_path+0xb8>
8000bf3c:	000500a3          	sb	zero,1(a0)
8000bf40:	00040593          	mv	a1,s0
8000bf44:	00048513          	mv	a0,s1
8000bf48:	ac8f70ef          	jal	80003210 <strcat>
8000bf4c:	00c12083          	lw	ra,12(sp)
8000bf50:	00812403          	lw	s0,8(sp)
8000bf54:	00048513          	mv	a0,s1
8000bf58:	00412483          	lw	s1,4(sp)
8000bf5c:	01010113          	addi	sp,sp,16
8000bf60:	00008067          	ret
8000bf64:	800114b7          	lui	s1,0x80011
8000bf68:	27048493          	addi	s1,s1,624 # 80011270 <path>
8000bf6c:	00050593          	mv	a1,a0
8000bf70:	00048513          	mv	a0,s1
8000bf74:	a34f70ef          	jal	800031a8 <strcpy>
8000bf78:	f85ff06f          	j	8000befc <full_path+0x74>
8000bf7c:	00000513          	li	a0,0
8000bf80:	00008067          	ret

8000bf84 <readBytes>:
8000bf84:	00050793          	mv	a5,a0
8000bf88:	00058513          	mv	a0,a1
8000bf8c:	02b05063          	blez	a1,8000bfac <readBytes+0x28>
8000bf90:	00b78633          	add	a2,a5,a1
8000bf94:	100006b7          	lui	a3,0x10000
8000bf98:	0006c703          	lbu	a4,0(a3) # 10000000 <__stack_size+0xfffe000>
8000bf9c:	00178793          	addi	a5,a5,1
8000bfa0:	fee78fa3          	sb	a4,-1(a5)
8000bfa4:	fef61ae3          	bne	a2,a5,8000bf98 <readBytes+0x14>
8000bfa8:	00008067          	ret
8000bfac:	00000513          	li	a0,0
8000bfb0:	00008067          	ret

8000bfb4 <shell>:
8000bfb4:	db010113          	addi	sp,sp,-592
8000bfb8:	24912223          	sw	s1,580(sp)
8000bfbc:	800114b7          	lui	s1,0x80011
8000bfc0:	24812423          	sw	s0,584(sp)
8000bfc4:	1f048413          	addi	s0,s1,496 # 800111f0 <curdir>
8000bfc8:	08040413          	addi	s0,s0,128
8000bfcc:	800105b7          	lui	a1,0x80010
8000bfd0:	f4c58593          	addi	a1,a1,-180 # 8000ff4c <_ctype_+0xe0>
8000bfd4:	00040513          	mv	a0,s0
8000bfd8:	24112623          	sw	ra,588(sp)
8000bfdc:	25212023          	sw	s2,576(sp)
8000bfe0:	23312e23          	sw	s3,572(sp)
8000bfe4:	23412c23          	sw	s4,568(sp)
8000bfe8:	23512a23          	sw	s5,564(sp)
8000bfec:	23612823          	sw	s6,560(sp)
8000bff0:	23712623          	sw	s7,556(sp)
8000bff4:	23812423          	sw	s8,552(sp)
8000bff8:	23912223          	sw	s9,548(sp)
8000bffc:	23a12023          	sw	s10,544(sp)
8000c000:	21b12e23          	sw	s11,540(sp)
8000c004:	9a4f70ef          	jal	800031a8 <strcpy>
8000c008:	00040593          	mv	a1,s0
8000c00c:	1f048513          	addi	a0,s1,496
8000c010:	998f70ef          	jal	800031a8 <strcpy>
8000c014:	800107b7          	lui	a5,0x80010
8000c018:	07478793          	addi	a5,a5,116 # 80010074 <_ctype_+0x208>
8000c01c:	00f12823          	sw	a5,16(sp)
8000c020:	800107b7          	lui	a5,0x80010
8000c024:	07c78793          	addi	a5,a5,124 # 8001007c <_ctype_+0x210>
8000c028:	00f12423          	sw	a5,8(sp)
8000c02c:	800107b7          	lui	a5,0x80010
8000c030:	0a878793          	addi	a5,a5,168 # 800100a8 <_ctype_+0x23c>
8000c034:	800106b7          	lui	a3,0x80010
8000c038:	00f12223          	sw	a5,4(sp)
8000c03c:	800107b7          	lui	a5,0x80010
8000c040:	01c68713          	addi	a4,a3,28 # 8001001c <_ctype_+0x1b0>
8000c044:	0d478793          	addi	a5,a5,212 # 800100d4 <_ctype_+0x268>
8000c048:	00e12623          	sw	a4,12(sp)
8000c04c:	00f12023          	sw	a5,0(sp)
8000c050:	800108b7          	lui	a7,0x80010
8000c054:	80010837          	lui	a6,0x80010
8000c058:	800107b7          	lui	a5,0x80010
8000c05c:	80010737          	lui	a4,0x80010
8000c060:	80010637          	lui	a2,0x80010
8000c064:	800105b7          	lui	a1,0x80010
8000c068:	f6c88893          	addi	a7,a7,-148 # 8000ff6c <_ctype_+0x100>
8000c06c:	f9880813          	addi	a6,a6,-104 # 8000ff98 <_ctype_+0x12c>
8000c070:	fc478793          	addi	a5,a5,-60 # 8000ffc4 <_ctype_+0x158>
8000c074:	ff070713          	addi	a4,a4,-16 # 8000fff0 <_ctype_+0x184>
8000c078:	01c68693          	addi	a3,a3,28
8000c07c:	04860613          	addi	a2,a2,72 # 80010048 <_ctype_+0x1dc>
8000c080:	05058593          	addi	a1,a1,80 # 80010050 <_ctype_+0x1e4>
8000c084:	00000513          	li	a0,0
8000c088:	8b8f60ef          	jal	80002140 <fprintf>
8000c08c:	80010637          	lui	a2,0x80010
8000c090:	800105b7          	lui	a1,0x80010
8000c094:	10060613          	addi	a2,a2,256 # 80010100 <_ctype_+0x294>
8000c098:	11458593          	addi	a1,a1,276 # 80010114 <_ctype_+0x2a8>
8000c09c:	00000513          	li	a0,0
8000c0a0:	100004b7          	lui	s1,0x10000
8000c0a4:	80011ab7          	lui	s5,0x80011
8000c0a8:	898f60ef          	jal	80002140 <fprintf>
8000c0ac:	80010a37          	lui	s4,0x80010
8000c0b0:	04910d13          	addi	s10,sp,73
8000c0b4:	80011bb7          	lui	s7,0x80011
8000c0b8:	c30a8a93          	addi	s5,s5,-976 # 80010c30 <cmdtab>
8000c0bc:	00548493          	addi	s1,s1,5 # 10000005 <__stack_size+0xfffe005>
8000c0c0:	10000437          	lui	s0,0x10000
8000c0c4:	00a00993          	li	s3,10
8000c0c8:	fff00913          	li	s2,-1
8000c0cc:	80010b37          	lui	s6,0x80010
8000c0d0:	80010c37          	lui	s8,0x80010
8000c0d4:	80010cb7          	lui	s9,0x80010
8000c0d8:	11ca0593          	addi	a1,s4,284 # 8001011c <_ctype_+0x2b0>
8000c0dc:	00000513          	li	a0,0
8000c0e0:	860f60ef          	jal	80002140 <fprintf>
8000c0e4:	0004c783          	lbu	a5,0(s1)
8000c0e8:	00079863          	bnez	a5,8000c0f8 <shell+0x144>
8000c0ec:	068020ef          	jal	8000e154 <yield>
8000c0f0:	0004c783          	lbu	a5,0(s1)
8000c0f4:	fe078ce3          	beqz	a5,8000c0ec <shell+0x138>
8000c0f8:	02810793          	addi	a5,sp,40
8000c0fc:	00044703          	lbu	a4,0(s0) # 10000000 <__stack_size+0xfffe000>
8000c100:	00178793          	addi	a5,a5,1
8000c104:	fee78fa3          	sb	a4,-1(a5)
8000c108:	ffa79ae3          	bne	a5,s10,8000c0fc <shell+0x148>
8000c10c:	0004cd83          	lbu	s11,0(s1)
8000c110:	fe0d94e3          	bnez	s11,8000c0f8 <shell+0x144>
8000c114:	11010793          	addi	a5,sp,272
8000c118:	09010713          	addi	a4,sp,144
8000c11c:	02410693          	addi	a3,sp,36
8000c120:	04c10613          	addi	a2,sp,76
8000c124:	02100593          	li	a1,33
8000c128:	02810513          	addi	a0,sp,40
8000c12c:	053104a3          	sb	s3,73(sp)
8000c130:	ad1ff0ef          	jal	8000bc00 <lexan>
8000c134:	1b250463          	beq	a0,s2,8000c2dc <shell+0x328>
8000c138:	18050c63          	beqz	a0,8000c2d0 <shell+0x31c>
8000c13c:	fff50793          	addi	a5,a0,-1
8000c140:	00279693          	slli	a3,a5,0x2
8000c144:	21068693          	addi	a3,a3,528
8000c148:	002686b3          	add	a3,a3,sp
8000c14c:	f006a683          	lw	a3,-256(a3)
8000c150:	04069863          	bnez	a3,8000c1a0 <shell+0x1ec>
8000c154:	02412703          	lw	a4,36(sp)
8000c158:	ffe70713          	addi	a4,a4,-2
8000c15c:	02e12223          	sw	a4,36(sp)
8000c160:	20f05263          	blez	a5,8000c364 <shell+0x3b0>
8000c164:	00100d93          	li	s11,1
8000c168:	11010713          	addi	a4,sp,272
8000c16c:	00000693          	li	a3,0
8000c170:	00300593          	li	a1,3
8000c174:	00c0006f          	j	8000c180 <shell+0x1cc>
8000c178:	00168693          	addi	a3,a3,1
8000c17c:	02f6d663          	bge	a3,a5,8000c1a8 <shell+0x1f4>
8000c180:	00072603          	lw	a2,0(a4)
8000c184:	00470713          	addi	a4,a4,4
8000c188:	feb608e3          	beq	a2,a1,8000c178 <shell+0x1c4>
8000c18c:	00f6de63          	bge	a3,a5,8000c1a8 <shell+0x1f4>
8000c190:	124b0593          	addi	a1,s6,292 # 80010124 <_ctype_+0x2b8>
8000c194:	00000513          	li	a0,0
8000c198:	fa9f50ef          	jal	80002140 <fprintf>
8000c19c:	f3dff06f          	j	8000c0d8 <shell+0x124>
8000c1a0:	00050793          	mv	a5,a0
8000c1a4:	fca042e3          	bgtz	a0,8000c168 <shell+0x1b4>
8000c1a8:	f14ba883          	lw	a7,-236(s7) # 80010f14 <ncmd>
8000c1ac:	18088663          	beqz	a7,8000c338 <shell+0x384>
8000c1b0:	000a8813          	mv	a6,s5
8000c1b4:	07200693          	li	a3,114
8000c1b8:	00082603          	lw	a2,0(a6)
8000c1bc:	00000513          	li	a0,0
8000c1c0:	04c10713          	addi	a4,sp,76
8000c1c4:	00069863          	bnez	a3,8000c1d4 <shell+0x220>
8000c1c8:	03c0006f          	j	8000c204 <shell+0x250>
8000c1cc:	00064683          	lbu	a3,0(a2)
8000c1d0:	02068a63          	beqz	a3,8000c204 <shell+0x250>
8000c1d4:	00074583          	lbu	a1,0(a4)
8000c1d8:	00160613          	addi	a2,a2,1
8000c1dc:	00170713          	addi	a4,a4,1
8000c1e0:	fed586e3          	beq	a1,a3,8000c1cc <shell+0x218>
8000c1e4:	00150513          	addi	a0,a0,1
8000c1e8:	00c80813          	addi	a6,a6,12
8000c1ec:	03150063          	beq	a0,a7,8000c20c <shell+0x258>
8000c1f0:	00082703          	lw	a4,0(a6)
8000c1f4:	00082603          	lw	a2,0(a6)
8000c1f8:	00074683          	lbu	a3,0(a4)
8000c1fc:	04c10713          	addi	a4,sp,76
8000c200:	fc069ae3          	bnez	a3,8000c1d4 <shell+0x220>
8000c204:	00074703          	lbu	a4,0(a4)
8000c208:	fc071ee3          	bnez	a4,8000c1e4 <shell+0x230>
8000c20c:	13157663          	bgeu	a0,a7,8000c338 <shell+0x384>
8000c210:	00151813          	slli	a6,a0,0x1
8000c214:	00a80733          	add	a4,a6,a0
8000c218:	00271713          	slli	a4,a4,0x2
8000c21c:	00ea8733          	add	a4,s5,a4
8000c220:	00474683          	lbu	a3,4(a4)
8000c224:	0c068663          	beqz	a3,8000c2f0 <shell+0x33c>
8000c228:	120d9463          	bnez	s11,8000c350 <shell+0x39c>
8000c22c:	02f05863          	blez	a5,8000c25c <shell+0x2a8>
8000c230:	00279593          	slli	a1,a5,0x2
8000c234:	09010713          	addi	a4,sp,144
8000c238:	19010613          	addi	a2,sp,400
8000c23c:	00b705b3          	add	a1,a4,a1
8000c240:	00072683          	lw	a3,0(a4)
8000c244:	04c10893          	addi	a7,sp,76
8000c248:	00460613          	addi	a2,a2,4
8000c24c:	00d886b3          	add	a3,a7,a3
8000c250:	00470713          	addi	a4,a4,4
8000c254:	fed62e23          	sw	a3,-4(a2)
8000c258:	feb714e3          	bne	a4,a1,8000c240 <shell+0x28c>
8000c25c:	00a80733          	add	a4,a6,a0
8000c260:	00271713          	slli	a4,a4,0x2
8000c264:	00ea8733          	add	a4,s5,a4
8000c268:	00872703          	lw	a4,8(a4)
8000c26c:	00078513          	mv	a0,a5
8000c270:	19010593          	addi	a1,sp,400
8000c274:	000700e7          	jalr	a4
8000c278:	ffd00793          	li	a5,-3
8000c27c:	e4f51ee3          	bne	a0,a5,8000c0d8 <shell+0x124>
8000c280:	800105b7          	lui	a1,0x80010
8000c284:	19458593          	addi	a1,a1,404 # 80010194 <_ctype_+0x328>
8000c288:	00000513          	li	a0,0
8000c28c:	eb5f50ef          	jal	80002140 <fprintf>
8000c290:	24c12083          	lw	ra,588(sp)
8000c294:	24812403          	lw	s0,584(sp)
8000c298:	24412483          	lw	s1,580(sp)
8000c29c:	24012903          	lw	s2,576(sp)
8000c2a0:	23c12983          	lw	s3,572(sp)
8000c2a4:	23812a03          	lw	s4,568(sp)
8000c2a8:	23412a83          	lw	s5,564(sp)
8000c2ac:	23012b03          	lw	s6,560(sp)
8000c2b0:	22c12b83          	lw	s7,556(sp)
8000c2b4:	22812c03          	lw	s8,552(sp)
8000c2b8:	22412c83          	lw	s9,548(sp)
8000c2bc:	22012d03          	lw	s10,544(sp)
8000c2c0:	21c12d83          	lw	s11,540(sp)
8000c2c4:	00100513          	li	a0,1
8000c2c8:	25010113          	addi	sp,sp,592
8000c2cc:	00008067          	ret
8000c2d0:	4dcc0593          	addi	a1,s8,1244 # 800104dc <_ctype_+0x670>
8000c2d4:	e6df50ef          	jal	80002140 <fprintf>
8000c2d8:	e01ff06f          	j	8000c0d8 <shell+0x124>
8000c2dc:	124b0613          	addi	a2,s6,292
8000c2e0:	6b4c8593          	addi	a1,s9,1716 # 800106b4 <_ctype_+0x848>
8000c2e4:	00000513          	li	a0,0
8000c2e8:	e59f50ef          	jal	80002140 <fprintf>
8000c2ec:	dedff06f          	j	8000c0d8 <shell+0x124>
8000c2f0:	00072683          	lw	a3,0(a4)
8000c2f4:	00872503          	lw	a0,8(a4)
8000c2f8:	000015b7          	lui	a1,0x1
8000c2fc:	09010813          	addi	a6,sp,144
8000c300:	00200713          	li	a4,2
8000c304:	01400613          	li	a2,20
8000c308:	80058593          	addi	a1,a1,-2048 # 800 <__stack_size-0x1800>
8000c30c:	3ed010ef          	jal	8000def8 <create>
8000c310:	07250063          	beq	a0,s2,8000c370 <shell+0x3bc>
8000c314:	00351713          	slli	a4,a0,0x3
8000c318:	00a70733          	add	a4,a4,a0
8000c31c:	800117b7          	lui	a5,0x80011
8000c320:	00371713          	slli	a4,a4,0x3
8000c324:	4e478793          	addi	a5,a5,1252 # 800114e4 <proctab+0x4>
8000c328:	00e787b3          	add	a5,a5,a4
8000c32c:	0207a823          	sw	zero,48(a5)
8000c330:	09c020ef          	jal	8000e3cc <resume>
8000c334:	da5ff06f          	j	8000c0d8 <shell+0x124>
8000c338:	800105b7          	lui	a1,0x80010
8000c33c:	04c10613          	addi	a2,sp,76
8000c340:	13458593          	addi	a1,a1,308 # 80010134 <_ctype_+0x2c8>
8000c344:	00000513          	li	a0,0
8000c348:	df9f50ef          	jal	80002140 <fprintf>
8000c34c:	d8dff06f          	j	8000c0d8 <shell+0x124>
8000c350:	800105b7          	lui	a1,0x80010
8000c354:	14c58593          	addi	a1,a1,332 # 8001014c <_ctype_+0x2e0>
8000c358:	00000513          	li	a0,0
8000c35c:	de5f50ef          	jal	80002140 <fprintf>
8000c360:	d79ff06f          	j	8000c0d8 <shell+0x124>
8000c364:	00100d93          	li	s11,1
8000c368:	e40790e3          	bnez	a5,8000c1a8 <shell+0x1f4>
8000c36c:	e25ff06f          	j	8000c190 <shell+0x1dc>
8000c370:	800105b7          	lui	a1,0x80010
8000c374:	17c58593          	addi	a1,a1,380 # 8001017c <_ctype_+0x310>
8000c378:	00000513          	li	a0,0
8000c37c:	dc5f50ef          	jal	80002140 <fprintf>
8000c380:	d59ff06f          	j	8000c0d8 <shell+0x124>

8000c384 <xsh_blink>:
8000c384:	00000513          	li	a0,0
8000c388:	00008067          	ret

8000c38c <xsh_cat>:
8000c38c:	00000513          	li	a0,0
8000c390:	00008067          	ret

8000c394 <xsh_cd>:
8000c394:	00000513          	li	a0,0
8000c398:	00008067          	ret

8000c39c <xsh_devdump>:
8000c39c:	00100793          	li	a5,1
8000c3a0:	00a7d663          	bge	a5,a0,8000c3ac <xsh_devdump+0x10>
8000c3a4:	00100513          	li	a0,1
8000c3a8:	00008067          	ret
8000c3ac:	80010537          	lui	a0,0x80010
8000c3b0:	fe010113          	addi	sp,sp,-32
8000c3b4:	22450513          	addi	a0,a0,548 # 80010224 <_ctype_+0x3b8>
8000c3b8:	00112e23          	sw	ra,28(sp)
8000c3bc:	00812c23          	sw	s0,24(sp)
8000c3c0:	00912a23          	sw	s1,20(sp)
8000c3c4:	01212823          	sw	s2,16(sp)
8000c3c8:	01312623          	sw	s3,12(sp)
8000c3cc:	accf60ef          	jal	80002698 <printf>
8000c3d0:	80010537          	lui	a0,0x80010
8000c3d4:	24050513          	addi	a0,a0,576 # 80010240 <_ctype_+0x3d4>
8000c3d8:	80011437          	lui	s0,0x80011
8000c3dc:	abcf60ef          	jal	80002698 <printf>
8000c3e0:	e2c40413          	addi	s0,s0,-468 # 80010e2c <devtab>
8000c3e4:	00000493          	li	s1,0
8000c3e8:	800109b7          	lui	s3,0x80010
8000c3ec:	00300913          	li	s2,3
8000c3f0:	00442683          	lw	a3,4(s0)
8000c3f4:	00842603          	lw	a2,8(s0)
8000c3f8:	00048593          	mv	a1,s1
8000c3fc:	25c98513          	addi	a0,s3,604 # 8001025c <_ctype_+0x3f0>
8000c400:	00148493          	addi	s1,s1,1
8000c404:	a94f60ef          	jal	80002698 <printf>
8000c408:	04c40413          	addi	s0,s0,76
8000c40c:	ff2492e3          	bne	s1,s2,8000c3f0 <xsh_devdump+0x54>
8000c410:	01c12083          	lw	ra,28(sp)
8000c414:	01812403          	lw	s0,24(sp)
8000c418:	01412483          	lw	s1,20(sp)
8000c41c:	01012903          	lw	s2,16(sp)
8000c420:	00c12983          	lw	s3,12(sp)
8000c424:	00000513          	li	a0,0
8000c428:	02010113          	addi	sp,sp,32
8000c42c:	00008067          	ret

8000c430 <xsh_dump>:
8000c430:	00000513          	li	a0,0
8000c434:	00008067          	ret

8000c438 <xsh_echo>:
8000c438:	fe010113          	addi	sp,sp,-32
8000c43c:	00112e23          	sw	ra,28(sp)
8000c440:	00100793          	li	a5,1
8000c444:	02a7c063          	blt	a5,a0,8000c464 <xsh_echo+0x2c>
8000c448:	80010537          	lui	a0,0x80010
8000c44c:	4dc50513          	addi	a0,a0,1244 # 800104dc <_ctype_+0x670>
8000c450:	a48f60ef          	jal	80002698 <printf>
8000c454:	01c12083          	lw	ra,28(sp)
8000c458:	00000513          	li	a0,0
8000c45c:	02010113          	addi	sp,sp,32
8000c460:	00008067          	ret
8000c464:	00812c23          	sw	s0,24(sp)
8000c468:	00058413          	mv	s0,a1
8000c46c:	0045a583          	lw	a1,4(a1)
8000c470:	01212823          	sw	s2,16(sp)
8000c474:	00050913          	mv	s2,a0
8000c478:	80010537          	lui	a0,0x80010
8000c47c:	27050513          	addi	a0,a0,624 # 80010270 <_ctype_+0x404>
8000c480:	a18f60ef          	jal	80002698 <printf>
8000c484:	00200793          	li	a5,2
8000c488:	04f90e63          	beq	s2,a5,8000c4e4 <xsh_echo+0xac>
8000c48c:	00912a23          	sw	s1,20(sp)
8000c490:	01312623          	sw	s3,12(sp)
8000c494:	00840413          	addi	s0,s0,8
8000c498:	00200493          	li	s1,2
8000c49c:	800109b7          	lui	s3,0x80010
8000c4a0:	00042583          	lw	a1,0(s0)
8000c4a4:	27498513          	addi	a0,s3,628 # 80010274 <_ctype_+0x408>
8000c4a8:	00148493          	addi	s1,s1,1
8000c4ac:	9ecf60ef          	jal	80002698 <printf>
8000c4b0:	00440413          	addi	s0,s0,4
8000c4b4:	fe9916e3          	bne	s2,s1,8000c4a0 <xsh_echo+0x68>
8000c4b8:	80010537          	lui	a0,0x80010
8000c4bc:	4dc50513          	addi	a0,a0,1244 # 800104dc <_ctype_+0x670>
8000c4c0:	01812403          	lw	s0,24(sp)
8000c4c4:	01412483          	lw	s1,20(sp)
8000c4c8:	01012903          	lw	s2,16(sp)
8000c4cc:	00c12983          	lw	s3,12(sp)
8000c4d0:	9c8f60ef          	jal	80002698 <printf>
8000c4d4:	01c12083          	lw	ra,28(sp)
8000c4d8:	00000513          	li	a0,0
8000c4dc:	02010113          	addi	sp,sp,32
8000c4e0:	00008067          	ret
8000c4e4:	01812403          	lw	s0,24(sp)
8000c4e8:	01012903          	lw	s2,16(sp)
8000c4ec:	f5dff06f          	j	8000c448 <xsh_echo+0x10>

8000c4f0 <xsh_exit>:
8000c4f0:	ffd00513          	li	a0,-3
8000c4f4:	00008067          	ret

8000c4f8 <xsh_format>:
8000c4f8:	00000513          	li	a0,0
8000c4fc:	00008067          	ret

8000c500 <xsh_help>:
8000c500:	fb010113          	addi	sp,sp,-80
8000c504:	04812423          	sw	s0,72(sp)
8000c508:	04112623          	sw	ra,76(sp)
8000c50c:	00200793          	li	a5,2
8000c510:	00058413          	mv	s0,a1
8000c514:	16f50c63          	beq	a0,a5,8000c68c <xsh_help+0x18c>
8000c518:	24a7c463          	blt	a5,a0,8000c760 <xsh_help+0x260>
8000c51c:	80010537          	lui	a0,0x80010
8000c520:	3d050513          	addi	a0,a0,976 # 800103d0 <_ctype_+0x564>
8000c524:	03512a23          	sw	s5,52(sp)
8000c528:	970f60ef          	jal	80002698 <printf>
8000c52c:	80011ab7          	lui	s5,0x80011
8000c530:	f14aa783          	lw	a5,-236(s5) # 80010f14 <ncmd>
8000c534:	30078c63          	beqz	a5,8000c84c <xsh_help+0x34c>
8000c538:	80011437          	lui	s0,0x80011
8000c53c:	04912223          	sw	s1,68(sp)
8000c540:	05212023          	sw	s2,64(sp)
8000c544:	03a12023          	sw	s10,32(sp)
8000c548:	03612823          	sw	s6,48(sp)
8000c54c:	c3040d13          	addi	s10,s0,-976 # 80010c30 <cmdtab>
8000c550:	00000913          	li	s2,0
8000c554:	c3040413          	addi	s0,s0,-976
8000c558:	00000493          	li	s1,0
8000c55c:	00042503          	lw	a0,0(s0)
8000c560:	05000593          	li	a1,80
8000c564:	00148493          	addi	s1,s1,1
8000c568:	d2df60ef          	jal	80003294 <strnlen>
8000c56c:	f14aa783          	lw	a5,-236(s5)
8000c570:	00a95463          	bge	s2,a0,8000c578 <xsh_help+0x78>
8000c574:	00050913          	mv	s2,a0
8000c578:	00c40413          	addi	s0,s0,12
8000c57c:	fef4e0e3          	bltu	s1,a5,8000c55c <xsh_help+0x5c>
8000c580:	00190913          	addi	s2,s2,1
8000c584:	05000713          	li	a4,80
8000c588:	03274733          	div	a4,a4,s2
8000c58c:	00600693          	li	a3,6
8000c590:	18e6c663          	blt	a3,a4,8000c71c <xsh_help+0x21c>
8000c594:	fff78b13          	addi	s6,a5,-1
8000c598:	00eb0b33          	add	s6,s6,a4
8000c59c:	02eb5b33          	divu	s6,s6,a4
8000c5a0:	05000493          	li	s1,80
8000c5a4:	02e4c4b3          	div	s1,s1,a4
8000c5a8:	2b605663          	blez	s6,8000c854 <xsh_help+0x354>
8000c5ac:	03712623          	sw	s7,44(sp)
8000c5b0:	001b1b93          	slli	s7,s6,0x1
8000c5b4:	016b8bb3          	add	s7,s7,s6
8000c5b8:	03812423          	sw	s8,40(sp)
8000c5bc:	03912223          	sw	s9,36(sp)
8000c5c0:	03312e23          	sw	s3,60(sp)
8000c5c4:	03412c23          	sw	s4,56(sp)
8000c5c8:	01b12e23          	sw	s11,28(sp)
8000c5cc:	002b9b93          	slli	s7,s7,0x2
8000c5d0:	00000c93          	li	s9,0
8000c5d4:	80010c37          	lui	s8,0x80010
8000c5d8:	80010937          	lui	s2,0x80010
8000c5dc:	000d0a13          	mv	s4,s10
8000c5e0:	000c8993          	mv	s3,s9
8000c5e4:	04fcf463          	bgeu	s9,a5,8000c62c <xsh_help+0x12c>
8000c5e8:	000a2d83          	lw	s11,0(s4)
8000c5ec:	05000593          	li	a1,80
8000c5f0:	000d8513          	mv	a0,s11
8000c5f4:	ca1f60ef          	jal	80003294 <strnlen>
8000c5f8:	00050413          	mv	s0,a0
8000c5fc:	000d8593          	mv	a1,s11
8000c600:	270c0513          	addi	a0,s8,624 # 80010270 <_ctype_+0x404>
8000c604:	894f60ef          	jal	80002698 <printf>
8000c608:	00945a63          	bge	s0,s1,8000c61c <xsh_help+0x11c>
8000c60c:	5d490513          	addi	a0,s2,1492 # 800105d4 <_ctype_+0x768>
8000c610:	00140413          	addi	s0,s0,1
8000c614:	884f60ef          	jal	80002698 <printf>
8000c618:	fe849ae3          	bne	s1,s0,8000c60c <xsh_help+0x10c>
8000c61c:	f14aa783          	lw	a5,-236(s5)
8000c620:	016989b3          	add	s3,s3,s6
8000c624:	017a0a33          	add	s4,s4,s7
8000c628:	fcf9e0e3          	bltu	s3,a5,8000c5e8 <xsh_help+0xe8>
8000c62c:	800107b7          	lui	a5,0x80010
8000c630:	4dc78513          	addi	a0,a5,1244 # 800104dc <_ctype_+0x670>
8000c634:	001c8c93          	addi	s9,s9,1
8000c638:	860f60ef          	jal	80002698 <printf>
8000c63c:	00cd0d13          	addi	s10,s10,12
8000c640:	019b0663          	beq	s6,s9,8000c64c <xsh_help+0x14c>
8000c644:	f14aa783          	lw	a5,-236(s5)
8000c648:	f95ff06f          	j	8000c5dc <xsh_help+0xdc>
8000c64c:	04412483          	lw	s1,68(sp)
8000c650:	04012903          	lw	s2,64(sp)
8000c654:	03c12983          	lw	s3,60(sp)
8000c658:	03812a03          	lw	s4,56(sp)
8000c65c:	03412a83          	lw	s5,52(sp)
8000c660:	03012b03          	lw	s6,48(sp)
8000c664:	02c12b83          	lw	s7,44(sp)
8000c668:	02812c03          	lw	s8,40(sp)
8000c66c:	02412c83          	lw	s9,36(sp)
8000c670:	02012d03          	lw	s10,32(sp)
8000c674:	01c12d83          	lw	s11,28(sp)
8000c678:	00000513          	li	a0,0
8000c67c:	04c12083          	lw	ra,76(sp)
8000c680:	04812403          	lw	s0,72(sp)
8000c684:	05010113          	addi	sp,sp,80
8000c688:	00008067          	ret
8000c68c:	0045a503          	lw	a0,4(a1)
8000c690:	04912223          	sw	s1,68(sp)
8000c694:	800104b7          	lui	s1,0x80010
8000c698:	00700613          	li	a2,7
8000c69c:	27848593          	addi	a1,s1,632 # 80010278 <_ctype_+0x40c>
8000c6a0:	961f60ef          	jal	80003000 <strncmp>
8000c6a4:	12050863          	beqz	a0,8000c7d4 <xsh_help+0x2d4>
8000c6a8:	800117b7          	lui	a5,0x80011
8000c6ac:	f147a883          	lw	a7,-236(a5) # 80010f14 <ncmd>
8000c6b0:	00442603          	lw	a2,4(s0)
8000c6b4:	04088663          	beqz	a7,8000c700 <xsh_help+0x200>
8000c6b8:	800115b7          	lui	a1,0x80011
8000c6bc:	c3058313          	addi	t1,a1,-976 # 80010c30 <cmdtab>
8000c6c0:	00000813          	li	a6,0
8000c6c4:	c3058593          	addi	a1,a1,-976
8000c6c8:	0005a703          	lw	a4,0(a1)
8000c6cc:	00060793          	mv	a5,a2
8000c6d0:	00074683          	lbu	a3,0(a4)
8000c6d4:	00069863          	bnez	a3,8000c6e4 <xsh_help+0x1e4>
8000c6d8:	04c0006f          	j	8000c724 <xsh_help+0x224>
8000c6dc:	00074683          	lbu	a3,0(a4)
8000c6e0:	04068263          	beqz	a3,8000c724 <xsh_help+0x224>
8000c6e4:	0007c503          	lbu	a0,0(a5)
8000c6e8:	00170713          	addi	a4,a4,1
8000c6ec:	00178793          	addi	a5,a5,1
8000c6f0:	fed506e3          	beq	a0,a3,8000c6dc <xsh_help+0x1dc>
8000c6f4:	00180813          	addi	a6,a6,1
8000c6f8:	00c58593          	addi	a1,a1,12
8000c6fc:	fd0896e3          	bne	a7,a6,8000c6c8 <xsh_help+0x1c8>
8000c700:	00042583          	lw	a1,0(s0)
8000c704:	80010537          	lui	a0,0x80010
8000c708:	3b050513          	addi	a0,a0,944 # 800103b0 <_ctype_+0x544>
8000c70c:	f8df50ef          	jal	80002698 <printf>
8000c710:	04412483          	lw	s1,68(sp)
8000c714:	00100513          	li	a0,1
8000c718:	f65ff06f          	j	8000c67c <xsh_help+0x17c>
8000c71c:	00600713          	li	a4,6
8000c720:	e75ff06f          	j	8000c594 <xsh_help+0x94>
8000c724:	0007c783          	lbu	a5,0(a5)
8000c728:	fc0796e3          	bnez	a5,8000c6f4 <xsh_help+0x1f4>
8000c72c:	00181793          	slli	a5,a6,0x1
8000c730:	010787b3          	add	a5,a5,a6
8000c734:	00279793          	slli	a5,a5,0x2
8000c738:	00f307b3          	add	a5,t1,a5
8000c73c:	0087a783          	lw	a5,8(a5)
8000c740:	27848493          	addi	s1,s1,632
8000c744:	00912623          	sw	s1,12(sp)
8000c748:	00c12423          	sw	a2,8(sp)
8000c74c:	00810593          	addi	a1,sp,8
8000c750:	00200513          	li	a0,2
8000c754:	000780e7          	jalr	a5
8000c758:	04412483          	lw	s1,68(sp)
8000c75c:	f1dff06f          	j	8000c678 <xsh_help+0x178>
8000c760:	05212023          	sw	s2,64(sp)
8000c764:	80012937          	lui	s2,0x80012
8000c768:	86492783          	lw	a5,-1948(s2) # 80011864 <active_task>
8000c76c:	04912223          	sw	s1,68(sp)
8000c770:	800114b7          	lui	s1,0x80011
8000c774:	0287a703          	lw	a4,40(a5)
8000c778:	4e048493          	addi	s1,s1,1248 # 800114e0 <proctab>
8000c77c:	0005a603          	lw	a2,0(a1)
8000c780:	00371793          	slli	a5,a4,0x3
8000c784:	00e787b3          	add	a5,a5,a4
8000c788:	00379793          	slli	a5,a5,0x3
8000c78c:	00f487b3          	add	a5,s1,a5
8000c790:	03879503          	lh	a0,56(a5)
8000c794:	800105b7          	lui	a1,0x80010
8000c798:	37058593          	addi	a1,a1,880 # 80010370 <_ctype_+0x504>
8000c79c:	9a5f50ef          	jal	80002140 <fprintf>
8000c7a0:	86492783          	lw	a5,-1948(s2)
8000c7a4:	00042603          	lw	a2,0(s0)
8000c7a8:	800105b7          	lui	a1,0x80010
8000c7ac:	0287a703          	lw	a4,40(a5)
8000c7b0:	38858593          	addi	a1,a1,904 # 80010388 <_ctype_+0x51c>
8000c7b4:	00371793          	slli	a5,a4,0x3
8000c7b8:	00e787b3          	add	a5,a5,a4
8000c7bc:	00379793          	slli	a5,a5,0x3
8000c7c0:	00f484b3          	add	s1,s1,a5
8000c7c4:	03849503          	lh	a0,56(s1)
8000c7c8:	979f50ef          	jal	80002140 <fprintf>
8000c7cc:	04012903          	lw	s2,64(sp)
8000c7d0:	f41ff06f          	j	8000c710 <xsh_help+0x210>
8000c7d4:	80010537          	lui	a0,0x80010
8000c7d8:	28050513          	addi	a0,a0,640 # 80010280 <_ctype_+0x414>
8000c7dc:	ebdf50ef          	jal	80002698 <printf>
8000c7e0:	00042583          	lw	a1,0(s0)
8000c7e4:	80010537          	lui	a0,0x80010
8000c7e8:	28850513          	addi	a0,a0,648 # 80010288 <_ctype_+0x41c>
8000c7ec:	eadf50ef          	jal	80002698 <printf>
8000c7f0:	80010537          	lui	a0,0x80010
8000c7f4:	29850513          	addi	a0,a0,664 # 80010298 <_ctype_+0x42c>
8000c7f8:	ea1f50ef          	jal	80002698 <printf>
8000c7fc:	80010537          	lui	a0,0x80010
8000c800:	2a850513          	addi	a0,a0,680 # 800102a8 <_ctype_+0x43c>
8000c804:	e95f50ef          	jal	80002698 <printf>
8000c808:	80010537          	lui	a0,0x80010
8000c80c:	2d050513          	addi	a0,a0,720 # 800102d0 <_ctype_+0x464>
8000c810:	e89f50ef          	jal	80002698 <printf>
8000c814:	80010537          	lui	a0,0x80010
8000c818:	2fc50513          	addi	a0,a0,764 # 800102fc <_ctype_+0x490>
8000c81c:	e7df50ef          	jal	80002698 <printf>
8000c820:	80010537          	lui	a0,0x80010
8000c824:	30850513          	addi	a0,a0,776 # 80010308 <_ctype_+0x49c>
8000c828:	e71f50ef          	jal	80002698 <printf>
8000c82c:	80010537          	lui	a0,0x80010
8000c830:	33050513          	addi	a0,a0,816 # 80010330 <_ctype_+0x4c4>
8000c834:	e65f50ef          	jal	80002698 <printf>
8000c838:	80010537          	lui	a0,0x80010
8000c83c:	34c50513          	addi	a0,a0,844 # 8001034c <_ctype_+0x4e0>
8000c840:	e59f50ef          	jal	80002698 <printf>
8000c844:	04412483          	lw	s1,68(sp)
8000c848:	e31ff06f          	j	8000c678 <xsh_help+0x178>
8000c84c:	03412a83          	lw	s5,52(sp)
8000c850:	e29ff06f          	j	8000c678 <xsh_help+0x178>
8000c854:	04412483          	lw	s1,68(sp)
8000c858:	04012903          	lw	s2,64(sp)
8000c85c:	03412a83          	lw	s5,52(sp)
8000c860:	03012b03          	lw	s6,48(sp)
8000c864:	02012d03          	lw	s10,32(sp)
8000c868:	e11ff06f          	j	8000c678 <xsh_help+0x178>

8000c86c <xsh_kill>:
8000c86c:	ff010113          	addi	sp,sp,-16
8000c870:	00912223          	sw	s1,4(sp)
8000c874:	00112623          	sw	ra,12(sp)
8000c878:	00200793          	li	a5,2
8000c87c:	00058493          	mv	s1,a1
8000c880:	0af51263          	bne	a0,a5,8000c924 <xsh_kill+0xb8>
8000c884:	0045a503          	lw	a0,4(a1)
8000c888:	800105b7          	lui	a1,0x80010
8000c88c:	00700613          	li	a2,7
8000c890:	27858593          	addi	a1,a1,632 # 80010278 <_ctype_+0x40c>
8000c894:	f6cf60ef          	jal	80003000 <strncmp>
8000c898:	10050a63          	beqz	a0,8000c9ac <xsh_kill+0x140>
8000c89c:	0044a703          	lw	a4,4(s1)
8000c8a0:	00074603          	lbu	a2,0(a4)
8000c8a4:	00170713          	addi	a4,a4,1
8000c8a8:	1a060663          	beqz	a2,8000ca54 <xsh_kill+0x1e8>
8000c8ac:	fd060513          	addi	a0,a2,-48
8000c8b0:	0ff57693          	zext.b	a3,a0
8000c8b4:	00900793          	li	a5,9
8000c8b8:	14d7ec63          	bltu	a5,a3,8000ca10 <xsh_kill+0x1a4>
8000c8bc:	00812423          	sw	s0,8(sp)
8000c8c0:	00900693          	li	a3,9
8000c8c4:	00000413          	li	s0,0
8000c8c8:	0080006f          	j	8000c8d0 <xsh_kill+0x64>
8000c8cc:	14f6e063          	bltu	a3,a5,8000ca0c <xsh_kill+0x1a0>
8000c8d0:	00074603          	lbu	a2,0(a4)
8000c8d4:	00241793          	slli	a5,s0,0x2
8000c8d8:	008787b3          	add	a5,a5,s0
8000c8dc:	00179793          	slli	a5,a5,0x1
8000c8e0:	00f50433          	add	s0,a0,a5
8000c8e4:	fd060513          	addi	a0,a2,-48
8000c8e8:	0ff57793          	zext.b	a5,a0
8000c8ec:	00170713          	addi	a4,a4,1
8000c8f0:	fc061ee3          	bnez	a2,8000c8cc <xsh_kill+0x60>
8000c8f4:	14040e63          	beqz	s0,8000ca50 <xsh_kill+0x1e4>
8000c8f8:	00040513          	mv	a0,s0
8000c8fc:	075010ef          	jal	8000e170 <kill>
8000c900:	00050713          	mv	a4,a0
8000c904:	fff00793          	li	a5,-1
8000c908:	00000513          	li	a0,0
8000c90c:	18f70463          	beq	a4,a5,8000ca94 <xsh_kill+0x228>
8000c910:	00812403          	lw	s0,8(sp)
8000c914:	00c12083          	lw	ra,12(sp)
8000c918:	00412483          	lw	s1,4(sp)
8000c91c:	01010113          	addi	sp,sp,16
8000c920:	00008067          	ret
8000c924:	01212023          	sw	s2,0(sp)
8000c928:	80012937          	lui	s2,0x80012
8000c92c:	86492783          	lw	a5,-1948(s2) # 80011864 <active_task>
8000c930:	00812423          	sw	s0,8(sp)
8000c934:	80011437          	lui	s0,0x80011
8000c938:	0287a703          	lw	a4,40(a5)
8000c93c:	4e040413          	addi	s0,s0,1248 # 800114e0 <proctab>
8000c940:	0005a603          	lw	a2,0(a1)
8000c944:	00371793          	slli	a5,a4,0x3
8000c948:	00e787b3          	add	a5,a5,a4
8000c94c:	00379793          	slli	a5,a5,0x3
8000c950:	00f407b3          	add	a5,s0,a5
8000c954:	03879503          	lh	a0,56(a5)
8000c958:	800105b7          	lui	a1,0x80010
8000c95c:	43858593          	addi	a1,a1,1080 # 80010438 <_ctype_+0x5cc>
8000c960:	fe0f50ef          	jal	80002140 <fprintf>
8000c964:	86492783          	lw	a5,-1948(s2)
8000c968:	0004a603          	lw	a2,0(s1)
8000c96c:	800105b7          	lui	a1,0x80010
8000c970:	0287a703          	lw	a4,40(a5)
8000c974:	38858593          	addi	a1,a1,904 # 80010388 <_ctype_+0x51c>
8000c978:	00371793          	slli	a5,a4,0x3
8000c97c:	00e787b3          	add	a5,a5,a4
8000c980:	00379793          	slli	a5,a5,0x3
8000c984:	00f40433          	add	s0,s0,a5
8000c988:	03841503          	lh	a0,56(s0)
8000c98c:	fb4f50ef          	jal	80002140 <fprintf>
8000c990:	00c12083          	lw	ra,12(sp)
8000c994:	00812403          	lw	s0,8(sp)
8000c998:	00012903          	lw	s2,0(sp)
8000c99c:	00412483          	lw	s1,4(sp)
8000c9a0:	fff00513          	li	a0,-1
8000c9a4:	01010113          	addi	sp,sp,16
8000c9a8:	00008067          	ret
8000c9ac:	0004a583          	lw	a1,0(s1)
8000c9b0:	80010537          	lui	a0,0x80010
8000c9b4:	3e850513          	addi	a0,a0,1000 # 800103e8 <_ctype_+0x57c>
8000c9b8:	ce1f50ef          	jal	80002698 <printf>
8000c9bc:	80010537          	lui	a0,0x80010
8000c9c0:	29850513          	addi	a0,a0,664 # 80010298 <_ctype_+0x42c>
8000c9c4:	cd5f50ef          	jal	80002698 <printf>
8000c9c8:	80010537          	lui	a0,0x80010
8000c9cc:	3f850513          	addi	a0,a0,1016 # 800103f8 <_ctype_+0x58c>
8000c9d0:	cc9f50ef          	jal	80002698 <printf>
8000c9d4:	80010537          	lui	a0,0x80010
8000c9d8:	2fc50513          	addi	a0,a0,764 # 800102fc <_ctype_+0x490>
8000c9dc:	cbdf50ef          	jal	80002698 <printf>
8000c9e0:	80010537          	lui	a0,0x80010
8000c9e4:	41050513          	addi	a0,a0,1040 # 80010410 <_ctype_+0x5a4>
8000c9e8:	cb1f50ef          	jal	80002698 <printf>
8000c9ec:	80010537          	lui	a0,0x80010
8000c9f0:	34c50513          	addi	a0,a0,844 # 8001034c <_ctype_+0x4e0>
8000c9f4:	ca5f50ef          	jal	80002698 <printf>
8000c9f8:	00100513          	li	a0,1
8000c9fc:	00c12083          	lw	ra,12(sp)
8000ca00:	00412483          	lw	s1,4(sp)
8000ca04:	01010113          	addi	sp,sp,16
8000ca08:	00008067          	ret
8000ca0c:	00812403          	lw	s0,8(sp)
8000ca10:	800127b7          	lui	a5,0x80012
8000ca14:	8647a703          	lw	a4,-1948(a5) # 80011864 <active_task>
8000ca18:	800117b7          	lui	a5,0x80011
8000ca1c:	4e078793          	addi	a5,a5,1248 # 800114e0 <proctab>
8000ca20:	02872683          	lw	a3,40(a4)
8000ca24:	0004a603          	lw	a2,0(s1)
8000ca28:	800105b7          	lui	a1,0x80010
8000ca2c:	00369713          	slli	a4,a3,0x3
8000ca30:	00d70733          	add	a4,a4,a3
8000ca34:	00371713          	slli	a4,a4,0x3
8000ca38:	00e787b3          	add	a5,a5,a4
8000ca3c:	03879503          	lh	a0,56(a5)
8000ca40:	45058593          	addi	a1,a1,1104 # 80010450 <_ctype_+0x5e4>
8000ca44:	efcf50ef          	jal	80002140 <fprintf>
8000ca48:	00100513          	li	a0,1
8000ca4c:	fb1ff06f          	j	8000c9fc <xsh_kill+0x190>
8000ca50:	00812403          	lw	s0,8(sp)
8000ca54:	800127b7          	lui	a5,0x80012
8000ca58:	8647a703          	lw	a4,-1948(a5) # 80011864 <active_task>
8000ca5c:	800117b7          	lui	a5,0x80011
8000ca60:	4e078793          	addi	a5,a5,1248 # 800114e0 <proctab>
8000ca64:	02872683          	lw	a3,40(a4)
8000ca68:	0004a603          	lw	a2,0(s1)
8000ca6c:	800105b7          	lui	a1,0x80010
8000ca70:	00369713          	slli	a4,a3,0x3
8000ca74:	00d70733          	add	a4,a4,a3
8000ca78:	00371713          	slli	a4,a4,0x3
8000ca7c:	00e787b3          	add	a5,a5,a4
8000ca80:	03879503          	lh	a0,56(a5)
8000ca84:	47058593          	addi	a1,a1,1136 # 80010470 <_ctype_+0x604>
8000ca88:	eb8f50ef          	jal	80002140 <fprintf>
8000ca8c:	00100513          	li	a0,1
8000ca90:	f6dff06f          	j	8000c9fc <xsh_kill+0x190>
8000ca94:	800127b7          	lui	a5,0x80012
8000ca98:	8647a703          	lw	a4,-1948(a5) # 80011864 <active_task>
8000ca9c:	800117b7          	lui	a5,0x80011
8000caa0:	4e078793          	addi	a5,a5,1248 # 800114e0 <proctab>
8000caa4:	02872683          	lw	a3,40(a4)
8000caa8:	0004a603          	lw	a2,0(s1)
8000caac:	800105b7          	lui	a1,0x80010
8000cab0:	00369713          	slli	a4,a3,0x3
8000cab4:	00d70733          	add	a4,a4,a3
8000cab8:	00371713          	slli	a4,a4,0x3
8000cabc:	00e787b3          	add	a5,a5,a4
8000cac0:	03879503          	lh	a0,56(a5)
8000cac4:	00040693          	mv	a3,s0
8000cac8:	49458593          	addi	a1,a1,1172 # 80010494 <_ctype_+0x628>
8000cacc:	e74f50ef          	jal	80002140 <fprintf>
8000cad0:	00100513          	li	a0,1
8000cad4:	00812403          	lw	s0,8(sp)
8000cad8:	f25ff06f          	j	8000c9fc <xsh_kill+0x190>

8000cadc <xsh_ls>:
8000cadc:	00000513          	li	a0,0
8000cae0:	00008067          	ret

8000cae4 <xsh_memdump>:
8000cae4:	00200793          	li	a5,2
8000cae8:	00f50663          	beq	a0,a5,8000caf4 <xsh_memdump+0x10>
8000caec:	00000513          	li	a0,0
8000caf0:	00008067          	ret
8000caf4:	ff010113          	addi	sp,sp,-16
8000caf8:	0045a503          	lw	a0,4(a1)
8000cafc:	00812423          	sw	s0,8(sp)
8000cb00:	00058413          	mv	s0,a1
8000cb04:	800105b7          	lui	a1,0x80010
8000cb08:	00700613          	li	a2,7
8000cb0c:	27858593          	addi	a1,a1,632 # 80010278 <_ctype_+0x40c>
8000cb10:	00112623          	sw	ra,12(sp)
8000cb14:	cecf60ef          	jal	80003000 <strncmp>
8000cb18:	00050c63          	beqz	a0,8000cb30 <xsh_memdump+0x4c>
8000cb1c:	00000513          	li	a0,0
8000cb20:	00c12083          	lw	ra,12(sp)
8000cb24:	00812403          	lw	s0,8(sp)
8000cb28:	01010113          	addi	sp,sp,16
8000cb2c:	00008067          	ret
8000cb30:	00042583          	lw	a1,0(s0)
8000cb34:	80010537          	lui	a0,0x80010
8000cb38:	4b050513          	addi	a0,a0,1200 # 800104b0 <_ctype_+0x644>
8000cb3c:	b5df50ef          	jal	80002698 <printf>
8000cb40:	80010537          	lui	a0,0x80010
8000cb44:	29850513          	addi	a0,a0,664 # 80010298 <_ctype_+0x42c>
8000cb48:	b51f50ef          	jal	80002698 <printf>
8000cb4c:	00100513          	li	a0,1
8000cb50:	fd1ff06f          	j	8000cb20 <xsh_memdump+0x3c>

8000cb54 <xsh_memstat>:
8000cb54:	00000513          	li	a0,0
8000cb58:	00008067          	ret

8000cb5c <xsh_mkdir>:
8000cb5c:	00000513          	li	a0,0
8000cb60:	00008067          	ret

8000cb64 <xsh_ps>:
8000cb64:	800117b7          	lui	a5,0x80011
8000cb68:	d2078793          	addi	a5,a5,-736 # 80010d20 <cmdtab+0xf0>
8000cb6c:	0007ae03          	lw	t3,0(a5)
8000cb70:	0047a303          	lw	t1,4(a5)
8000cb74:	0087a883          	lw	a7,8(a5)
8000cb78:	00c7a803          	lw	a6,12(a5)
8000cb7c:	0107a603          	lw	a2,16(a5)
8000cb80:	0147a683          	lw	a3,20(a5)
8000cb84:	0187a703          	lw	a4,24(a5)
8000cb88:	01c7a783          	lw	a5,28(a5)
8000cb8c:	fc010113          	addi	sp,sp,-64
8000cb90:	02812c23          	sw	s0,56(sp)
8000cb94:	00f12e23          	sw	a5,28(sp)
8000cb98:	02112e23          	sw	ra,60(sp)
8000cb9c:	01c12023          	sw	t3,0(sp)
8000cba0:	00612223          	sw	t1,4(sp)
8000cba4:	01112423          	sw	a7,8(sp)
8000cba8:	01012623          	sw	a6,12(sp)
8000cbac:	00c12823          	sw	a2,16(sp)
8000cbb0:	00d12a23          	sw	a3,20(sp)
8000cbb4:	00e12c23          	sw	a4,24(sp)
8000cbb8:	00200793          	li	a5,2
8000cbbc:	00058413          	mv	s0,a1
8000cbc0:	0ef50c63          	beq	a0,a5,8000ccb8 <xsh_ps+0x154>
8000cbc4:	02912a23          	sw	s1,52(sp)
8000cbc8:	03212823          	sw	s2,48(sp)
8000cbcc:	00100793          	li	a5,1
8000cbd0:	10a7c463          	blt	a5,a0,8000ccd8 <xsh_ps+0x174>
8000cbd4:	80010437          	lui	s0,0x80010
8000cbd8:	80010837          	lui	a6,0x80010
8000cbdc:	800107b7          	lui	a5,0x80010
8000cbe0:	80010737          	lui	a4,0x80010
8000cbe4:	800106b7          	lui	a3,0x80010
8000cbe8:	80010637          	lui	a2,0x80010
8000cbec:	800105b7          	lui	a1,0x80010
8000cbf0:	53880813          	addi	a6,a6,1336 # 80010538 <_ctype_+0x6cc>
8000cbf4:	54478793          	addi	a5,a5,1348 # 80010544 <_ctype_+0x6d8>
8000cbf8:	55070713          	addi	a4,a4,1360 # 80010550 <_ctype_+0x6e4>
8000cbfc:	55c68693          	addi	a3,a3,1372 # 8001055c <_ctype_+0x6f0>
8000cc00:	56460613          	addi	a2,a2,1380 # 80010564 <_ctype_+0x6f8>
8000cc04:	56c58593          	addi	a1,a1,1388 # 8001056c <_ctype_+0x700>
8000cc08:	57040513          	addi	a0,s0,1392 # 80010570 <_ctype_+0x704>
8000cc0c:	03312623          	sw	s3,44(sp)
8000cc10:	a89f50ef          	jal	80002698 <printf>
8000cc14:	80010737          	lui	a4,0x80010
8000cc18:	800106b7          	lui	a3,0x80010
8000cc1c:	80010637          	lui	a2,0x80010
8000cc20:	800105b7          	lui	a1,0x80010
8000cc24:	03c70813          	addi	a6,a4,60 # 8001003c <_ctype_+0x1d0>
8000cc28:	03c70793          	addi	a5,a4,60
8000cc2c:	57040513          	addi	a0,s0,1392
8000cc30:	03c70713          	addi	a4,a4,60
8000cc34:	59068693          	addi	a3,a3,1424 # 80010590 <_ctype_+0x724>
8000cc38:	59860613          	addi	a2,a2,1432 # 80010598 <_ctype_+0x72c>
8000cc3c:	5ac58593          	addi	a1,a1,1452 # 800105ac <_ctype_+0x740>
8000cc40:	80011437          	lui	s0,0x80011
8000cc44:	a55f50ef          	jal	80002698 <printf>
8000cc48:	4f440413          	addi	s0,s0,1268 # 800114f4 <proctab+0x14>
8000cc4c:	00000493          	li	s1,0
8000cc50:	800109b7          	lui	s3,0x80010
8000cc54:	00a00913          	li	s2,10
8000cc58:	fec45703          	lhu	a4,-20(s0)
8000cc5c:	00040613          	mv	a2,s0
8000cc60:	00048593          	mv	a1,s1
8000cc64:	00271793          	slli	a5,a4,0x2
8000cc68:	02078793          	addi	a5,a5,32
8000cc6c:	002786b3          	add	a3,a5,sp
8000cc70:	5b098513          	addi	a0,s3,1456 # 800105b0 <_ctype_+0x744>
8000cc74:	00070c63          	beqz	a4,8000cc8c <xsh_ps+0x128>
8000cc78:	ffc42803          	lw	a6,-4(s0)
8000cc7c:	ff442783          	lw	a5,-12(s0)
8000cc80:	ff842703          	lw	a4,-8(s0)
8000cc84:	fe06a683          	lw	a3,-32(a3)
8000cc88:	a11f50ef          	jal	80002698 <printf>
8000cc8c:	00148493          	addi	s1,s1,1
8000cc90:	04840413          	addi	s0,s0,72
8000cc94:	fd2492e3          	bne	s1,s2,8000cc58 <xsh_ps+0xf4>
8000cc98:	03412483          	lw	s1,52(sp)
8000cc9c:	03012903          	lw	s2,48(sp)
8000cca0:	02c12983          	lw	s3,44(sp)
8000cca4:	03c12083          	lw	ra,60(sp)
8000cca8:	03812403          	lw	s0,56(sp)
8000ccac:	00000513          	li	a0,0
8000ccb0:	04010113          	addi	sp,sp,64
8000ccb4:	00008067          	ret
8000ccb8:	0045a503          	lw	a0,4(a1)
8000ccbc:	800105b7          	lui	a1,0x80010
8000ccc0:	00700613          	li	a2,7
8000ccc4:	27858593          	addi	a1,a1,632 # 80010278 <_ctype_+0x40c>
8000ccc8:	b38f60ef          	jal	80003000 <strncmp>
8000cccc:	08050663          	beqz	a0,8000cd58 <xsh_ps+0x1f4>
8000ccd0:	02912a23          	sw	s1,52(sp)
8000ccd4:	03212823          	sw	s2,48(sp)
8000ccd8:	80012937          	lui	s2,0x80012
8000ccdc:	86492783          	lw	a5,-1948(s2) # 80011864 <active_task>
8000cce0:	800114b7          	lui	s1,0x80011
8000cce4:	4e048493          	addi	s1,s1,1248 # 800114e0 <proctab>
8000cce8:	0287a703          	lw	a4,40(a5)
8000ccec:	00042603          	lw	a2,0(s0)
8000ccf0:	800105b7          	lui	a1,0x80010
8000ccf4:	00371793          	slli	a5,a4,0x3
8000ccf8:	00e787b3          	add	a5,a5,a4
8000ccfc:	00379793          	slli	a5,a5,0x3
8000cd00:	00f487b3          	add	a5,s1,a5
8000cd04:	03879503          	lh	a0,56(a5)
8000cd08:	37058593          	addi	a1,a1,880 # 80010370 <_ctype_+0x504>
8000cd0c:	c34f50ef          	jal	80002140 <fprintf>
8000cd10:	86492783          	lw	a5,-1948(s2)
8000cd14:	00042603          	lw	a2,0(s0)
8000cd18:	800105b7          	lui	a1,0x80010
8000cd1c:	0287a703          	lw	a4,40(a5)
8000cd20:	38858593          	addi	a1,a1,904 # 80010388 <_ctype_+0x51c>
8000cd24:	00371793          	slli	a5,a4,0x3
8000cd28:	00e787b3          	add	a5,a5,a4
8000cd2c:	00379793          	slli	a5,a5,0x3
8000cd30:	00f484b3          	add	s1,s1,a5
8000cd34:	03849503          	lh	a0,56(s1)
8000cd38:	c08f50ef          	jal	80002140 <fprintf>
8000cd3c:	03c12083          	lw	ra,60(sp)
8000cd40:	03812403          	lw	s0,56(sp)
8000cd44:	03412483          	lw	s1,52(sp)
8000cd48:	03012903          	lw	s2,48(sp)
8000cd4c:	00100513          	li	a0,1
8000cd50:	04010113          	addi	sp,sp,64
8000cd54:	00008067          	ret
8000cd58:	00042583          	lw	a1,0(s0)
8000cd5c:	80010537          	lui	a0,0x80010
8000cd60:	4d450513          	addi	a0,a0,1236 # 800104d4 <_ctype_+0x668>
8000cd64:	935f50ef          	jal	80002698 <printf>
8000cd68:	80010537          	lui	a0,0x80010
8000cd6c:	29850513          	addi	a0,a0,664 # 80010298 <_ctype_+0x42c>
8000cd70:	929f50ef          	jal	80002698 <printf>
8000cd74:	80010537          	lui	a0,0x80010
8000cd78:	4e050513          	addi	a0,a0,1248 # 800104e0 <_ctype_+0x674>
8000cd7c:	91df50ef          	jal	80002698 <printf>
8000cd80:	80010537          	lui	a0,0x80010
8000cd84:	2fc50513          	addi	a0,a0,764 # 800102fc <_ctype_+0x490>
8000cd88:	911f50ef          	jal	80002698 <printf>
8000cd8c:	80010537          	lui	a0,0x80010
8000cd90:	51050513          	addi	a0,a0,1296 # 80010510 <_ctype_+0x6a4>
8000cd94:	905f50ef          	jal	80002698 <printf>
8000cd98:	f0dff06f          	j	8000cca4 <xsh_ps+0x140>

8000cd9c <xsh_pwd>:
8000cd9c:	00000513          	li	a0,0
8000cda0:	00008067          	ret

8000cda4 <xsh_reboot>:
8000cda4:	00000513          	li	a0,0
8000cda8:	00008067          	ret

8000cdac <xsh_rm>:
8000cdac:	00000513          	li	a0,0
8000cdb0:	00008067          	ret

8000cdb4 <xsh_run>:
8000cdb4:	00000513          	li	a0,0
8000cdb8:	00008067          	ret

8000cdbc <xsh_touch>:
8000cdbc:	00000513          	li	a0,0
8000cdc0:	00008067          	ret

8000cdc4 <mount2>:
8000cdc4:	ff010113          	addi	sp,sp,-16
8000cdc8:	00812423          	sw	s0,8(sp)
8000cdcc:	00912223          	sw	s1,4(sp)
8000cdd0:	01212023          	sw	s2,0(sp)
8000cdd4:	00112623          	sw	ra,12(sp)
8000cdd8:	00050413          	mv	s0,a0
8000cddc:	00058913          	mv	s2,a1
8000cde0:	00060493          	mv	s1,a2
8000cde4:	ba4f30ef          	jal	80000188 <disable>
8000cde8:	00000793          	li	a5,0
8000cdec:	01000813          	li	a6,16
8000cdf0:	0080006f          	j	8000cdf8 <mount2+0x34>
8000cdf4:	03078063          	beq	a5,a6,8000ce14 <mount2+0x50>
8000cdf8:	00f406b3          	add	a3,s0,a5
8000cdfc:	0006c683          	lbu	a3,0(a3)
8000ce00:	00078713          	mv	a4,a5
8000ce04:	00178793          	addi	a5,a5,1
8000ce08:	fe0696e3          	bnez	a3,8000cdf4 <mount2+0x30>
8000ce0c:	00094783          	lbu	a5,0(s2)
8000ce10:	02078263          	beqz	a5,8000ce34 <mount2+0x70>
8000ce14:	b7cf30ef          	jal	80000190 <restore>
8000ce18:	00c12083          	lw	ra,12(sp)
8000ce1c:	00812403          	lw	s0,8(sp)
8000ce20:	00412483          	lw	s1,4(sp)
8000ce24:	00012903          	lw	s2,0(sp)
8000ce28:	fff00513          	li	a0,-1
8000ce2c:	01010113          	addi	sp,sp,16
8000ce30:	00008067          	ret
8000ce34:	00200793          	li	a5,2
8000ce38:	fc97eee3          	bltu	a5,s1,8000ce14 <mount2+0x50>
8000ce3c:	800128b7          	lui	a7,0x80012
8000ce40:	8348a603          	lw	a2,-1996(a7) # 80011834 <nnames>
8000ce44:	00400793          	li	a5,4
8000ce48:	fcc7c6e3          	blt	a5,a2,8000ce14 <mount2+0x50>
8000ce4c:	00161813          	slli	a6,a2,0x1
8000ce50:	00c807b3          	add	a5,a6,a2
8000ce54:	800115b7          	lui	a1,0x80011
8000ce58:	00379793          	slli	a5,a5,0x3
8000ce5c:	2f058593          	addi	a1,a1,752 # 800112f0 <nametab>
8000ce60:	00170713          	addi	a4,a4,1
8000ce64:	00f587b3          	add	a5,a1,a5
8000ce68:	00e40733          	add	a4,s0,a4
8000ce6c:	00044683          	lbu	a3,0(s0)
8000ce70:	00140413          	addi	s0,s0,1
8000ce74:	00178793          	addi	a5,a5,1
8000ce78:	fed78fa3          	sb	a3,-1(a5)
8000ce7c:	fe8718e3          	bne	a4,s0,8000ce6c <mount2+0xa8>
8000ce80:	00094703          	lbu	a4,0(s2)
8000ce84:	00c80833          	add	a6,a6,a2
8000ce88:	00381813          	slli	a6,a6,0x3
8000ce8c:	010587b3          	add	a5,a1,a6
8000ce90:	0097aa23          	sw	s1,20(a5)
8000ce94:	00160613          	addi	a2,a2,1
8000ce98:	00e78823          	sb	a4,16(a5)
8000ce9c:	82c8aa23          	sw	a2,-1996(a7)
8000cea0:	af0f30ef          	jal	80000190 <restore>
8000cea4:	00c12083          	lw	ra,12(sp)
8000cea8:	00812403          	lw	s0,8(sp)
8000ceac:	00412483          	lw	s1,4(sp)
8000ceb0:	00012903          	lw	s2,0(sp)
8000ceb4:	00100513          	li	a0,1
8000ceb8:	01010113          	addi	sp,sp,16
8000cebc:	00008067          	ret

8000cec0 <namlen>:
8000cec0:	00050713          	mv	a4,a0
8000cec4:	02b05263          	blez	a1,8000cee8 <namlen+0x28>
8000cec8:	00000513          	li	a0,0
8000cecc:	0080006f          	j	8000ced4 <namlen+0x14>
8000ced0:	00b50c63          	beq	a0,a1,8000cee8 <namlen+0x28>
8000ced4:	00a707b3          	add	a5,a4,a0
8000ced8:	0007c783          	lbu	a5,0(a5)
8000cedc:	00150513          	addi	a0,a0,1
8000cee0:	fe0798e3          	bnez	a5,8000ced0 <namlen+0x10>
8000cee4:	00008067          	ret
8000cee8:	fff00513          	li	a0,-1
8000ceec:	00008067          	ret

8000cef0 <naminit>:
8000cef0:	766567b7          	lui	a5,0x76656
8000cef4:	fb010113          	addi	sp,sp,-80
8000cef8:	42f78793          	addi	a5,a5,1071 # 7665642f <__stack_size+0x7665442f>
8000cefc:	03a12023          	sw	s10,32(sp)
8000cf00:	00f12423          	sw	a5,8(sp)
8000cf04:	80011d37          	lui	s10,0x80011
8000cf08:	02f00793          	li	a5,47
8000cf0c:	e2cd0d13          	addi	s10,s10,-468 # 80010e2c <devtab>
8000cf10:	00f11623          	sh	a5,12(sp)
8000cf14:	800127b7          	lui	a5,0x80012
8000cf18:	04912223          	sw	s1,68(sp)
8000cf1c:	05212023          	sw	s2,64(sp)
8000cf20:	03312e23          	sw	s3,60(sp)
8000cf24:	03412c23          	sw	s4,56(sp)
8000cf28:	03512a23          	sw	s5,52(sp)
8000cf2c:	03612823          	sw	s6,48(sp)
8000cf30:	03712623          	sw	s7,44(sp)
8000cf34:	03812423          	sw	s8,40(sp)
8000cf38:	03912223          	sw	s9,36(sp)
8000cf3c:	04112623          	sw	ra,76(sp)
8000cf40:	04812423          	sw	s0,72(sp)
8000cf44:	8207aa23          	sw	zero,-1996(a5) # 80011834 <nnames>
8000cf48:	0e4d0a13          	addi	s4,s10,228
8000cf4c:	00810993          	addi	s3,sp,8
8000cf50:	80010ab7          	lui	s5,0x80010
8000cf54:	02f00913          	li	s2,47
8000cf58:	00f00c13          	li	s8,15
8000cf5c:	00910493          	addi	s1,sp,9
8000cf60:	01900c93          	li	s9,25
8000cf64:	80010bb7          	lui	s7,0x80010
8000cf68:	fff00b13          	li	s6,-1
8000cf6c:	01210823          	sb	s2,16(sp)
8000cf70:	00a10793          	addi	a5,sp,10
8000cf74:	01110713          	addi	a4,sp,17
8000cf78:	fff7c683          	lbu	a3,-1(a5)
8000cf7c:	00070613          	mv	a2,a4
8000cf80:	00078593          	mv	a1,a5
8000cf84:	00d70023          	sb	a3,0(a4)
8000cf88:	00170713          	addi	a4,a4,1
8000cf8c:	00178793          	addi	a5,a5,1
8000cf90:	fe0694e3          	bnez	a3,8000cf78 <naminit+0x88>
8000cf94:	008d2883          	lw	a7,8(s10)
8000cf98:	41358433          	sub	s0,a1,s3
8000cf9c:	fff40413          	addi	s0,s0,-1
8000cfa0:	40b485b3          	sub	a1,s1,a1
8000cfa4:	00140413          	addi	s0,s0,1
8000cfa8:	008587b3          	add	a5,a1,s0
8000cfac:	00f60533          	add	a0,a2,a5
8000cfb0:	00f88733          	add	a4,a7,a5
8000cfb4:	00050793          	mv	a5,a0
8000cfb8:	028c4a63          	blt	s8,s0,8000cfec <naminit+0xfc>
8000cfbc:	fff74683          	lbu	a3,-1(a4)
8000cfc0:	fbf68713          	addi	a4,a3,-65
8000cfc4:	0ff77713          	zext.b	a4,a4
8000cfc8:	02068813          	addi	a6,a3,32
8000cfcc:	08ece663          	bltu	s9,a4,8000d058 <naminit+0x168>
8000cfd0:	00140413          	addi	s0,s0,1
8000cfd4:	ff078fa3          	sb	a6,-1(a5)
8000cfd8:	008587b3          	add	a5,a1,s0
8000cfdc:	00f60533          	add	a0,a2,a5
8000cfe0:	00f88733          	add	a4,a7,a5
8000cfe4:	00050793          	mv	a5,a0
8000cfe8:	fc8c5ae3          	bge	s8,s0,8000cfbc <naminit+0xcc>
8000cfec:	000d2603          	lw	a2,0(s10)
8000cff0:	01010593          	addi	a1,sp,16
8000cff4:	610a8513          	addi	a0,s5,1552 # 80010610 <_ctype_+0x7a4>
8000cff8:	14c020ef          	jal	8000f144 <kprintf>
8000cffc:	01000793          	li	a5,16
8000d000:	06f40863          	beq	s0,a5,8000d070 <naminit+0x180>
8000d004:	008d2583          	lw	a1,8(s10)
8000d008:	80010537          	lui	a0,0x80010
8000d00c:	62050513          	addi	a0,a0,1568 # 80010620 <_ctype_+0x7b4>
8000d010:	134020ef          	jal	8000f144 <kprintf>
8000d014:	04cd0d13          	addi	s10,s10,76
8000d018:	f54d1ae3          	bne	s10,s4,8000cf6c <naminit+0x7c>
8000d01c:	04c12083          	lw	ra,76(sp)
8000d020:	04812403          	lw	s0,72(sp)
8000d024:	04412483          	lw	s1,68(sp)
8000d028:	04012903          	lw	s2,64(sp)
8000d02c:	03c12983          	lw	s3,60(sp)
8000d030:	03812a03          	lw	s4,56(sp)
8000d034:	03412a83          	lw	s5,52(sp)
8000d038:	03012b03          	lw	s6,48(sp)
8000d03c:	02c12b83          	lw	s7,44(sp)
8000d040:	02812c03          	lw	s8,40(sp)
8000d044:	02412c83          	lw	s9,36(sp)
8000d048:	02012d03          	lw	s10,32(sp)
8000d04c:	00100513          	li	a0,1
8000d050:	05010113          	addi	sp,sp,80
8000d054:	00008067          	ret
8000d058:	fed50fa3          	sb	a3,-1(a0)
8000d05c:	f40694e3          	bnez	a3,8000cfa4 <naminit+0xb4>
8000d060:	000d2603          	lw	a2,0(s10)
8000d064:	01010593          	addi	a1,sp,16
8000d068:	610a8513          	addi	a0,s5,1552
8000d06c:	0d8020ef          	jal	8000f144 <kprintf>
8000d070:	000d2603          	lw	a2,0(s10)
8000d074:	118b8593          	addi	a1,s7,280 # 80010118 <_ctype_+0x2ac>
8000d078:	01010513          	addi	a0,sp,16
8000d07c:	d49ff0ef          	jal	8000cdc4 <mount2>
8000d080:	f9651ae3          	bne	a0,s6,8000d014 <naminit+0x124>
8000d084:	008d2583          	lw	a1,8(s10)
8000d088:	80010537          	lui	a0,0x80010
8000d08c:	64850513          	addi	a0,a0,1608 # 80010648 <_ctype_+0x7dc>
8000d090:	0b4020ef          	jal	8000f144 <kprintf>
8000d094:	f81ff06f          	j	8000d014 <naminit+0x124>

8000d098 <namrepl>:
8000d098:	800127b7          	lui	a5,0x80012
8000d09c:	8347a803          	lw	a6,-1996(a5) # 80011834 <nnames>
8000d0a0:	15005c63          	blez	a6,8000d1f8 <namrepl+0x160>
8000d0a4:	fe010113          	addi	sp,sp,-32
8000d0a8:	80011637          	lui	a2,0x80011
8000d0ac:	01212823          	sw	s2,16(sp)
8000d0b0:	01312623          	sw	s3,12(sp)
8000d0b4:	01412423          	sw	s4,8(sp)
8000d0b8:	01612023          	sw	s6,0(sp)
8000d0bc:	2f060a13          	addi	s4,a2,752 # 800112f0 <nametab>
8000d0c0:	00112e23          	sw	ra,28(sp)
8000d0c4:	00812c23          	sw	s0,24(sp)
8000d0c8:	00912a23          	sw	s1,20(sp)
8000d0cc:	00058993          	mv	s3,a1
8000d0d0:	2f060613          	addi	a2,a2,752
8000d0d4:	00000913          	li	s2,0
8000d0d8:	00000b13          	li	s6,0
8000d0dc:	00064783          	lbu	a5,0(a2)
8000d0e0:	0e078e63          	beqz	a5,8000d1dc <namrepl+0x144>
8000d0e4:	00050413          	mv	s0,a0
8000d0e8:	00000493          	li	s1,0
8000d0ec:	00c0006f          	j	8000d0f8 <namrepl+0x60>
8000d0f0:	0006c783          	lbu	a5,0(a3)
8000d0f4:	02078863          	beqz	a5,8000d124 <namrepl+0x8c>
8000d0f8:	00044703          	lbu	a4,0(s0)
8000d0fc:	00148493          	addi	s1,s1,1
8000d100:	009606b3          	add	a3,a2,s1
8000d104:	00140413          	addi	s0,s0,1
8000d108:	fef704e3          	beq	a4,a5,8000d0f0 <namrepl+0x58>
8000d10c:	001b0b13          	addi	s6,s6,1
8000d110:	01890913          	addi	s2,s2,24
8000d114:	01860613          	addi	a2,a2,24
8000d118:	fd0b12e3          	bne	s6,a6,8000d0dc <namrepl+0x44>
8000d11c:	fff00513          	li	a0,-1
8000d120:	0980006f          	j	8000d1b8 <namrepl+0x120>
8000d124:	01512223          	sw	s5,4(sp)
8000d128:	01000593          	li	a1,16
8000d12c:	01090913          	addi	s2,s2,16
8000d130:	d91ff0ef          	jal	8000cec0 <namlen>
8000d134:	012a0933          	add	s2,s4,s2
8000d138:	00050a93          	mv	s5,a0
8000d13c:	01000593          	li	a1,16
8000d140:	00090513          	mv	a0,s2
8000d144:	d7dff0ef          	jal	8000cec0 <namlen>
8000d148:	0ffaf693          	zext.b	a3,s5
8000d14c:	fff50513          	addi	a0,a0,-1
8000d150:	409686b3          	sub	a3,a3,s1
8000d154:	00d50733          	add	a4,a0,a3
8000d158:	01000793          	li	a5,16
8000d15c:	08e7c863          	blt	a5,a4,8000d1ec <namrepl+0x154>
8000d160:	02a05263          	blez	a0,8000d184 <namrepl+0xec>
8000d164:	00a90633          	add	a2,s2,a0
8000d168:	00098793          	mv	a5,s3
8000d16c:	00094703          	lbu	a4,0(s2)
8000d170:	00190913          	addi	s2,s2,1
8000d174:	00178793          	addi	a5,a5,1
8000d178:	fee78fa3          	sb	a4,-1(a5)
8000d17c:	fec918e3          	bne	s2,a2,8000d16c <namrepl+0xd4>
8000d180:	00a989b3          	add	s3,s3,a0
8000d184:	00d40733          	add	a4,s0,a3
8000d188:	00d05c63          	blez	a3,8000d1a0 <namrepl+0x108>
8000d18c:	00044783          	lbu	a5,0(s0)
8000d190:	00140413          	addi	s0,s0,1
8000d194:	00198993          	addi	s3,s3,1
8000d198:	fef98fa3          	sb	a5,-1(s3)
8000d19c:	fe8718e3          	bne	a4,s0,8000d18c <namrepl+0xf4>
8000d1a0:	001b1793          	slli	a5,s6,0x1
8000d1a4:	016787b3          	add	a5,a5,s6
8000d1a8:	00379793          	slli	a5,a5,0x3
8000d1ac:	00fa07b3          	add	a5,s4,a5
8000d1b0:	0147a503          	lw	a0,20(a5)
8000d1b4:	00412a83          	lw	s5,4(sp)
8000d1b8:	01c12083          	lw	ra,28(sp)
8000d1bc:	01812403          	lw	s0,24(sp)
8000d1c0:	01412483          	lw	s1,20(sp)
8000d1c4:	01012903          	lw	s2,16(sp)
8000d1c8:	00c12983          	lw	s3,12(sp)
8000d1cc:	00812a03          	lw	s4,8(sp)
8000d1d0:	00012b03          	lw	s6,0(sp)
8000d1d4:	02010113          	addi	sp,sp,32
8000d1d8:	00008067          	ret
8000d1dc:	01512223          	sw	s5,4(sp)
8000d1e0:	00050413          	mv	s0,a0
8000d1e4:	00000493          	li	s1,0
8000d1e8:	f41ff06f          	j	8000d128 <namrepl+0x90>
8000d1ec:	00412a83          	lw	s5,4(sp)
8000d1f0:	fff00513          	li	a0,-1
8000d1f4:	fc5ff06f          	j	8000d1b8 <namrepl+0x120>
8000d1f8:	fff00513          	li	a0,-1
8000d1fc:	00008067          	ret

8000d200 <nammap>:
8000d200:	fd010113          	addi	sp,sp,-48
8000d204:	02912223          	sw	s1,36(sp)
8000d208:	03212023          	sw	s2,32(sp)
8000d20c:	02112623          	sw	ra,44(sp)
8000d210:	02812423          	sw	s0,40(sp)
8000d214:	01312e23          	sw	s3,28(sp)
8000d218:	00058493          	mv	s1,a1
8000d21c:	00060913          	mv	s2,a2
8000d220:	00010793          	mv	a5,sp
8000d224:	00c0006f          	j	8000d230 <nammap+0x30>
8000d228:	01010713          	addi	a4,sp,16
8000d22c:	06e78663          	beq	a5,a4,8000d298 <nammap+0x98>
8000d230:	00054703          	lbu	a4,0(a0)
8000d234:	00178793          	addi	a5,a5,1
8000d238:	00150513          	addi	a0,a0,1
8000d23c:	fee78fa3          	sb	a4,-1(a5)
8000d240:	fe0714e3          	bnez	a4,8000d228 <nammap+0x28>
8000d244:	800129b7          	lui	s3,0x80012
8000d248:	8349a783          	lw	a5,-1996(s3) # 80011834 <nnames>
8000d24c:	00000413          	li	s0,0
8000d250:	04f05463          	blez	a5,8000d298 <nammap+0x98>
8000d254:	00048593          	mv	a1,s1
8000d258:	00010513          	mv	a0,sp
8000d25c:	e3dff0ef          	jal	8000d098 <namrepl>
8000d260:	03251e63          	bne	a0,s2,8000d29c <nammap+0x9c>
8000d264:	00048713          	mv	a4,s1
8000d268:	00010793          	mv	a5,sp
8000d26c:	00c0006f          	j	8000d278 <nammap+0x78>
8000d270:	01010693          	addi	a3,sp,16
8000d274:	00d78c63          	beq	a5,a3,8000d28c <nammap+0x8c>
8000d278:	00074683          	lbu	a3,0(a4)
8000d27c:	00178793          	addi	a5,a5,1
8000d280:	00170713          	addi	a4,a4,1
8000d284:	fed78fa3          	sb	a3,-1(a5)
8000d288:	fe0694e3          	bnez	a3,8000d270 <nammap+0x70>
8000d28c:	8349a783          	lw	a5,-1996(s3)
8000d290:	00140413          	addi	s0,s0,1
8000d294:	fcf440e3          	blt	s0,a5,8000d254 <nammap+0x54>
8000d298:	fff00513          	li	a0,-1
8000d29c:	02c12083          	lw	ra,44(sp)
8000d2a0:	02812403          	lw	s0,40(sp)
8000d2a4:	02412483          	lw	s1,36(sp)
8000d2a8:	02012903          	lw	s2,32(sp)
8000d2ac:	01c12983          	lw	s3,28(sp)
8000d2b0:	03010113          	addi	sp,sp,48
8000d2b4:	00008067          	ret

8000d2b8 <namcpy>:
8000d2b8:	02c05663          	blez	a2,8000d2e4 <namcpy+0x2c>
8000d2bc:	00c50633          	add	a2,a0,a2
8000d2c0:	0080006f          	j	8000d2c8 <namcpy+0x10>
8000d2c4:	02c50063          	beq	a0,a2,8000d2e4 <namcpy+0x2c>
8000d2c8:	0005c783          	lbu	a5,0(a1)
8000d2cc:	00150513          	addi	a0,a0,1
8000d2d0:	00158593          	addi	a1,a1,1
8000d2d4:	fef50fa3          	sb	a5,-1(a0)
8000d2d8:	fe0796e3          	bnez	a5,8000d2c4 <namcpy+0xc>
8000d2dc:	00100513          	li	a0,1
8000d2e0:	00008067          	ret
8000d2e4:	fff00513          	li	a0,-1
8000d2e8:	00008067          	ret

8000d2ec <namopen>:
8000d2ec:	fe010113          	addi	sp,sp,-32
8000d2f0:	00812c23          	sw	s0,24(sp)
8000d2f4:	00060413          	mv	s0,a2
8000d2f8:	00052603          	lw	a2,0(a0)
8000d2fc:	00058513          	mv	a0,a1
8000d300:	00010593          	mv	a1,sp
8000d304:	00112e23          	sw	ra,28(sp)
8000d308:	ef9ff0ef          	jal	8000d200 <nammap>
8000d30c:	fff00713          	li	a4,-1
8000d310:	02e50463          	beq	a0,a4,8000d338 <namopen+0x4c>
8000d314:	00040613          	mv	a2,s0
8000d318:	00010593          	mv	a1,sp
8000d31c:	574010ef          	jal	8000e890 <open>
8000d320:	00050793          	mv	a5,a0
8000d324:	01c12083          	lw	ra,28(sp)
8000d328:	01812403          	lw	s0,24(sp)
8000d32c:	00078513          	mv	a0,a5
8000d330:	02010113          	addi	sp,sp,32
8000d334:	00008067          	ret
8000d338:	00050793          	mv	a5,a0
8000d33c:	fe9ff06f          	j	8000d324 <namopen+0x38>

8000d340 <ttycontrol>:
8000d340:	ffd58593          	addi	a1,a1,-3
8000d344:	00700793          	li	a5,7
8000d348:	00452503          	lw	a0,4(a0)
8000d34c:	14b7e063          	bltu	a5,a1,8000d48c <ttycontrol+0x14c>
8000d350:	800117b7          	lui	a5,0x80011
8000d354:	d4078793          	addi	a5,a5,-704 # 80010d40 <cmdtab+0x110>
8000d358:	00259593          	slli	a1,a1,0x2
8000d35c:	00f585b3          	add	a1,a1,a5
8000d360:	0005a783          	lw	a5,0(a1)
8000d364:	00078067          	jr	a5
8000d368:	0ac00793          	li	a5,172
8000d36c:	02f50533          	mul	a0,a0,a5
8000d370:	800117b7          	lui	a5,0x80011
8000d374:	36878793          	addi	a5,a5,872 # 80011368 <ttytab>
8000d378:	00a787b3          	add	a5,a5,a0
8000d37c:	080788a3          	sb	zero,145(a5)
8000d380:	00100513          	li	a0,1
8000d384:	00008067          	ret
8000d388:	ff010113          	addi	sp,sp,-16
8000d38c:	0ac00793          	li	a5,172
8000d390:	00812423          	sw	s0,8(sp)
8000d394:	02f50433          	mul	s0,a0,a5
8000d398:	00912223          	sw	s1,4(sp)
8000d39c:	800114b7          	lui	s1,0x80011
8000d3a0:	01212023          	sw	s2,0(sp)
8000d3a4:	36848493          	addi	s1,s1,872 # 80011368 <ttytab>
8000d3a8:	00112623          	sw	ra,12(sp)
8000d3ac:	02840913          	addi	s2,s0,40
8000d3b0:	00990933          	add	s2,s2,s1
8000d3b4:	00090513          	mv	a0,s2
8000d3b8:	010020ef          	jal	8000f3c8 <sem_wait>
8000d3bc:	008484b3          	add	s1,s1,s0
8000d3c0:	0044a783          	lw	a5,4(s1)
8000d3c4:	00090513          	mv	a0,s2
8000d3c8:	0007c403          	lbu	s0,0(a5)
8000d3cc:	17c020ef          	jal	8000f548 <sem_signal>
8000d3d0:	00c12083          	lw	ra,12(sp)
8000d3d4:	00040513          	mv	a0,s0
8000d3d8:	00812403          	lw	s0,8(sp)
8000d3dc:	00412483          	lw	s1,4(sp)
8000d3e0:	00012903          	lw	s2,0(sp)
8000d3e4:	01010113          	addi	sp,sp,16
8000d3e8:	00008067          	ret
8000d3ec:	0ac00793          	li	a5,172
8000d3f0:	02f50533          	mul	a0,a0,a5
8000d3f4:	800117b7          	lui	a5,0x80011
8000d3f8:	36878793          	addi	a5,a5,872 # 80011368 <ttytab>
8000d3fc:	05200713          	li	a4,82
8000d400:	00a787b3          	add	a5,a5,a0
8000d404:	08e78823          	sb	a4,144(a5)
8000d408:	00100513          	li	a0,1
8000d40c:	00008067          	ret
8000d410:	0ac00793          	li	a5,172
8000d414:	02f50533          	mul	a0,a0,a5
8000d418:	800117b7          	lui	a5,0x80011
8000d41c:	36878793          	addi	a5,a5,872 # 80011368 <ttytab>
8000d420:	04300713          	li	a4,67
8000d424:	00a787b3          	add	a5,a5,a0
8000d428:	08e78823          	sb	a4,144(a5)
8000d42c:	f55ff06f          	j	8000d380 <ttycontrol+0x40>
8000d430:	0ac00793          	li	a5,172
8000d434:	02f50533          	mul	a0,a0,a5
8000d438:	800117b7          	lui	a5,0x80011
8000d43c:	36878793          	addi	a5,a5,872 # 80011368 <ttytab>
8000d440:	04b00713          	li	a4,75
8000d444:	00a787b3          	add	a5,a5,a0
8000d448:	08e78823          	sb	a4,144(a5)
8000d44c:	f35ff06f          	j	8000d380 <ttycontrol+0x40>
8000d450:	0ac00793          	li	a5,172
8000d454:	02f50533          	mul	a0,a0,a5
8000d458:	02850793          	addi	a5,a0,40
8000d45c:	80011537          	lui	a0,0x80011
8000d460:	36850513          	addi	a0,a0,872 # 80011368 <ttytab>
8000d464:	00f50533          	add	a0,a0,a5
8000d468:	1bc0206f          	j	8000f624 <sem_count>
8000d46c:	0ac00793          	li	a5,172
8000d470:	02f50533          	mul	a0,a0,a5
8000d474:	800117b7          	lui	a5,0x80011
8000d478:	36878793          	addi	a5,a5,872 # 80011368 <ttytab>
8000d47c:	00100713          	li	a4,1
8000d480:	00a787b3          	add	a5,a5,a0
8000d484:	08e788a3          	sb	a4,145(a5)
8000d488:	ef9ff06f          	j	8000d380 <ttycontrol+0x40>
8000d48c:	fff00513          	li	a0,-1
8000d490:	00008067          	ret

8000d494 <ttygetc>:
8000d494:	fe010113          	addi	sp,sp,-32
8000d498:	01212823          	sw	s2,16(sp)
8000d49c:	00452903          	lw	s2,4(a0)
8000d4a0:	00912a23          	sw	s1,20(sp)
8000d4a4:	0ac00493          	li	s1,172
8000d4a8:	029904b3          	mul	s1,s2,s1
8000d4ac:	00812c23          	sw	s0,24(sp)
8000d4b0:	80011437          	lui	s0,0x80011
8000d4b4:	01312623          	sw	s3,12(sp)
8000d4b8:	36840413          	addi	s0,s0,872 # 80011368 <ttytab>
8000d4bc:	00112e23          	sw	ra,28(sp)
8000d4c0:	02848993          	addi	s3,s1,40
8000d4c4:	013409b3          	add	s3,s0,s3
8000d4c8:	00098513          	mv	a0,s3
8000d4cc:	6fd010ef          	jal	8000f3c8 <sem_wait>
8000d4d0:	009407b3          	add	a5,s0,s1
8000d4d4:	0007a683          	lw	a3,0(a5)
8000d4d8:	00168713          	addi	a4,a3,1
8000d4dc:	00e7a023          	sw	a4,0(a5)
8000d4e0:	0006c503          	lbu	a0,0(a3)
8000d4e4:	01376863          	bltu	a4,s3,8000d4f4 <ttygetc+0x60>
8000d4e8:	00848493          	addi	s1,s1,8
8000d4ec:	009404b3          	add	s1,s0,s1
8000d4f0:	0097a023          	sw	s1,0(a5)
8000d4f4:	0ac00793          	li	a5,172
8000d4f8:	02f90933          	mul	s2,s2,a5
8000d4fc:	04300793          	li	a5,67
8000d500:	01240433          	add	s0,s0,s2
8000d504:	09044703          	lbu	a4,144(s0)
8000d508:	02f70063          	beq	a4,a5,8000d528 <ttygetc+0x94>
8000d50c:	01c12083          	lw	ra,28(sp)
8000d510:	01812403          	lw	s0,24(sp)
8000d514:	01412483          	lw	s1,20(sp)
8000d518:	01012903          	lw	s2,16(sp)
8000d51c:	00c12983          	lw	s3,12(sp)
8000d520:	02010113          	addi	sp,sp,32
8000d524:	00008067          	ret
8000d528:	09944783          	lbu	a5,153(s0)
8000d52c:	fe0780e3          	beqz	a5,8000d50c <ttygetc+0x78>
8000d530:	09a44783          	lbu	a5,154(s0)
8000d534:	fca79ce3          	bne	a5,a0,8000d50c <ttygetc+0x78>
8000d538:	ffe00513          	li	a0,-2
8000d53c:	fd1ff06f          	j	8000d50c <ttygetc+0x78>

8000d540 <echoch>:
8000d540:	ff010113          	addi	sp,sp,-16
8000d544:	00812423          	sw	s0,8(sp)
8000d548:	00112623          	sw	ra,12(sp)
8000d54c:	00a00793          	li	a5,10
8000d550:	00050413          	mv	s0,a0
8000d554:	02f50863          	beq	a0,a5,8000d584 <echoch+0x44>
8000d558:	00d00793          	li	a5,13
8000d55c:	02f50463          	beq	a0,a5,8000d584 <echoch+0x44>
8000d560:	01f00793          	li	a5,31
8000d564:	02a7f463          	bgeu	a5,a0,8000d58c <echoch+0x4c>
8000d568:	07f00793          	li	a5,127
8000d56c:	02f50063          	beq	a0,a5,8000d58c <echoch+0x4c>
8000d570:	00040513          	mv	a0,s0
8000d574:	00812403          	lw	s0,8(sp)
8000d578:	00c12083          	lw	ra,12(sp)
8000d57c:	01010113          	addi	sp,sp,16
8000d580:	3910106f          	j	8000f110 <kputc>
8000d584:	0945c783          	lbu	a5,148(a1)
8000d588:	02079663          	bnez	a5,8000d5b4 <echoch+0x74>
8000d58c:	0935c783          	lbu	a5,147(a1)
8000d590:	fe0780e3          	beqz	a5,8000d570 <echoch+0x30>
8000d594:	05e00513          	li	a0,94
8000d598:	379010ef          	jal	8000f110 <kputc>
8000d59c:	04040513          	addi	a0,s0,64
8000d5a0:	00812403          	lw	s0,8(sp)
8000d5a4:	00c12083          	lw	ra,12(sp)
8000d5a8:	0ff57513          	zext.b	a0,a0
8000d5ac:	01010113          	addi	sp,sp,16
8000d5b0:	3610106f          	j	8000f110 <kputc>
8000d5b4:	00d00513          	li	a0,13
8000d5b8:	359010ef          	jal	8000f110 <kputc>
8000d5bc:	00812403          	lw	s0,8(sp)
8000d5c0:	00c12083          	lw	ra,12(sp)
8000d5c4:	00a00513          	li	a0,10
8000d5c8:	01010113          	addi	sp,sp,16
8000d5cc:	3450106f          	j	8000f110 <kputc>

8000d5d0 <ttyhandle_in>:
8000d5d0:	ff010113          	addi	sp,sp,-16
8000d5d4:	01212023          	sw	s2,0(sp)
8000d5d8:	02850913          	addi	s2,a0,40
8000d5dc:	00812423          	sw	s0,8(sp)
8000d5e0:	00050413          	mv	s0,a0
8000d5e4:	00090513          	mv	a0,s2
8000d5e8:	00912223          	sw	s1,4(sp)
8000d5ec:	00112623          	sw	ra,12(sp)
8000d5f0:	00058493          	mv	s1,a1
8000d5f4:	030020ef          	jal	8000f624 <sem_count>
8000d5f8:	09044783          	lbu	a5,144(s0)
8000d5fc:	05200713          	li	a4,82
8000d600:	0ee78e63          	beq	a5,a4,8000d6fc <ttyhandle_in+0x12c>
8000d604:	00d00713          	li	a4,13
8000d608:	08e48863          	beq	s1,a4,8000d698 <ttyhandle_in+0xc8>
8000d60c:	0a0402a3          	sb	zero,165(s0)
8000d610:	04b00713          	li	a4,75
8000d614:	08e78e63          	beq	a5,a4,8000d6b0 <ttyhandle_in+0xe0>
8000d618:	09c44783          	lbu	a5,156(s0)
8000d61c:	18978063          	beq	a5,s1,8000d79c <ttyhandle_in+0x1cc>
8000d620:	09744783          	lbu	a5,151(s0)
8000d624:	10978263          	beq	a5,s1,8000d728 <ttyhandle_in+0x158>
8000d628:	09844783          	lbu	a5,152(s0)
8000d62c:	0e978e63          	beq	a5,s1,8000d728 <ttyhandle_in+0x158>
8000d630:	00a00793          	li	a5,10
8000d634:	1af48863          	beq	s1,a5,8000d7e4 <ttyhandle_in+0x214>
8000d638:	00d00793          	li	a5,13
8000d63c:	1af48463          	beq	s1,a5,8000d7e4 <ttyhandle_in+0x214>
8000d640:	00090513          	mv	a0,s2
8000d644:	7e1010ef          	jal	8000f624 <sem_count>
8000d648:	fff54713          	not	a4,a0
8000d64c:	0a042783          	lw	a5,160(s0)
8000d650:	41f75713          	srai	a4,a4,0x1f
8000d654:	00e57533          	and	a0,a0,a4
8000d658:	00f50533          	add	a0,a0,a5
8000d65c:	01e00713          	li	a4,30
8000d660:	20a74463          	blt	a4,a0,8000d868 <ttyhandle_in+0x298>
8000d664:	09a44683          	lbu	a3,154(s0)
8000d668:	09144703          	lbu	a4,145(s0)
8000d66c:	1c969663          	bne	a3,s1,8000d838 <ttyhandle_in+0x268>
8000d670:	09944683          	lbu	a3,153(s0)
8000d674:	1c068263          	beqz	a3,8000d838 <ttyhandle_in+0x268>
8000d678:	22071063          	bnez	a4,8000d898 <ttyhandle_in+0x2c8>
8000d67c:	22078863          	beqz	a5,8000d8ac <ttyhandle_in+0x2dc>
8000d680:	00c12083          	lw	ra,12(sp)
8000d684:	00812403          	lw	s0,8(sp)
8000d688:	00412483          	lw	s1,4(sp)
8000d68c:	00012903          	lw	s2,0(sp)
8000d690:	01010113          	addi	sp,sp,16
8000d694:	00008067          	ret
8000d698:	09544703          	lbu	a4,149(s0)
8000d69c:	f60708e3          	beqz	a4,8000d60c <ttyhandle_in+0x3c>
8000d6a0:	0a0402a3          	sb	zero,165(s0)
8000d6a4:	04b00713          	li	a4,75
8000d6a8:	00a00493          	li	s1,10
8000d6ac:	f6e796e3          	bne	a5,a4,8000d618 <ttyhandle_in+0x48>
8000d6b0:	01f00793          	li	a5,31
8000d6b4:	1aa7ca63          	blt	a5,a0,8000d868 <ttyhandle_in+0x298>
8000d6b8:	00442783          	lw	a5,4(s0)
8000d6bc:	00178713          	addi	a4,a5,1
8000d6c0:	00e42223          	sw	a4,4(s0)
8000d6c4:	00978023          	sb	s1,0(a5)
8000d6c8:	00442783          	lw	a5,4(s0)
8000d6cc:	0127e663          	bltu	a5,s2,8000d6d8 <ttyhandle_in+0x108>
8000d6d0:	00840793          	addi	a5,s0,8
8000d6d4:	00f42223          	sw	a5,4(s0)
8000d6d8:	09144783          	lbu	a5,145(s0)
8000d6dc:	1a079263          	bnez	a5,8000d880 <ttyhandle_in+0x2b0>
8000d6e0:	00090513          	mv	a0,s2
8000d6e4:	00812403          	lw	s0,8(sp)
8000d6e8:	00c12083          	lw	ra,12(sp)
8000d6ec:	00412483          	lw	s1,4(sp)
8000d6f0:	00012903          	lw	s2,0(sp)
8000d6f4:	01010113          	addi	sp,sp,16
8000d6f8:	6510106f          	j	8000f548 <sem_signal>
8000d6fc:	01f00793          	li	a5,31
8000d700:	f8a7c0e3          	blt	a5,a0,8000d680 <ttyhandle_in+0xb0>
8000d704:	00442783          	lw	a5,4(s0)
8000d708:	00178713          	addi	a4,a5,1
8000d70c:	00e42223          	sw	a4,4(s0)
8000d710:	00978023          	sb	s1,0(a5)
8000d714:	00442783          	lw	a5,4(s0)
8000d718:	fd27e4e3          	bltu	a5,s2,8000d6e0 <ttyhandle_in+0x110>
8000d71c:	00840793          	addi	a5,s0,8
8000d720:	00f42223          	sw	a5,4(s0)
8000d724:	fbdff06f          	j	8000d6e0 <ttyhandle_in+0x110>
8000d728:	09644783          	lbu	a5,150(s0)
8000d72c:	f00782e3          	beqz	a5,8000d630 <ttyhandle_in+0x60>
8000d730:	0a042783          	lw	a5,160(s0)
8000d734:	f4f056e3          	blez	a5,8000d680 <ttyhandle_in+0xb0>
8000d738:	00442703          	lw	a4,4(s0)
8000d73c:	fff78793          	addi	a5,a5,-1
8000d740:	0af42023          	sw	a5,160(s0)
8000d744:	00840693          	addi	a3,s0,8
8000d748:	fff70793          	addi	a5,a4,-1
8000d74c:	00d7f463          	bgeu	a5,a3,8000d754 <ttyhandle_in+0x184>
8000d750:	01f70793          	addi	a5,a4,31
8000d754:	09144703          	lbu	a4,145(s0)
8000d758:	00f42223          	sw	a5,4(s0)
8000d75c:	0007c783          	lbu	a5,0(a5)
8000d760:	f20700e3          	beqz	a4,8000d680 <ttyhandle_in+0xb0>
8000d764:	01f00713          	li	a4,31
8000d768:	00f77663          	bgeu	a4,a5,8000d774 <ttyhandle_in+0x1a4>
8000d76c:	07f00713          	li	a4,127
8000d770:	00e79663          	bne	a5,a4,8000d77c <ttyhandle_in+0x1ac>
8000d774:	09344783          	lbu	a5,147(s0)
8000d778:	16079063          	bnez	a5,8000d8d8 <ttyhandle_in+0x308>
8000d77c:	00800513          	li	a0,8
8000d780:	191010ef          	jal	8000f110 <kputc>
8000d784:	09244783          	lbu	a5,146(s0)
8000d788:	ee078ce3          	beqz	a5,8000d680 <ttyhandle_in+0xb0>
8000d78c:	02000513          	li	a0,32
8000d790:	181010ef          	jal	8000f110 <kputc>
8000d794:	00800513          	li	a0,8
8000d798:	0340006f          	j	8000d7cc <ttyhandle_in+0x1fc>
8000d79c:	09b44783          	lbu	a5,155(s0)
8000d7a0:	e80780e3          	beqz	a5,8000d620 <ttyhandle_in+0x50>
8000d7a4:	00442783          	lw	a5,4(s0)
8000d7a8:	0a042683          	lw	a3,160(s0)
8000d7ac:	00840713          	addi	a4,s0,8
8000d7b0:	40d787b3          	sub	a5,a5,a3
8000d7b4:	0ce7ee63          	bltu	a5,a4,8000d890 <ttyhandle_in+0x2c0>
8000d7b8:	00f42223          	sw	a5,4(s0)
8000d7bc:	0a042023          	sw	zero,160(s0)
8000d7c0:	00d00513          	li	a0,13
8000d7c4:	14d010ef          	jal	8000f110 <kputc>
8000d7c8:	00a00513          	li	a0,10
8000d7cc:	00812403          	lw	s0,8(sp)
8000d7d0:	00c12083          	lw	ra,12(sp)
8000d7d4:	00412483          	lw	s1,4(sp)
8000d7d8:	00012903          	lw	s2,0(sp)
8000d7dc:	01010113          	addi	sp,sp,16
8000d7e0:	1310106f          	j	8000f110 <kputc>
8000d7e4:	09144783          	lbu	a5,145(s0)
8000d7e8:	08079463          	bnez	a5,8000d870 <ttyhandle_in+0x2a0>
8000d7ec:	00442783          	lw	a5,4(s0)
8000d7f0:	00178713          	addi	a4,a5,1
8000d7f4:	00e42223          	sw	a4,4(s0)
8000d7f8:	00978023          	sb	s1,0(a5)
8000d7fc:	00442783          	lw	a5,4(s0)
8000d800:	0127e663          	bltu	a5,s2,8000d80c <ttyhandle_in+0x23c>
8000d804:	00840793          	addi	a5,s0,8
8000d808:	00f42223          	sw	a5,4(s0)
8000d80c:	0a042583          	lw	a1,160(s0)
8000d810:	00090513          	mv	a0,s2
8000d814:	00158593          	addi	a1,a1,1
8000d818:	465010ef          	jal	8000f47c <sem_signaln>
8000d81c:	00c12083          	lw	ra,12(sp)
8000d820:	0a042023          	sw	zero,160(s0)
8000d824:	00812403          	lw	s0,8(sp)
8000d828:	00412483          	lw	s1,4(sp)
8000d82c:	00012903          	lw	s2,0(sp)
8000d830:	01010113          	addi	sp,sp,16
8000d834:	00008067          	ret
8000d838:	08071663          	bnez	a4,8000d8c4 <ttyhandle_in+0x2f4>
8000d83c:	00442703          	lw	a4,4(s0)
8000d840:	00178793          	addi	a5,a5,1
8000d844:	0af42023          	sw	a5,160(s0)
8000d848:	00170793          	addi	a5,a4,1
8000d84c:	00f42223          	sw	a5,4(s0)
8000d850:	00970023          	sb	s1,0(a4)
8000d854:	00442783          	lw	a5,4(s0)
8000d858:	e327e4e3          	bltu	a5,s2,8000d680 <ttyhandle_in+0xb0>
8000d85c:	00840793          	addi	a5,s0,8
8000d860:	00f42223          	sw	a5,4(s0)
8000d864:	e1dff06f          	j	8000d680 <ttyhandle_in+0xb0>
8000d868:	0a944503          	lbu	a0,169(s0)
8000d86c:	f61ff06f          	j	8000d7cc <ttyhandle_in+0x1fc>
8000d870:	00040593          	mv	a1,s0
8000d874:	00048513          	mv	a0,s1
8000d878:	cc9ff0ef          	jal	8000d540 <echoch>
8000d87c:	f71ff06f          	j	8000d7ec <ttyhandle_in+0x21c>
8000d880:	00040593          	mv	a1,s0
8000d884:	00048513          	mv	a0,s1
8000d888:	cb9ff0ef          	jal	8000d540 <echoch>
8000d88c:	e55ff06f          	j	8000d6e0 <ttyhandle_in+0x110>
8000d890:	02078793          	addi	a5,a5,32
8000d894:	f25ff06f          	j	8000d7b8 <ttyhandle_in+0x1e8>
8000d898:	00040593          	mv	a1,s0
8000d89c:	00048513          	mv	a0,s1
8000d8a0:	ca1ff0ef          	jal	8000d540 <echoch>
8000d8a4:	0a042783          	lw	a5,160(s0)
8000d8a8:	dc079ce3          	bnez	a5,8000d680 <ttyhandle_in+0xb0>
8000d8ac:	00442783          	lw	a5,4(s0)
8000d8b0:	00090513          	mv	a0,s2
8000d8b4:	00178713          	addi	a4,a5,1
8000d8b8:	00e42223          	sw	a4,4(s0)
8000d8bc:	00978023          	sb	s1,0(a5)
8000d8c0:	e25ff06f          	j	8000d6e4 <ttyhandle_in+0x114>
8000d8c4:	00040593          	mv	a1,s0
8000d8c8:	00048513          	mv	a0,s1
8000d8cc:	c75ff0ef          	jal	8000d540 <echoch>
8000d8d0:	0a042783          	lw	a5,160(s0)
8000d8d4:	f69ff06f          	j	8000d83c <ttyhandle_in+0x26c>
8000d8d8:	00800513          	li	a0,8
8000d8dc:	035010ef          	jal	8000f110 <kputc>
8000d8e0:	09244783          	lbu	a5,146(s0)
8000d8e4:	e8078ce3          	beqz	a5,8000d77c <ttyhandle_in+0x1ac>
8000d8e8:	02000513          	li	a0,32
8000d8ec:	025010ef          	jal	8000f110 <kputc>
8000d8f0:	00800513          	li	a0,8
8000d8f4:	01d010ef          	jal	8000f110 <kputc>
8000d8f8:	e85ff06f          	j	8000d77c <ttyhandle_in+0x1ac>

8000d8fc <ttyhandle_out>:
8000d8fc:	0a554783          	lbu	a5,165(a0)
8000d900:	0e079263          	bnez	a5,8000d9e4 <ttyhandle_out+0xe8>
8000d904:	06852703          	lw	a4,104(a0)
8000d908:	06c52783          	lw	a5,108(a0)
8000d90c:	ff010113          	addi	sp,sp,-16
8000d910:	00812423          	sw	s0,8(sp)
8000d914:	00912223          	sw	s1,4(sp)
8000d918:	00112623          	sw	ra,12(sp)
8000d91c:	00050413          	mv	s0,a0
8000d920:	05c50493          	addi	s1,a0,92
8000d924:	0cf70263          	beq	a4,a5,8000d9e8 <ttyhandle_out+0xec>
8000d928:	04f70a63          	beq	a4,a5,8000d97c <ttyhandle_out+0x80>
8000d92c:	03442783          	lw	a5,52(s0)
8000d930:	00178713          	addi	a4,a5,1
8000d934:	02e42a23          	sw	a4,52(s0)
8000d938:	0007c503          	lbu	a0,0(a5)
8000d93c:	7d4010ef          	jal	8000f110 <kputc>
8000d940:	06842703          	lw	a4,104(s0)
8000d944:	09040793          	addi	a5,s0,144
8000d948:	00f76663          	bltu	a4,a5,8000d954 <ttyhandle_out+0x58>
8000d94c:	07040793          	addi	a5,s0,112
8000d950:	06f42423          	sw	a5,104(s0)
8000d954:	00048513          	mv	a0,s1
8000d958:	4cd010ef          	jal	8000f624 <sem_count>
8000d95c:	06842703          	lw	a4,104(s0)
8000d960:	06c42783          	lw	a5,108(s0)
8000d964:	06f70463          	beq	a4,a5,8000d9cc <ttyhandle_out+0xd0>
8000d968:	00c12083          	lw	ra,12(sp)
8000d96c:	00812403          	lw	s0,8(sp)
8000d970:	00412483          	lw	s1,4(sp)
8000d974:	01010113          	addi	sp,sp,16
8000d978:	00008067          	ret
8000d97c:	00048513          	mv	a0,s1
8000d980:	4a5010ef          	jal	8000f624 <sem_count>
8000d984:	02000793          	li	a5,32
8000d988:	40a787b3          	sub	a5,a5,a0
8000d98c:	fcf058e3          	blez	a5,8000d95c <ttyhandle_out+0x60>
8000d990:	03442783          	lw	a5,52(s0)
8000d994:	00178713          	addi	a4,a5,1
8000d998:	02e42a23          	sw	a4,52(s0)
8000d99c:	0007c503          	lbu	a0,0(a5)
8000d9a0:	770010ef          	jal	8000f110 <kputc>
8000d9a4:	03442783          	lw	a5,52(s0)
8000d9a8:	0097e663          	bltu	a5,s1,8000d9b4 <ttyhandle_out+0xb8>
8000d9ac:	03c40793          	addi	a5,s0,60
8000d9b0:	02f42a23          	sw	a5,52(s0)
8000d9b4:	00100593          	li	a1,1
8000d9b8:	00048513          	mv	a0,s1
8000d9bc:	2c1010ef          	jal	8000f47c <sem_signaln>
8000d9c0:	06842703          	lw	a4,104(s0)
8000d9c4:	06c42783          	lw	a5,108(s0)
8000d9c8:	faf710e3          	bne	a4,a5,8000d968 <ttyhandle_out+0x6c>
8000d9cc:	00812403          	lw	s0,8(sp)
8000d9d0:	00c12083          	lw	ra,12(sp)
8000d9d4:	00048513          	mv	a0,s1
8000d9d8:	00412483          	lw	s1,4(sp)
8000d9dc:	01010113          	addi	sp,sp,16
8000d9e0:	4450106f          	j	8000f624 <sem_count>
8000d9e4:	00008067          	ret
8000d9e8:	00048513          	mv	a0,s1
8000d9ec:	439010ef          	jal	8000f624 <sem_count>
8000d9f0:	01f00793          	li	a5,31
8000d9f4:	f6a7eae3          	bltu	a5,a0,8000d968 <ttyhandle_out+0x6c>
8000d9f8:	06842703          	lw	a4,104(s0)
8000d9fc:	06c42783          	lw	a5,108(s0)
8000da00:	f29ff06f          	j	8000d928 <ttyhandle_out+0x2c>

8000da04 <ttyhandler>:
8000da04:	800117b7          	lui	a5,0x80011
8000da08:	e307a783          	lw	a5,-464(a5) # 80010e30 <devtab+0x4>
8000da0c:	0ac00513          	li	a0,172
8000da10:	02f50533          	mul	a0,a0,a5
8000da14:	800117b7          	lui	a5,0x80011
8000da18:	36878793          	addi	a5,a5,872 # 80011368 <ttytab>
8000da1c:	00f50533          	add	a0,a0,a5
8000da20:	00060463          	beqz	a2,8000da28 <ttyhandler+0x24>
8000da24:	ed9ff06f          	j	8000d8fc <ttyhandle_out>
8000da28:	ba9ff06f          	j	8000d5d0 <ttyhandle_in>

8000da2c <ttyinit>:
8000da2c:	ff010113          	addi	sp,sp,-16
8000da30:	00912223          	sw	s1,4(sp)
8000da34:	00452483          	lw	s1,4(a0)
8000da38:	0ac00793          	li	a5,172
8000da3c:	00812423          	sw	s0,8(sp)
8000da40:	02f484b3          	mul	s1,s1,a5
8000da44:	80011437          	lui	s0,0x80011
8000da48:	36840413          	addi	s0,s0,872 # 80011368 <ttytab>
8000da4c:	00112623          	sw	ra,12(sp)
8000da50:	01212023          	sw	s2,0(sp)
8000da54:	00000593          	li	a1,0
8000da58:	00848793          	addi	a5,s1,8
8000da5c:	02848513          	addi	a0,s1,40
8000da60:	00940933          	add	s2,s0,s1
8000da64:	00f407b3          	add	a5,s0,a5
8000da68:	00a40533          	add	a0,s0,a0
8000da6c:	00f92223          	sw	a5,4(s2)
8000da70:	00f92023          	sw	a5,0(s2)
8000da74:	135010ef          	jal	8000f3a8 <sem_init>
8000da78:	03c48793          	addi	a5,s1,60
8000da7c:	05c48513          	addi	a0,s1,92
8000da80:	00f407b3          	add	a5,s0,a5
8000da84:	02000593          	li	a1,32
8000da88:	00a40533          	add	a0,s0,a0
8000da8c:	02f92c23          	sw	a5,56(s2)
8000da90:	02f92a23          	sw	a5,52(s2)
8000da94:	115010ef          	jal	8000f3a8 <sem_init>
8000da98:	07048713          	addi	a4,s1,112
8000da9c:	00e40733          	add	a4,s0,a4
8000daa0:	09048793          	addi	a5,s1,144
8000daa4:	010105b7          	lui	a1,0x1010
8000daa8:	08010637          	lui	a2,0x8010
8000daac:	010406b7          	lui	a3,0x1040
8000dab0:	06e92623          	sw	a4,108(s2)
8000dab4:	06e92423          	sw	a4,104(s2)
8000dab8:	00f407b3          	add	a5,s0,a5
8000dabc:	14358593          	addi	a1,a1,323 # 1010143 <__stack_size+0x100e143>
8000dac0:	10160613          	addi	a2,a2,257 # 8010101 <__stack_size+0x800e101>
8000dac4:	17f68693          	addi	a3,a3,383 # 104017f <__stack_size+0x103e17f>
8000dac8:	00b7a023          	sw	a1,0(a5)
8000dacc:	00c7a223          	sw	a2,4(a5)
8000dad0:	00d7a423          	sw	a3,8(a5)
8000dad4:	0a048493          	addi	s1,s1,160
8000dad8:	111307b7          	lui	a5,0x11130
8000dadc:	01500713          	li	a4,21
8000dae0:	08e90e23          	sb	a4,156(s2)
8000dae4:	0a092023          	sw	zero,160(s2)
8000dae8:	00940433          	add	s0,s0,s1
8000daec:	00178793          	addi	a5,a5,1 # 11130001 <__stack_size+0x1112e001>
8000daf0:	00f42223          	sw	a5,4(s0)
8000daf4:	70100793          	li	a5,1793
8000daf8:	00c12083          	lw	ra,12(sp)
8000dafc:	00f41423          	sh	a5,8(s0)
8000db00:	00812403          	lw	s0,8(sp)
8000db04:	00412483          	lw	s1,4(sp)
8000db08:	00012903          	lw	s2,0(sp)
8000db0c:	00100513          	li	a0,1
8000db10:	01010113          	addi	sp,sp,16
8000db14:	00008067          	ret

8000db18 <ttykickout>:
8000db18:	ff010113          	addi	sp,sp,-16
8000db1c:	00112623          	sw	ra,12(sp)
8000db20:	e68f20ef          	jal	80000188 <disable>
8000db24:	00100613          	li	a2,1
8000db28:	05800593          	li	a1,88
8000db2c:	00100513          	li	a0,1
8000db30:	ed5ff0ef          	jal	8000da04 <ttyhandler>
8000db34:	00c12083          	lw	ra,12(sp)
8000db38:	01010113          	addi	sp,sp,16
8000db3c:	e44f206f          	j	80000180 <enable>

8000db40 <ttyputc>:
8000db40:	fe010113          	addi	sp,sp,-32
8000db44:	00812c23          	sw	s0,24(sp)
8000db48:	00452403          	lw	s0,4(a0)
8000db4c:	01212823          	sw	s2,16(sp)
8000db50:	0ac00913          	li	s2,172
8000db54:	03240933          	mul	s2,s0,s2
8000db58:	00912a23          	sw	s1,20(sp)
8000db5c:	800114b7          	lui	s1,0x80011
8000db60:	01312623          	sw	s3,12(sp)
8000db64:	01412423          	sw	s4,8(sp)
8000db68:	36848493          	addi	s1,s1,872 # 80011368 <ttytab>
8000db6c:	00112e23          	sw	ra,28(sp)
8000db70:	00a00793          	li	a5,10
8000db74:	00058a13          	mv	s4,a1
8000db78:	05c90993          	addi	s3,s2,92
8000db7c:	013489b3          	add	s3,s1,s3
8000db80:	06f58263          	beq	a1,a5,8000dbe4 <ttyputc+0xa4>
8000db84:	00098513          	mv	a0,s3
8000db88:	041010ef          	jal	8000f3c8 <sem_wait>
8000db8c:	0ac00793          	li	a5,172
8000db90:	02f407b3          	mul	a5,s0,a5
8000db94:	00f487b3          	add	a5,s1,a5
8000db98:	0387a703          	lw	a4,56(a5)
8000db9c:	00170693          	addi	a3,a4,1
8000dba0:	02d7ac23          	sw	a3,56(a5)
8000dba4:	01470023          	sb	s4,0(a4)
8000dba8:	0387a703          	lw	a4,56(a5)
8000dbac:	01376863          	bltu	a4,s3,8000dbbc <ttyputc+0x7c>
8000dbb0:	03c90913          	addi	s2,s2,60
8000dbb4:	012484b3          	add	s1,s1,s2
8000dbb8:	0297ac23          	sw	s1,56(a5)
8000dbbc:	f5dff0ef          	jal	8000db18 <ttykickout>
8000dbc0:	01c12083          	lw	ra,28(sp)
8000dbc4:	01812403          	lw	s0,24(sp)
8000dbc8:	01412483          	lw	s1,20(sp)
8000dbcc:	01012903          	lw	s2,16(sp)
8000dbd0:	00c12983          	lw	s3,12(sp)
8000dbd4:	00812a03          	lw	s4,8(sp)
8000dbd8:	00100513          	li	a0,1
8000dbdc:	02010113          	addi	sp,sp,32
8000dbe0:	00008067          	ret
8000dbe4:	01512223          	sw	s5,4(sp)
8000dbe8:	01248ab3          	add	s5,s1,s2
8000dbec:	0a8ac783          	lbu	a5,168(s5)
8000dbf0:	00079663          	bnez	a5,8000dbfc <ttyputc+0xbc>
8000dbf4:	00412a83          	lw	s5,4(sp)
8000dbf8:	f8dff06f          	j	8000db84 <ttyputc+0x44>
8000dbfc:	00098513          	mv	a0,s3
8000dc00:	7c8010ef          	jal	8000f3c8 <sem_wait>
8000dc04:	038aa783          	lw	a5,56(s5)
8000dc08:	00178713          	addi	a4,a5,1
8000dc0c:	02eaac23          	sw	a4,56(s5)
8000dc10:	00d00713          	li	a4,13
8000dc14:	00e78023          	sb	a4,0(a5)
8000dc18:	038aa783          	lw	a5,56(s5)
8000dc1c:	0137e863          	bltu	a5,s3,8000dc2c <ttyputc+0xec>
8000dc20:	03c90793          	addi	a5,s2,60
8000dc24:	00f487b3          	add	a5,s1,a5
8000dc28:	02faac23          	sw	a5,56(s5)
8000dc2c:	eedff0ef          	jal	8000db18 <ttykickout>
8000dc30:	00412a83          	lw	s5,4(sp)
8000dc34:	f51ff06f          	j	8000db84 <ttyputc+0x44>

8000dc38 <ttyread>:
8000dc38:	fe010113          	addi	sp,sp,-32
8000dc3c:	00112e23          	sw	ra,28(sp)
8000dc40:	00912a23          	sw	s1,20(sp)
8000dc44:	16064263          	bltz	a2,8000dda8 <ttyread+0x170>
8000dc48:	00452783          	lw	a5,4(a0)
8000dc4c:	0ac00713          	li	a4,172
8000dc50:	00812c23          	sw	s0,24(sp)
8000dc54:	02e787b3          	mul	a5,a5,a4
8000dc58:	80011737          	lui	a4,0x80011
8000dc5c:	36870713          	addi	a4,a4,872 # 80011368 <ttytab>
8000dc60:	00060413          	mv	s0,a2
8000dc64:	01212823          	sw	s2,16(sp)
8000dc68:	01312623          	sw	s3,12(sp)
8000dc6c:	04300693          	li	a3,67
8000dc70:	00050913          	mv	s2,a0
8000dc74:	00058993          	mv	s3,a1
8000dc78:	00f70633          	add	a2,a4,a5
8000dc7c:	09064603          	lbu	a2,144(a2)
8000dc80:	08d60063          	beq	a2,a3,8000dd00 <ttyread+0xc8>
8000dc84:	00040493          	mv	s1,s0
8000dc88:	04040063          	beqz	s0,8000dcc8 <ttyread+0x90>
8000dc8c:	00000413          	li	s0,0
8000dc90:	00090513          	mv	a0,s2
8000dc94:	801ff0ef          	jal	8000d494 <ttygetc>
8000dc98:	008987b3          	add	a5,s3,s0
8000dc9c:	00a78023          	sb	a0,0(a5)
8000dca0:	00140413          	addi	s0,s0,1
8000dca4:	fe9446e3          	blt	s0,s1,8000dc90 <ttyread+0x58>
8000dca8:	01812403          	lw	s0,24(sp)
8000dcac:	01012903          	lw	s2,16(sp)
8000dcb0:	00c12983          	lw	s3,12(sp)
8000dcb4:	01c12083          	lw	ra,28(sp)
8000dcb8:	00048513          	mv	a0,s1
8000dcbc:	01412483          	lw	s1,20(sp)
8000dcc0:	02010113          	addi	sp,sp,32
8000dcc4:	00008067          	ret
8000dcc8:	02878513          	addi	a0,a5,40
8000dccc:	00a70533          	add	a0,a4,a0
8000dcd0:	155010ef          	jal	8000f624 <sem_count>
8000dcd4:	00050493          	mv	s1,a0
8000dcd8:	faa04ae3          	bgtz	a0,8000dc8c <ttyread+0x54>
8000dcdc:	01812403          	lw	s0,24(sp)
8000dce0:	01c12083          	lw	ra,28(sp)
8000dce4:	00000493          	li	s1,0
8000dce8:	01012903          	lw	s2,16(sp)
8000dcec:	00c12983          	lw	s3,12(sp)
8000dcf0:	00048513          	mv	a0,s1
8000dcf4:	01412483          	lw	s1,20(sp)
8000dcf8:	02010113          	addi	sp,sp,32
8000dcfc:	00008067          	ret
8000dd00:	f94ff0ef          	jal	8000d494 <ttygetc>
8000dd04:	ffe00793          	li	a5,-2
8000dd08:	00050493          	mv	s1,a0
8000dd0c:	f8f50ee3          	beq	a0,a5,8000dca8 <ttyread+0x70>
8000dd10:	0ff57493          	zext.b	s1,a0
8000dd14:	00998023          	sb	s1,0(s3)
8000dd18:	00100793          	li	a5,1
8000dd1c:	0687dc63          	bge	a5,s0,8000dd94 <ttyread+0x15c>
8000dd20:	00a00793          	li	a5,10
8000dd24:	06f48863          	beq	s1,a5,8000dd94 <ttyread+0x15c>
8000dd28:	00d00793          	li	a5,13
8000dd2c:	06f48463          	beq	s1,a5,8000dd94 <ttyread+0x15c>
8000dd30:	01412423          	sw	s4,8(sp)
8000dd34:	01512223          	sw	s5,4(sp)
8000dd38:	00100493          	li	s1,1
8000dd3c:	00a00a13          	li	s4,10
8000dd40:	00d00a93          	li	s5,13
8000dd44:	00c0006f          	j	8000dd50 <ttyread+0x118>
8000dd48:	03450263          	beq	a0,s4,8000dd6c <ttyread+0x134>
8000dd4c:	03550063          	beq	a0,s5,8000dd6c <ttyread+0x134>
8000dd50:	00090513          	mv	a0,s2
8000dd54:	f40ff0ef          	jal	8000d494 <ttygetc>
8000dd58:	009987b3          	add	a5,s3,s1
8000dd5c:	0ff57513          	zext.b	a0,a0
8000dd60:	00a78023          	sb	a0,0(a5)
8000dd64:	00148493          	addi	s1,s1,1
8000dd68:	fe9410e3          	bne	s0,s1,8000dd48 <ttyread+0x110>
8000dd6c:	01812403          	lw	s0,24(sp)
8000dd70:	01c12083          	lw	ra,28(sp)
8000dd74:	01012903          	lw	s2,16(sp)
8000dd78:	00c12983          	lw	s3,12(sp)
8000dd7c:	00812a03          	lw	s4,8(sp)
8000dd80:	00412a83          	lw	s5,4(sp)
8000dd84:	00048513          	mv	a0,s1
8000dd88:	01412483          	lw	s1,20(sp)
8000dd8c:	02010113          	addi	sp,sp,32
8000dd90:	00008067          	ret
8000dd94:	01812403          	lw	s0,24(sp)
8000dd98:	01012903          	lw	s2,16(sp)
8000dd9c:	00c12983          	lw	s3,12(sp)
8000dda0:	00100493          	li	s1,1
8000dda4:	f11ff06f          	j	8000dcb4 <ttyread+0x7c>
8000dda8:	fff00493          	li	s1,-1
8000ddac:	f09ff06f          	j	8000dcb4 <ttyread+0x7c>

8000ddb0 <ttywrite>:
8000ddb0:	04064c63          	bltz	a2,8000de08 <ttywrite+0x58>
8000ddb4:	ff010113          	addi	sp,sp,-16
8000ddb8:	00812423          	sw	s0,8(sp)
8000ddbc:	00912223          	sw	s1,4(sp)
8000ddc0:	01212023          	sw	s2,0(sp)
8000ddc4:	00112623          	sw	ra,12(sp)
8000ddc8:	00050493          	mv	s1,a0
8000ddcc:	00058413          	mv	s0,a1
8000ddd0:	00c58933          	add	s2,a1,a2
8000ddd4:	00060c63          	beqz	a2,8000ddec <ttywrite+0x3c>
8000ddd8:	00044583          	lbu	a1,0(s0)
8000dddc:	00048513          	mv	a0,s1
8000dde0:	00140413          	addi	s0,s0,1
8000dde4:	d5dff0ef          	jal	8000db40 <ttyputc>
8000dde8:	fe8918e3          	bne	s2,s0,8000ddd8 <ttywrite+0x28>
8000ddec:	00c12083          	lw	ra,12(sp)
8000ddf0:	00812403          	lw	s0,8(sp)
8000ddf4:	00412483          	lw	s1,4(sp)
8000ddf8:	00012903          	lw	s2,0(sp)
8000ddfc:	00100513          	li	a0,1
8000de00:	01010113          	addi	sp,sp,16
8000de04:	00008067          	ret
8000de08:	fff00513          	li	a0,-1
8000de0c:	00008067          	ret

8000de10 <clkhandler>:
8000de10:	ff010113          	addi	sp,sp,-16
8000de14:	00a00513          	li	a0,10
8000de18:	00000593          	li	a1,0
8000de1c:	00112623          	sw	ra,12(sp)
8000de20:	00812423          	sw	s0,8(sp)
8000de24:	00912223          	sw	s1,4(sp)
8000de28:	80012437          	lui	s0,0x80012
8000de2c:	2b0010ef          	jal	8000f0dc <clkupdate>
8000de30:	83c40513          	addi	a0,s0,-1988 # 8001183c <sleep_queue>
8000de34:	56c010ef          	jal	8000f3a0 <queue_peek>
8000de38:	800124b7          	lui	s1,0x80012
8000de3c:	8384a703          	lw	a4,-1992(s1) # 80011838 <sys_time>
8000de40:	00170713          	addi	a4,a4,1
8000de44:	82e4ac23          	sw	a4,-1992(s1)
8000de48:	02050c63          	beqz	a0,8000de80 <clkhandler+0x70>
8000de4c:	00050793          	mv	a5,a0
8000de50:	0240006f          	j	8000de74 <clkhandler+0x64>
8000de54:	528010ef          	jal	8000f37c <queue_pop>
8000de58:	02852503          	lw	a0,40(a0)
8000de5c:	630000ef          	jal	8000e48c <ready>
8000de60:	83c40513          	addi	a0,s0,-1988
8000de64:	53c010ef          	jal	8000f3a0 <queue_peek>
8000de68:	8384a703          	lw	a4,-1992(s1)
8000de6c:	00050793          	mv	a5,a0
8000de70:	00050863          	beqz	a0,8000de80 <clkhandler+0x70>
8000de74:	0307a783          	lw	a5,48(a5)
8000de78:	83c40513          	addi	a0,s0,-1988
8000de7c:	fce7ece3          	bltu	a5,a4,8000de54 <clkhandler+0x44>
8000de80:	800126b7          	lui	a3,0x80012
8000de84:	8446a783          	lw	a5,-1980(a3) # 80011844 <preempt>
8000de88:	00a78793          	addi	a5,a5,10
8000de8c:	00f77c63          	bgeu	a4,a5,8000dea4 <clkhandler+0x94>
8000de90:	00c12083          	lw	ra,12(sp)
8000de94:	00812403          	lw	s0,8(sp)
8000de98:	00412483          	lw	s1,4(sp)
8000de9c:	01010113          	addi	sp,sp,16
8000dea0:	00008067          	ret
8000dea4:	00812403          	lw	s0,8(sp)
8000dea8:	00c12083          	lw	ra,12(sp)
8000deac:	00412483          	lw	s1,4(sp)
8000deb0:	84e6a223          	sw	a4,-1980(a3)
8000deb4:	01010113          	addi	sp,sp,16
8000deb8:	2140006f          	j	8000e0cc <resched>

8000debc <clkinit>:
8000debc:	80012537          	lui	a0,0x80012
8000dec0:	ff010113          	addi	sp,sp,-16
8000dec4:	83c50513          	addi	a0,a0,-1988 # 8001183c <sleep_queue>
8000dec8:	00112623          	sw	ra,12(sp)
8000decc:	418010ef          	jal	8000f2e4 <queue_init>
8000ded0:	800127b7          	lui	a5,0x80012
8000ded4:	00a00713          	li	a4,10
8000ded8:	00c12083          	lw	ra,12(sp)
8000dedc:	84e7a223          	sw	a4,-1980(a5) # 80011844 <preempt>
8000dee0:	800127b7          	lui	a5,0x80012
8000dee4:	8407a823          	sw	zero,-1968(a5) # 80011850 <clktime>
8000dee8:	800127b7          	lui	a5,0x80012
8000deec:	8407a623          	sw	zero,-1972(a5) # 8001184c <count1000>
8000def0:	01010113          	addi	sp,sp,16
8000def4:	00008067          	ret

8000def8 <create>:
8000def8:	fc010113          	addi	sp,sp,-64
8000defc:	02f12a23          	sw	a5,52(sp)
8000df00:	03012c23          	sw	a6,56(sp)
8000df04:	02112623          	sw	ra,44(sp)
8000df08:	03112e23          	sw	a7,60(sp)
8000df0c:	02812423          	sw	s0,40(sp)
8000df10:	03212023          	sw	s2,32(sp)
8000df14:	00068413          	mv	s0,a3
8000df18:	00058913          	mv	s2,a1
8000df1c:	01312e23          	sw	s3,28(sp)
8000df20:	01412c23          	sw	s4,24(sp)
8000df24:	01512a23          	sw	s5,20(sp)
8000df28:	01612823          	sw	s6,16(sp)
8000df2c:	00070a93          	mv	s5,a4
8000df30:	02912223          	sw	s1,36(sp)
8000df34:	00050a13          	mv	s4,a0
8000df38:	a50f20ef          	jal	80000188 <disable>
8000df3c:	00050993          	mv	s3,a0
8000df40:	00090513          	mv	a0,s2
8000df44:	cb0f40ef          	jal	800023f4 <malloc>
8000df48:	00090613          	mv	a2,s2
8000df4c:	00000593          	li	a1,0
8000df50:	00050b13          	mv	s6,a0
8000df54:	f4df40ef          	jal	80002ea0 <memset>
8000df58:	80012737          	lui	a4,0x80012
8000df5c:	85872783          	lw	a5,-1960(a4) # 80011858 <prcount>
8000df60:	80012337          	lui	t1,0x80012
8000df64:	85432603          	lw	a2,-1964(t1) # 80011854 <nextpid.0>
8000df68:	00178793          	addi	a5,a5,1
8000df6c:	800115b7          	lui	a1,0x80011
8000df70:	84f72c23          	sw	a5,-1960(a4)
8000df74:	00a00813          	li	a6,10
8000df78:	4e058593          	addi	a1,a1,1248 # 800114e0 <proctab>
8000df7c:	00a00513          	li	a0,10
8000df80:	02a664b3          	rem	s1,a2,a0
8000df84:	fff80813          	addi	a6,a6,-1
8000df88:	00349693          	slli	a3,s1,0x3
8000df8c:	009687b3          	add	a5,a3,s1
8000df90:	00379793          	slli	a5,a5,0x3
8000df94:	00f58733          	add	a4,a1,a5
8000df98:	00075883          	lhu	a7,0(a4)
8000df9c:	00148613          	addi	a2,s1,1
8000dfa0:	02088a63          	beqz	a7,8000dfd4 <create+0xdc>
8000dfa4:	fc081ee3          	bnez	a6,8000df80 <create+0x88>
8000dfa8:	84c32a23          	sw	a2,-1964(t1)
8000dfac:	80010537          	lui	a0,0x80010
8000dfb0:	00040593          	mv	a1,s0
8000dfb4:	68850513          	addi	a0,a0,1672 # 80010688 <_ctype_+0x81c>
8000dfb8:	18c010ef          	jal	8000f144 <kprintf>
8000dfbc:	000b0513          	mv	a0,s6
8000dfc0:	a64f40ef          	jal	80002224 <free>
8000dfc4:	00098513          	mv	a0,s3
8000dfc8:	9c8f20ef          	jal	80000190 <restore>
8000dfcc:	fff00493          	li	s1,-1
8000dfd0:	0c00006f          	j	8000e090 <create+0x198>
8000dfd4:	84c32a23          	sw	a2,-1964(t1)
8000dfd8:	fff00613          	li	a2,-1
8000dfdc:	fcc488e3          	beq	s1,a2,8000dfac <create+0xb4>
8000dfe0:	80012637          	lui	a2,0x80012
8000dfe4:	86462603          	lw	a2,-1948(a2) # 80011864 <active_task>
8000dfe8:	02070d23          	sb	zero,58(a4)
8000dfec:	02972423          	sw	s1,40(a4)
8000dff0:	00070123          	sb	zero,2(a4)
8000dff4:	02862603          	lw	a2,40(a2)
8000dff8:	01478793          	addi	a5,a5,20
8000dffc:	01672623          	sw	s6,12(a4)
8000e000:	02c72623          	sw	a2,44(a4)
8000e004:	00500613          	li	a2,5
8000e008:	00c71023          	sh	a2,0(a4)
8000e00c:	01272823          	sw	s2,16(a4)
8000e010:	020703a3          	sb	zero,39(a4)
8000e014:	00040813          	mv	a6,s0
8000e018:	00f587b3          	add	a5,a1,a5
8000e01c:	01340713          	addi	a4,s0,19
8000e020:	0080006f          	j	8000e028 <create+0x130>
8000e024:	01070c63          	beq	a4,a6,8000e03c <create+0x144>
8000e028:	00084883          	lbu	a7,0(a6)
8000e02c:	00178793          	addi	a5,a5,1
8000e030:	00180813          	addi	a6,a6,1
8000e034:	ff178fa3          	sb	a7,-1(a5)
8000e038:	fe0896e3          	bnez	a7,8000e024 <create+0x12c>
8000e03c:	009686b3          	add	a3,a3,s1
8000e040:	800117b7          	lui	a5,0x80011
8000e044:	00369693          	slli	a3,a3,0x3
8000e048:	4e478793          	addi	a5,a5,1252 # 800114e4 <proctab+0x4>
8000e04c:	00d787b3          	add	a5,a5,a3
8000e050:	0207a823          	sw	zero,48(a5)
8000e054:	00d58433          	add	s0,a1,a3
8000e058:	00291513          	slli	a0,s2,0x2
8000e05c:	8000e637          	lui	a2,0x8000e
8000e060:	03410713          	addi	a4,sp,52
8000e064:	02041c23          	sh	zero,56(s0)
8000e068:	000a8693          	mv	a3,s5
8000e06c:	34860613          	addi	a2,a2,840 # 8000e348 <userret>
8000e070:	000a0593          	mv	a1,s4
8000e074:	00ab0533          	add	a0,s6,a0
8000e078:	00e12623          	sw	a4,12(sp)
8000e07c:	5f4010ef          	jal	8000f670 <setupStack>
8000e080:	00050793          	mv	a5,a0
8000e084:	00f42423          	sw	a5,8(s0)
8000e088:	00098513          	mv	a0,s3
8000e08c:	904f20ef          	jal	80000190 <restore>
8000e090:	02c12083          	lw	ra,44(sp)
8000e094:	02812403          	lw	s0,40(sp)
8000e098:	02012903          	lw	s2,32(sp)
8000e09c:	01c12983          	lw	s3,28(sp)
8000e0a0:	01812a03          	lw	s4,24(sp)
8000e0a4:	01412a83          	lw	s5,20(sp)
8000e0a8:	01012b03          	lw	s6,16(sp)
8000e0ac:	00048513          	mv	a0,s1
8000e0b0:	02412483          	lw	s1,36(sp)
8000e0b4:	04010113          	addi	sp,sp,64
8000e0b8:	00008067          	ret

8000e0bc <getpid>:
8000e0bc:	800127b7          	lui	a5,0x80012
8000e0c0:	8647a783          	lw	a5,-1948(a5) # 80011864 <active_task>
8000e0c4:	0287a503          	lw	a0,40(a5)
8000e0c8:	00008067          	ret

8000e0cc <resched>:
8000e0cc:	ff010113          	addi	sp,sp,-16
8000e0d0:	00912223          	sw	s1,4(sp)
8000e0d4:	800124b7          	lui	s1,0x80012
8000e0d8:	00812423          	sw	s0,8(sp)
8000e0dc:	8644a403          	lw	s0,-1948(s1) # 80011864 <active_task>
8000e0e0:	01212023          	sw	s2,0(sp)
8000e0e4:	00112623          	sw	ra,12(sp)
8000e0e8:	00045703          	lhu	a4,0(s0)
8000e0ec:	00100793          	li	a5,1
8000e0f0:	80012937          	lui	s2,0x80012
8000e0f4:	04f70463          	beq	a4,a5,8000e13c <resched+0x70>
8000e0f8:	85c90513          	addi	a0,s2,-1956 # 8001185c <ready_queue>
8000e0fc:	280010ef          	jal	8000f37c <queue_pop>
8000e100:	86a4a223          	sw	a0,-1948(s1)
8000e104:	00100793          	li	a5,1
8000e108:	00f51023          	sh	a5,0(a0)
8000e10c:	00850593          	addi	a1,a0,8
8000e110:	00840513          	addi	a0,s0,8
8000e114:	00812403          	lw	s0,8(sp)
8000e118:	00c12083          	lw	ra,12(sp)
8000e11c:	00412483          	lw	s1,4(sp)
8000e120:	00012903          	lw	s2,0(sp)
8000e124:	800127b7          	lui	a5,0x80012
8000e128:	00a00713          	li	a4,10
8000e12c:	84e7a223          	sw	a4,-1980(a5) # 80011844 <preempt>
8000e130:	00000613          	li	a2,0
8000e134:	01010113          	addi	sp,sp,16
8000e138:	8b0f206f          	j	800001e8 <ctxsw>
8000e13c:	00200793          	li	a5,2
8000e140:	00f41023          	sh	a5,0(s0)
8000e144:	00040593          	mv	a1,s0
8000e148:	85c90513          	addi	a0,s2,-1956
8000e14c:	1a4010ef          	jal	8000f2f0 <queue_push>
8000e150:	fa9ff06f          	j	8000e0f8 <resched+0x2c>

8000e154 <yield>:
8000e154:	ff010113          	addi	sp,sp,-16
8000e158:	00112623          	sw	ra,12(sp)
8000e15c:	f71ff0ef          	jal	8000e0cc <resched>
8000e160:	00c12083          	lw	ra,12(sp)
8000e164:	00100513          	li	a0,1
8000e168:	01010113          	addi	sp,sp,16
8000e16c:	00008067          	ret

8000e170 <kill>:
8000e170:	fc010113          	addi	sp,sp,-64
8000e174:	03212823          	sw	s2,48(sp)
8000e178:	00050913          	mv	s2,a0
8000e17c:	02812c23          	sw	s0,56(sp)
8000e180:	00391413          	slli	s0,s2,0x3
8000e184:	02112e23          	sw	ra,60(sp)
8000e188:	02912a23          	sw	s1,52(sp)
8000e18c:	03312623          	sw	s3,44(sp)
8000e190:	03412423          	sw	s4,40(sp)
8000e194:	012404b3          	add	s1,s0,s2
8000e198:	ff1f10ef          	jal	80000188 <disable>
8000e19c:	80011a37          	lui	s4,0x80011
8000e1a0:	4e0a0a13          	addi	s4,s4,1248 # 800114e0 <proctab>
8000e1a4:	00349493          	slli	s1,s1,0x3
8000e1a8:	800117b7          	lui	a5,0x80011
8000e1ac:	d6078793          	addi	a5,a5,-672 # 80010d60 <cmdtab+0x130>
8000e1b0:	009a04b3          	add	s1,s4,s1
8000e1b4:	0147a703          	lw	a4,20(a5)
8000e1b8:	0007a883          	lw	a7,0(a5)
8000e1bc:	0047a803          	lw	a6,4(a5)
8000e1c0:	0087a583          	lw	a1,8(a5)
8000e1c4:	00c7a603          	lw	a2,12(a5)
8000e1c8:	0107a683          	lw	a3,16(a5)
8000e1cc:	00050993          	mv	s3,a0
8000e1d0:	0187a783          	lw	a5,24(a5)
8000e1d4:	00c4a503          	lw	a0,12(s1)
8000e1d8:	00e12c23          	sw	a4,24(sp)
8000e1dc:	00f12e23          	sw	a5,28(sp)
8000e1e0:	01112223          	sw	a7,4(sp)
8000e1e4:	01012423          	sw	a6,8(sp)
8000e1e8:	00b12623          	sw	a1,12(sp)
8000e1ec:	00c12823          	sw	a2,16(sp)
8000e1f0:	00d12a23          	sw	a3,20(sp)
8000e1f4:	830f40ef          	jal	80002224 <free>
8000e1f8:	03a4c703          	lbu	a4,58(s1)
8000e1fc:	00100793          	li	a5,1
8000e200:	12f70863          	beq	a4,a5,8000e330 <kill+0x1c0>
8000e204:	01240433          	add	s0,s0,s2
8000e208:	00341413          	slli	s0,s0,0x3
8000e20c:	008a04b3          	add	s1,s4,s0
8000e210:	0004d903          	lhu	s2,0(s1)
8000e214:	00200793          	li	a5,2
8000e218:	0cf90463          	beq	s2,a5,8000e2e0 <kill+0x170>
8000e21c:	00400793          	li	a5,4
8000e220:	06f90463          	beq	s2,a5,8000e288 <kill+0x118>
8000e224:	00100793          	li	a5,1
8000e228:	02f90663          	beq	s2,a5,8000e254 <kill+0xe4>
8000e22c:	00291913          	slli	s2,s2,0x2
8000e230:	02090793          	addi	a5,s2,32
8000e234:	00278933          	add	s2,a5,sp
8000e238:	fe492683          	lw	a3,-28(s2)
8000e23c:	0284a583          	lw	a1,40(s1)
8000e240:	01440413          	addi	s0,s0,20
8000e244:	80010537          	lui	a0,0x80010
8000e248:	008a0633          	add	a2,s4,s0
8000e24c:	69c50513          	addi	a0,a0,1692 # 8001069c <_ctype_+0x830>
8000e250:	6f5000ef          	jal	8000f144 <kprintf>
8000e254:	00049023          	sh	zero,0(s1)
8000e258:	00098513          	mv	a0,s3
8000e25c:	f35f10ef          	jal	80000190 <restore>
8000e260:	e6dff0ef          	jal	8000e0cc <resched>
8000e264:	03c12083          	lw	ra,60(sp)
8000e268:	03812403          	lw	s0,56(sp)
8000e26c:	03412483          	lw	s1,52(sp)
8000e270:	03012903          	lw	s2,48(sp)
8000e274:	02c12983          	lw	s3,44(sp)
8000e278:	02812a03          	lw	s4,40(sp)
8000e27c:	00100513          	li	a0,1
8000e280:	04010113          	addi	sp,sp,64
8000e284:	00008067          	ret
8000e288:	80012a37          	lui	s4,0x80012
8000e28c:	83ca0513          	addi	a0,s4,-1988 # 8001183c <sleep_queue>
8000e290:	03512223          	sw	s5,36(sp)
8000e294:	10c010ef          	jal	8000f3a0 <queue_peek>
8000e298:	00055783          	lhu	a5,0(a0)
8000e29c:	00400a93          	li	s5,4
8000e2a0:	01278a63          	beq	a5,s2,8000e2b4 <kill+0x144>
8000e2a4:	09c0006f          	j	8000e340 <kill+0x1d0>
8000e2a8:	048010ef          	jal	8000f2f0 <queue_push>
8000e2ac:	00045783          	lhu	a5,0(s0)
8000e2b0:	09579863          	bne	a5,s5,8000e340 <kill+0x1d0>
8000e2b4:	83ca0513          	addi	a0,s4,-1988
8000e2b8:	0c4010ef          	jal	8000f37c <queue_pop>
8000e2bc:	00050413          	mv	s0,a0
8000e2c0:	02842703          	lw	a4,40(s0)
8000e2c4:	0284a783          	lw	a5,40(s1)
8000e2c8:	83ca0513          	addi	a0,s4,-1988
8000e2cc:	00040593          	mv	a1,s0
8000e2d0:	fcf71ce3          	bne	a4,a5,8000e2a8 <kill+0x138>
8000e2d4:	02412a83          	lw	s5,36(sp)
8000e2d8:	00041023          	sh	zero,0(s0)
8000e2dc:	f7dff06f          	j	8000e258 <kill+0xe8>
8000e2e0:	80012a37          	lui	s4,0x80012
8000e2e4:	85ca0513          	addi	a0,s4,-1956 # 8001185c <ready_queue>
8000e2e8:	0b8010ef          	jal	8000f3a0 <queue_peek>
8000e2ec:	00055783          	lhu	a5,0(a0)
8000e2f0:	f72794e3          	bne	a5,s2,8000e258 <kill+0xe8>
8000e2f4:	00200913          	li	s2,2
8000e2f8:	0100006f          	j	8000e308 <kill+0x198>
8000e2fc:	7f5000ef          	jal	8000f2f0 <queue_push>
8000e300:	00045783          	lhu	a5,0(s0)
8000e304:	f5279ae3          	bne	a5,s2,8000e258 <kill+0xe8>
8000e308:	85ca0513          	addi	a0,s4,-1956
8000e30c:	070010ef          	jal	8000f37c <queue_pop>
8000e310:	00050413          	mv	s0,a0
8000e314:	02842703          	lw	a4,40(s0)
8000e318:	0284a783          	lw	a5,40(s1)
8000e31c:	85ca0513          	addi	a0,s4,-1956
8000e320:	00040593          	mv	a1,s0
8000e324:	fcf71ce3          	bne	a4,a5,8000e2fc <kill+0x18c>
8000e328:	00041023          	sh	zero,0(s0)
8000e32c:	f2dff06f          	j	8000e258 <kill+0xe8>
8000e330:	03c4a503          	lw	a0,60(s1)
8000e334:	ef1f30ef          	jal	80002224 <free>
8000e338:	02048d23          	sb	zero,58(s1)
8000e33c:	ec9ff06f          	j	8000e204 <kill+0x94>
8000e340:	02412a83          	lw	s5,36(sp)
8000e344:	f15ff06f          	j	8000e258 <kill+0xe8>

8000e348 <userret>:
8000e348:	800127b7          	lui	a5,0x80012
8000e34c:	8647a783          	lw	a5,-1948(a5) # 80011864 <active_task>
8000e350:	0287a503          	lw	a0,40(a5)
8000e354:	e1dff06f          	j	8000e170 <kill>

8000e358 <sleep>:
8000e358:	ff010113          	addi	sp,sp,-16
8000e35c:	00812423          	sw	s0,8(sp)
8000e360:	00912223          	sw	s1,4(sp)
8000e364:	00112623          	sw	ra,12(sp)
8000e368:	00050413          	mv	s0,a0
8000e36c:	e1df10ef          	jal	80000188 <disable>
8000e370:	00050493          	mv	s1,a0
8000e374:	02041463          	bnez	s0,8000e39c <sleep+0x44>
8000e378:	00048513          	mv	a0,s1
8000e37c:	e15f10ef          	jal	80000190 <restore>
8000e380:	d4dff0ef          	jal	8000e0cc <resched>
8000e384:	00c12083          	lw	ra,12(sp)
8000e388:	00812403          	lw	s0,8(sp)
8000e38c:	00412483          	lw	s1,4(sp)
8000e390:	00100513          	li	a0,1
8000e394:	01010113          	addi	sp,sp,16
8000e398:	00008067          	ret
8000e39c:	800127b7          	lui	a5,0x80012
8000e3a0:	8387a783          	lw	a5,-1992(a5) # 80011838 <sys_time>
8000e3a4:	80012737          	lui	a4,0x80012
8000e3a8:	86472583          	lw	a1,-1948(a4) # 80011864 <active_task>
8000e3ac:	008787b3          	add	a5,a5,s0
8000e3b0:	00400713          	li	a4,4
8000e3b4:	80012537          	lui	a0,0x80012
8000e3b8:	00e59023          	sh	a4,0(a1)
8000e3bc:	02f5a823          	sw	a5,48(a1)
8000e3c0:	83c50513          	addi	a0,a0,-1988 # 8001183c <sleep_queue>
8000e3c4:	759000ef          	jal	8000f31c <queue_pushsort>
8000e3c8:	fb1ff06f          	j	8000e378 <sleep+0x20>

8000e3cc <resume>:
8000e3cc:	ff010113          	addi	sp,sp,-16
8000e3d0:	00812423          	sw	s0,8(sp)
8000e3d4:	00912223          	sw	s1,4(sp)
8000e3d8:	00112623          	sw	ra,12(sp)
8000e3dc:	00050413          	mv	s0,a0
8000e3e0:	da9f10ef          	jal	80000188 <disable>
8000e3e4:	00900793          	li	a5,9
8000e3e8:	00050493          	mv	s1,a0
8000e3ec:	0887e063          	bltu	a5,s0,8000e46c <resume+0xa0>
8000e3f0:	00341793          	slli	a5,s0,0x3
8000e3f4:	008787b3          	add	a5,a5,s0
8000e3f8:	800115b7          	lui	a1,0x80011
8000e3fc:	00379793          	slli	a5,a5,0x3
8000e400:	4e058593          	addi	a1,a1,1248 # 800114e0 <proctab>
8000e404:	00f585b3          	add	a1,a1,a5
8000e408:	0005d783          	lhu	a5,0(a1)
8000e40c:	06078063          	beqz	a5,8000e46c <resume+0xa0>
8000e410:	00500713          	li	a4,5
8000e414:	02e79e63          	bne	a5,a4,8000e450 <resume+0x84>
8000e418:	00200793          	li	a5,2
8000e41c:	80012537          	lui	a0,0x80012
8000e420:	00f59023          	sh	a5,0(a1)
8000e424:	85c50513          	addi	a0,a0,-1956 # 8001185c <ready_queue>
8000e428:	6c9000ef          	jal	8000f2f0 <queue_push>
8000e42c:	00048513          	mv	a0,s1
8000e430:	d61f10ef          	jal	80000190 <restore>
8000e434:	c99ff0ef          	jal	8000e0cc <resched>
8000e438:	00c12083          	lw	ra,12(sp)
8000e43c:	00812403          	lw	s0,8(sp)
8000e440:	00412483          	lw	s1,4(sp)
8000e444:	fff00513          	li	a0,-1
8000e448:	01010113          	addi	sp,sp,16
8000e44c:	00008067          	ret
8000e450:	d41f10ef          	jal	80000190 <restore>
8000e454:	00c12083          	lw	ra,12(sp)
8000e458:	00812403          	lw	s0,8(sp)
8000e45c:	00412483          	lw	s1,4(sp)
8000e460:	fff00513          	li	a0,-1
8000e464:	01010113          	addi	sp,sp,16
8000e468:	00008067          	ret
8000e46c:	00048513          	mv	a0,s1
8000e470:	d21f10ef          	jal	80000190 <restore>
8000e474:	00c12083          	lw	ra,12(sp)
8000e478:	00812403          	lw	s0,8(sp)
8000e47c:	00412483          	lw	s1,4(sp)
8000e480:	fff00513          	li	a0,-1
8000e484:	01010113          	addi	sp,sp,16
8000e488:	00008067          	ret

8000e48c <ready>:
8000e48c:	00900793          	li	a5,9
8000e490:	04a7ec63          	bltu	a5,a0,8000e4e8 <ready+0x5c>
8000e494:	00351793          	slli	a5,a0,0x3
8000e498:	00a787b3          	add	a5,a5,a0
8000e49c:	800115b7          	lui	a1,0x80011
8000e4a0:	00379793          	slli	a5,a5,0x3
8000e4a4:	4e058593          	addi	a1,a1,1248 # 800114e0 <proctab>
8000e4a8:	00f585b3          	add	a1,a1,a5
8000e4ac:	0005d783          	lhu	a5,0(a1)
8000e4b0:	fff00513          	li	a0,-1
8000e4b4:	00079463          	bnez	a5,8000e4bc <ready+0x30>
8000e4b8:	00008067          	ret
8000e4bc:	ff010113          	addi	sp,sp,-16
8000e4c0:	00112623          	sw	ra,12(sp)
8000e4c4:	00200793          	li	a5,2
8000e4c8:	80012537          	lui	a0,0x80012
8000e4cc:	85c50513          	addi	a0,a0,-1956 # 8001185c <ready_queue>
8000e4d0:	00f59023          	sh	a5,0(a1)
8000e4d4:	61d000ef          	jal	8000f2f0 <queue_push>
8000e4d8:	00c12083          	lw	ra,12(sp)
8000e4dc:	00100513          	li	a0,1
8000e4e0:	01010113          	addi	sp,sp,16
8000e4e4:	00008067          	ret
8000e4e8:	fff00513          	li	a0,-1
8000e4ec:	00008067          	ret

8000e4f0 <exit>:
8000e4f0:	800127b7          	lui	a5,0x80012
8000e4f4:	8647a783          	lw	a5,-1948(a5) # 80011864 <active_task>
8000e4f8:	0287a503          	lw	a0,40(a5)
8000e4fc:	c75ff06f          	j	8000e170 <kill>

8000e500 <readSector>:
8000e500:	fe010113          	addi	sp,sp,-32
8000e504:	00812c23          	sw	s0,24(sp)
8000e508:	00912a23          	sw	s1,20(sp)
8000e50c:	01212823          	sw	s2,16(sp)
8000e510:	01312623          	sw	s3,12(sp)
8000e514:	00112e23          	sw	ra,28(sp)
8000e518:	00050413          	mv	s0,a0
8000e51c:	00058493          	mv	s1,a1
8000e520:	00060913          	mv	s2,a2
8000e524:	00068993          	mv	s3,a3
8000e528:	c61f10ef          	jal	80000188 <disable>
8000e52c:	00200793          	li	a5,2
8000e530:	0687e263          	bltu	a5,s0,8000e594 <readSector+0x94>
8000e534:	04c00793          	li	a5,76
8000e538:	02f40433          	mul	s0,s0,a5
8000e53c:	800117b7          	lui	a5,0x80011
8000e540:	e2c78793          	addi	a5,a5,-468 # 80010e2c <devtab>
8000e544:	01412423          	sw	s4,8(sp)
8000e548:	00050a13          	mv	s4,a0
8000e54c:	00098693          	mv	a3,s3
8000e550:	00090613          	mv	a2,s2
8000e554:	00048593          	mv	a1,s1
8000e558:	00f40533          	add	a0,s0,a5
8000e55c:	04452783          	lw	a5,68(a0)
8000e560:	000780e7          	jalr	a5
8000e564:	00050413          	mv	s0,a0
8000e568:	000a0513          	mv	a0,s4
8000e56c:	c25f10ef          	jal	80000190 <restore>
8000e570:	00812a03          	lw	s4,8(sp)
8000e574:	01c12083          	lw	ra,28(sp)
8000e578:	00040513          	mv	a0,s0
8000e57c:	01812403          	lw	s0,24(sp)
8000e580:	01412483          	lw	s1,20(sp)
8000e584:	01012903          	lw	s2,16(sp)
8000e588:	00c12983          	lw	s3,12(sp)
8000e58c:	02010113          	addi	sp,sp,32
8000e590:	00008067          	ret
8000e594:	bfdf10ef          	jal	80000190 <restore>
8000e598:	fff00413          	li	s0,-1
8000e59c:	fd9ff06f          	j	8000e574 <readSector+0x74>

8000e5a0 <writeSector>:
8000e5a0:	fe010113          	addi	sp,sp,-32
8000e5a4:	00812c23          	sw	s0,24(sp)
8000e5a8:	00912a23          	sw	s1,20(sp)
8000e5ac:	01212823          	sw	s2,16(sp)
8000e5b0:	01312623          	sw	s3,12(sp)
8000e5b4:	00112e23          	sw	ra,28(sp)
8000e5b8:	00050413          	mv	s0,a0
8000e5bc:	00058493          	mv	s1,a1
8000e5c0:	00060913          	mv	s2,a2
8000e5c4:	00068993          	mv	s3,a3
8000e5c8:	bc1f10ef          	jal	80000188 <disable>
8000e5cc:	00200793          	li	a5,2
8000e5d0:	0687e263          	bltu	a5,s0,8000e634 <writeSector+0x94>
8000e5d4:	04c00793          	li	a5,76
8000e5d8:	02f40433          	mul	s0,s0,a5
8000e5dc:	800117b7          	lui	a5,0x80011
8000e5e0:	e2c78793          	addi	a5,a5,-468 # 80010e2c <devtab>
8000e5e4:	01412423          	sw	s4,8(sp)
8000e5e8:	00050a13          	mv	s4,a0
8000e5ec:	00098693          	mv	a3,s3
8000e5f0:	00090613          	mv	a2,s2
8000e5f4:	00048593          	mv	a1,s1
8000e5f8:	00f40533          	add	a0,s0,a5
8000e5fc:	04852783          	lw	a5,72(a0)
8000e600:	000780e7          	jalr	a5
8000e604:	00050413          	mv	s0,a0
8000e608:	000a0513          	mv	a0,s4
8000e60c:	b85f10ef          	jal	80000190 <restore>
8000e610:	00812a03          	lw	s4,8(sp)
8000e614:	01c12083          	lw	ra,28(sp)
8000e618:	00040513          	mv	a0,s0
8000e61c:	01812403          	lw	s0,24(sp)
8000e620:	01412483          	lw	s1,20(sp)
8000e624:	01012903          	lw	s2,16(sp)
8000e628:	00c12983          	lw	s3,12(sp)
8000e62c:	02010113          	addi	sp,sp,32
8000e630:	00008067          	ret
8000e634:	b5df10ef          	jal	80000190 <restore>
8000e638:	fff00413          	li	s0,-1
8000e63c:	fd9ff06f          	j	8000e614 <writeSector+0x74>

8000e640 <set>:
8000e640:	ff010113          	addi	sp,sp,-16
8000e644:	00812423          	sw	s0,8(sp)
8000e648:	01212023          	sw	s2,0(sp)
8000e64c:	00112623          	sw	ra,12(sp)
8000e650:	00050413          	mv	s0,a0
8000e654:	00058913          	mv	s2,a1
8000e658:	b31f10ef          	jal	80000188 <disable>
8000e65c:	00200793          	li	a5,2
8000e660:	0487ea63          	bltu	a5,s0,8000e6b4 <set+0x74>
8000e664:	04c00793          	li	a5,76
8000e668:	02f40433          	mul	s0,s0,a5
8000e66c:	800117b7          	lui	a5,0x80011
8000e670:	e2c78793          	addi	a5,a5,-468 # 80010e2c <devtab>
8000e674:	00912223          	sw	s1,4(sp)
8000e678:	00050493          	mv	s1,a0
8000e67c:	012035b3          	snez	a1,s2
8000e680:	00f40533          	add	a0,s0,a5
8000e684:	03c52783          	lw	a5,60(a0)
8000e688:	000780e7          	jalr	a5
8000e68c:	00050413          	mv	s0,a0
8000e690:	00048513          	mv	a0,s1
8000e694:	afdf10ef          	jal	80000190 <restore>
8000e698:	00412483          	lw	s1,4(sp)
8000e69c:	00c12083          	lw	ra,12(sp)
8000e6a0:	00040513          	mv	a0,s0
8000e6a4:	00812403          	lw	s0,8(sp)
8000e6a8:	00012903          	lw	s2,0(sp)
8000e6ac:	01010113          	addi	sp,sp,16
8000e6b0:	00008067          	ret
8000e6b4:	addf10ef          	jal	80000190 <restore>
8000e6b8:	fff00413          	li	s0,-1
8000e6bc:	fe1ff06f          	j	8000e69c <set+0x5c>

8000e6c0 <toggle>:
8000e6c0:	ff010113          	addi	sp,sp,-16
8000e6c4:	00812423          	sw	s0,8(sp)
8000e6c8:	00112623          	sw	ra,12(sp)
8000e6cc:	00050413          	mv	s0,a0
8000e6d0:	ab9f10ef          	jal	80000188 <disable>
8000e6d4:	00200793          	li	a5,2
8000e6d8:	0487e663          	bltu	a5,s0,8000e724 <toggle+0x64>
8000e6dc:	04c00793          	li	a5,76
8000e6e0:	02f40433          	mul	s0,s0,a5
8000e6e4:	800117b7          	lui	a5,0x80011
8000e6e8:	e2c78793          	addi	a5,a5,-468 # 80010e2c <devtab>
8000e6ec:	00912223          	sw	s1,4(sp)
8000e6f0:	00050493          	mv	s1,a0
8000e6f4:	00f40533          	add	a0,s0,a5
8000e6f8:	04052783          	lw	a5,64(a0)
8000e6fc:	000780e7          	jalr	a5
8000e700:	00050413          	mv	s0,a0
8000e704:	00048513          	mv	a0,s1
8000e708:	a89f10ef          	jal	80000190 <restore>
8000e70c:	00412483          	lw	s1,4(sp)
8000e710:	00c12083          	lw	ra,12(sp)
8000e714:	00040513          	mv	a0,s0
8000e718:	00812403          	lw	s0,8(sp)
8000e71c:	01010113          	addi	sp,sp,16
8000e720:	00008067          	ret
8000e724:	a6df10ef          	jal	80000190 <restore>
8000e728:	fff00413          	li	s0,-1
8000e72c:	fe5ff06f          	j	8000e710 <toggle+0x50>

8000e730 <init>:
8000e730:	ff010113          	addi	sp,sp,-16
8000e734:	00812423          	sw	s0,8(sp)
8000e738:	00112623          	sw	ra,12(sp)
8000e73c:	00050413          	mv	s0,a0
8000e740:	a49f10ef          	jal	80000188 <disable>
8000e744:	00200793          	li	a5,2
8000e748:	0487e663          	bltu	a5,s0,8000e794 <init+0x64>
8000e74c:	04c00793          	li	a5,76
8000e750:	02f40433          	mul	s0,s0,a5
8000e754:	800117b7          	lui	a5,0x80011
8000e758:	e2c78793          	addi	a5,a5,-468 # 80010e2c <devtab>
8000e75c:	00912223          	sw	s1,4(sp)
8000e760:	00050493          	mv	s1,a0
8000e764:	00f40533          	add	a0,s0,a5
8000e768:	00c52783          	lw	a5,12(a0)
8000e76c:	000780e7          	jalr	a5
8000e770:	00050413          	mv	s0,a0
8000e774:	00048513          	mv	a0,s1
8000e778:	a19f10ef          	jal	80000190 <restore>
8000e77c:	00412483          	lw	s1,4(sp)
8000e780:	00c12083          	lw	ra,12(sp)
8000e784:	00040513          	mv	a0,s0
8000e788:	00812403          	lw	s0,8(sp)
8000e78c:	01010113          	addi	sp,sp,16
8000e790:	00008067          	ret
8000e794:	9fdf10ef          	jal	80000190 <restore>
8000e798:	fff00413          	li	s0,-1
8000e79c:	fe5ff06f          	j	8000e780 <init+0x50>

8000e7a0 <close>:
8000e7a0:	ff010113          	addi	sp,sp,-16
8000e7a4:	00812423          	sw	s0,8(sp)
8000e7a8:	00112623          	sw	ra,12(sp)
8000e7ac:	00050413          	mv	s0,a0
8000e7b0:	9d9f10ef          	jal	80000188 <disable>
8000e7b4:	00200793          	li	a5,2
8000e7b8:	0487e663          	bltu	a5,s0,8000e804 <close+0x64>
8000e7bc:	04c00793          	li	a5,76
8000e7c0:	02f40433          	mul	s0,s0,a5
8000e7c4:	800117b7          	lui	a5,0x80011
8000e7c8:	e2c78793          	addi	a5,a5,-468 # 80010e2c <devtab>
8000e7cc:	00912223          	sw	s1,4(sp)
8000e7d0:	00050493          	mv	s1,a0
8000e7d4:	00f40533          	add	a0,s0,a5
8000e7d8:	01452783          	lw	a5,20(a0)
8000e7dc:	000780e7          	jalr	a5
8000e7e0:	00050413          	mv	s0,a0
8000e7e4:	00048513          	mv	a0,s1
8000e7e8:	9a9f10ef          	jal	80000190 <restore>
8000e7ec:	00412483          	lw	s1,4(sp)
8000e7f0:	00c12083          	lw	ra,12(sp)
8000e7f4:	00040513          	mv	a0,s0
8000e7f8:	00812403          	lw	s0,8(sp)
8000e7fc:	01010113          	addi	sp,sp,16
8000e800:	00008067          	ret
8000e804:	98df10ef          	jal	80000190 <restore>
8000e808:	fff00413          	li	s0,-1
8000e80c:	fe5ff06f          	j	8000e7f0 <close+0x50>

8000e810 <getc>:
8000e810:	ff010113          	addi	sp,sp,-16
8000e814:	00812423          	sw	s0,8(sp)
8000e818:	00112623          	sw	ra,12(sp)
8000e81c:	00050413          	mv	s0,a0
8000e820:	969f10ef          	jal	80000188 <disable>
8000e824:	00200793          	li	a5,2
8000e828:	0487e663          	bltu	a5,s0,8000e874 <getc+0x64>
8000e82c:	04c00793          	li	a5,76
8000e830:	02f40433          	mul	s0,s0,a5
8000e834:	800117b7          	lui	a5,0x80011
8000e838:	e2c78793          	addi	a5,a5,-468 # 80010e2c <devtab>
8000e83c:	00912223          	sw	s1,4(sp)
8000e840:	00050493          	mv	s1,a0
8000e844:	00f40533          	add	a0,s0,a5
8000e848:	02452783          	lw	a5,36(a0)
8000e84c:	000780e7          	jalr	a5
8000e850:	00050413          	mv	s0,a0
8000e854:	00048513          	mv	a0,s1
8000e858:	939f10ef          	jal	80000190 <restore>
8000e85c:	00412483          	lw	s1,4(sp)
8000e860:	00c12083          	lw	ra,12(sp)
8000e864:	00040513          	mv	a0,s0
8000e868:	00812403          	lw	s0,8(sp)
8000e86c:	01010113          	addi	sp,sp,16
8000e870:	00008067          	ret
8000e874:	91df10ef          	jal	80000190 <restore>
8000e878:	fff00413          	li	s0,-1
8000e87c:	fe5ff06f          	j	8000e860 <getc+0x50>

8000e880 <ioerr>:
8000e880:	fff00513          	li	a0,-1
8000e884:	00008067          	ret

8000e888 <ionull>:
8000e888:	00100513          	li	a0,1
8000e88c:	00008067          	ret

8000e890 <open>:
8000e890:	fe010113          	addi	sp,sp,-32
8000e894:	00812c23          	sw	s0,24(sp)
8000e898:	01212823          	sw	s2,16(sp)
8000e89c:	01312623          	sw	s3,12(sp)
8000e8a0:	00112e23          	sw	ra,28(sp)
8000e8a4:	00050413          	mv	s0,a0
8000e8a8:	00058913          	mv	s2,a1
8000e8ac:	00060993          	mv	s3,a2
8000e8b0:	8d9f10ef          	jal	80000188 <disable>
8000e8b4:	00200793          	li	a5,2
8000e8b8:	0487ee63          	bltu	a5,s0,8000e914 <open+0x84>
8000e8bc:	04c00793          	li	a5,76
8000e8c0:	02f40433          	mul	s0,s0,a5
8000e8c4:	800117b7          	lui	a5,0x80011
8000e8c8:	e2c78793          	addi	a5,a5,-468 # 80010e2c <devtab>
8000e8cc:	00912a23          	sw	s1,20(sp)
8000e8d0:	00050493          	mv	s1,a0
8000e8d4:	00098613          	mv	a2,s3
8000e8d8:	00090593          	mv	a1,s2
8000e8dc:	00f40533          	add	a0,s0,a5
8000e8e0:	01052783          	lw	a5,16(a0)
8000e8e4:	000780e7          	jalr	a5
8000e8e8:	00050413          	mv	s0,a0
8000e8ec:	00048513          	mv	a0,s1
8000e8f0:	8a1f10ef          	jal	80000190 <restore>
8000e8f4:	01412483          	lw	s1,20(sp)
8000e8f8:	01c12083          	lw	ra,28(sp)
8000e8fc:	00040513          	mv	a0,s0
8000e900:	01812403          	lw	s0,24(sp)
8000e904:	01012903          	lw	s2,16(sp)
8000e908:	00c12983          	lw	s3,12(sp)
8000e90c:	02010113          	addi	sp,sp,32
8000e910:	00008067          	ret
8000e914:	87df10ef          	jal	80000190 <restore>
8000e918:	fff00413          	li	s0,-1
8000e91c:	fddff06f          	j	8000e8f8 <open+0x68>

8000e920 <putc>:
8000e920:	ff010113          	addi	sp,sp,-16
8000e924:	00812423          	sw	s0,8(sp)
8000e928:	01212023          	sw	s2,0(sp)
8000e92c:	00112623          	sw	ra,12(sp)
8000e930:	00050413          	mv	s0,a0
8000e934:	00058913          	mv	s2,a1
8000e938:	851f10ef          	jal	80000188 <disable>
8000e93c:	00200793          	li	a5,2
8000e940:	0487ea63          	bltu	a5,s0,8000e994 <putc+0x74>
8000e944:	04c00793          	li	a5,76
8000e948:	02f40433          	mul	s0,s0,a5
8000e94c:	800117b7          	lui	a5,0x80011
8000e950:	e2c78793          	addi	a5,a5,-468 # 80010e2c <devtab>
8000e954:	00912223          	sw	s1,4(sp)
8000e958:	00050493          	mv	s1,a0
8000e95c:	00090593          	mv	a1,s2
8000e960:	00f40533          	add	a0,s0,a5
8000e964:	02852783          	lw	a5,40(a0)
8000e968:	000780e7          	jalr	a5
8000e96c:	00050413          	mv	s0,a0
8000e970:	00048513          	mv	a0,s1
8000e974:	81df10ef          	jal	80000190 <restore>
8000e978:	00412483          	lw	s1,4(sp)
8000e97c:	00c12083          	lw	ra,12(sp)
8000e980:	00040513          	mv	a0,s0
8000e984:	00812403          	lw	s0,8(sp)
8000e988:	00012903          	lw	s2,0(sp)
8000e98c:	01010113          	addi	sp,sp,16
8000e990:	00008067          	ret
8000e994:	ffcf10ef          	jal	80000190 <restore>
8000e998:	fff00413          	li	s0,-1
8000e99c:	fe1ff06f          	j	8000e97c <putc+0x5c>

8000e9a0 <read>:
8000e9a0:	fe010113          	addi	sp,sp,-32
8000e9a4:	00812c23          	sw	s0,24(sp)
8000e9a8:	01212823          	sw	s2,16(sp)
8000e9ac:	01312623          	sw	s3,12(sp)
8000e9b0:	00112e23          	sw	ra,28(sp)
8000e9b4:	00050413          	mv	s0,a0
8000e9b8:	00058913          	mv	s2,a1
8000e9bc:	00060993          	mv	s3,a2
8000e9c0:	fc8f10ef          	jal	80000188 <disable>
8000e9c4:	00200793          	li	a5,2
8000e9c8:	0487ee63          	bltu	a5,s0,8000ea24 <read+0x84>
8000e9cc:	04c00793          	li	a5,76
8000e9d0:	02f40433          	mul	s0,s0,a5
8000e9d4:	800117b7          	lui	a5,0x80011
8000e9d8:	e2c78793          	addi	a5,a5,-468 # 80010e2c <devtab>
8000e9dc:	00912a23          	sw	s1,20(sp)
8000e9e0:	00050493          	mv	s1,a0
8000e9e4:	00098613          	mv	a2,s3
8000e9e8:	00090593          	mv	a1,s2
8000e9ec:	00f40533          	add	a0,s0,a5
8000e9f0:	01852783          	lw	a5,24(a0)
8000e9f4:	000780e7          	jalr	a5
8000e9f8:	00050413          	mv	s0,a0
8000e9fc:	00048513          	mv	a0,s1
8000ea00:	f90f10ef          	jal	80000190 <restore>
8000ea04:	01412483          	lw	s1,20(sp)
8000ea08:	01c12083          	lw	ra,28(sp)
8000ea0c:	00040513          	mv	a0,s0
8000ea10:	01812403          	lw	s0,24(sp)
8000ea14:	01012903          	lw	s2,16(sp)
8000ea18:	00c12983          	lw	s3,12(sp)
8000ea1c:	02010113          	addi	sp,sp,32
8000ea20:	00008067          	ret
8000ea24:	f6cf10ef          	jal	80000190 <restore>
8000ea28:	fff00413          	li	s0,-1
8000ea2c:	fddff06f          	j	8000ea08 <read+0x68>

8000ea30 <write>:
8000ea30:	fe010113          	addi	sp,sp,-32
8000ea34:	00812c23          	sw	s0,24(sp)
8000ea38:	01212823          	sw	s2,16(sp)
8000ea3c:	01312623          	sw	s3,12(sp)
8000ea40:	00112e23          	sw	ra,28(sp)
8000ea44:	00050413          	mv	s0,a0
8000ea48:	00058913          	mv	s2,a1
8000ea4c:	00060993          	mv	s3,a2
8000ea50:	f38f10ef          	jal	80000188 <disable>
8000ea54:	00200793          	li	a5,2
8000ea58:	0487ee63          	bltu	a5,s0,8000eab4 <write+0x84>
8000ea5c:	04c00793          	li	a5,76
8000ea60:	02f40433          	mul	s0,s0,a5
8000ea64:	800117b7          	lui	a5,0x80011
8000ea68:	e2c78793          	addi	a5,a5,-468 # 80010e2c <devtab>
8000ea6c:	00912a23          	sw	s1,20(sp)
8000ea70:	00050493          	mv	s1,a0
8000ea74:	00098613          	mv	a2,s3
8000ea78:	00090593          	mv	a1,s2
8000ea7c:	00f40533          	add	a0,s0,a5
8000ea80:	01c52783          	lw	a5,28(a0)
8000ea84:	000780e7          	jalr	a5
8000ea88:	00050413          	mv	s0,a0
8000ea8c:	00048513          	mv	a0,s1
8000ea90:	f00f10ef          	jal	80000190 <restore>
8000ea94:	01412483          	lw	s1,20(sp)
8000ea98:	01c12083          	lw	ra,28(sp)
8000ea9c:	00040513          	mv	a0,s0
8000eaa0:	01812403          	lw	s0,24(sp)
8000eaa4:	01012903          	lw	s2,16(sp)
8000eaa8:	00c12983          	lw	s3,12(sp)
8000eaac:	02010113          	addi	sp,sp,32
8000eab0:	00008067          	ret
8000eab4:	edcf10ef          	jal	80000190 <restore>
8000eab8:	fff00413          	li	s0,-1
8000eabc:	fddff06f          	j	8000ea98 <write+0x68>

8000eac0 <seek>:
8000eac0:	ff010113          	addi	sp,sp,-16
8000eac4:	00812423          	sw	s0,8(sp)
8000eac8:	01212023          	sw	s2,0(sp)
8000eacc:	00112623          	sw	ra,12(sp)
8000ead0:	00050413          	mv	s0,a0
8000ead4:	00058913          	mv	s2,a1
8000ead8:	eb0f10ef          	jal	80000188 <disable>
8000eadc:	00200793          	li	a5,2
8000eae0:	0487ea63          	bltu	a5,s0,8000eb34 <seek+0x74>
8000eae4:	04c00793          	li	a5,76
8000eae8:	02f40433          	mul	s0,s0,a5
8000eaec:	800117b7          	lui	a5,0x80011
8000eaf0:	e2c78793          	addi	a5,a5,-468 # 80010e2c <devtab>
8000eaf4:	00912223          	sw	s1,4(sp)
8000eaf8:	00050493          	mv	s1,a0
8000eafc:	00090593          	mv	a1,s2
8000eb00:	00f40533          	add	a0,s0,a5
8000eb04:	02052783          	lw	a5,32(a0)
8000eb08:	000780e7          	jalr	a5
8000eb0c:	00050413          	mv	s0,a0
8000eb10:	00048513          	mv	a0,s1
8000eb14:	e7cf10ef          	jal	80000190 <restore>
8000eb18:	00412483          	lw	s1,4(sp)
8000eb1c:	00c12083          	lw	ra,12(sp)
8000eb20:	00040513          	mv	a0,s0
8000eb24:	00812403          	lw	s0,8(sp)
8000eb28:	00012903          	lw	s2,0(sp)
8000eb2c:	01010113          	addi	sp,sp,16
8000eb30:	00008067          	ret
8000eb34:	e5cf10ef          	jal	80000190 <restore>
8000eb38:	fff00413          	li	s0,-1
8000eb3c:	fe1ff06f          	j	8000eb1c <seek+0x5c>

8000eb40 <control>:
8000eb40:	fe010113          	addi	sp,sp,-32
8000eb44:	00812c23          	sw	s0,24(sp)
8000eb48:	00912a23          	sw	s1,20(sp)
8000eb4c:	01212823          	sw	s2,16(sp)
8000eb50:	01312623          	sw	s3,12(sp)
8000eb54:	00112e23          	sw	ra,28(sp)
8000eb58:	00050413          	mv	s0,a0
8000eb5c:	00058493          	mv	s1,a1
8000eb60:	00060913          	mv	s2,a2
8000eb64:	00068993          	mv	s3,a3
8000eb68:	e20f10ef          	jal	80000188 <disable>
8000eb6c:	00200793          	li	a5,2
8000eb70:	0687e263          	bltu	a5,s0,8000ebd4 <control+0x94>
8000eb74:	04c00793          	li	a5,76
8000eb78:	02f40433          	mul	s0,s0,a5
8000eb7c:	800117b7          	lui	a5,0x80011
8000eb80:	e2c78793          	addi	a5,a5,-468 # 80010e2c <devtab>
8000eb84:	01412423          	sw	s4,8(sp)
8000eb88:	00050a13          	mv	s4,a0
8000eb8c:	00098693          	mv	a3,s3
8000eb90:	00090613          	mv	a2,s2
8000eb94:	00048593          	mv	a1,s1
8000eb98:	00f40533          	add	a0,s0,a5
8000eb9c:	02c52783          	lw	a5,44(a0)
8000eba0:	000780e7          	jalr	a5
8000eba4:	00050413          	mv	s0,a0
8000eba8:	000a0513          	mv	a0,s4
8000ebac:	de4f10ef          	jal	80000190 <restore>
8000ebb0:	00812a03          	lw	s4,8(sp)
8000ebb4:	01c12083          	lw	ra,28(sp)
8000ebb8:	00040513          	mv	a0,s0
8000ebbc:	01812403          	lw	s0,24(sp)
8000ebc0:	01412483          	lw	s1,20(sp)
8000ebc4:	01012903          	lw	s2,16(sp)
8000ebc8:	00c12983          	lw	s3,12(sp)
8000ebcc:	02010113          	addi	sp,sp,32
8000ebd0:	00008067          	ret
8000ebd4:	dbcf10ef          	jal	80000190 <restore>
8000ebd8:	fff00413          	li	s0,-1
8000ebdc:	fd9ff06f          	j	8000ebb4 <control+0x74>

8000ebe0 <getdev>:
8000ebe0:	fe010113          	addi	sp,sp,-32
8000ebe4:	00812c23          	sw	s0,24(sp)
8000ebe8:	00912a23          	sw	s1,20(sp)
8000ebec:	01212823          	sw	s2,16(sp)
8000ebf0:	01312623          	sw	s3,12(sp)
8000ebf4:	01412423          	sw	s4,8(sp)
8000ebf8:	00112e23          	sw	ra,28(sp)
8000ebfc:	00050913          	mv	s2,a0
8000ec00:	80011437          	lui	s0,0x80011
8000ec04:	d84f10ef          	jal	80000188 <disable>
8000ec08:	00050993          	mv	s3,a0
8000ec0c:	e2c40413          	addi	s0,s0,-468 # 80010e2c <devtab>
8000ec10:	00000493          	li	s1,0
8000ec14:	00300a13          	li	s4,3
8000ec18:	00842583          	lw	a1,8(s0)
8000ec1c:	01000613          	li	a2,16
8000ec20:	00090513          	mv	a0,s2
8000ec24:	bdcf40ef          	jal	80003000 <strncmp>
8000ec28:	04051063          	bnez	a0,8000ec68 <getdev+0x88>
8000ec2c:	00148493          	addi	s1,s1,1
8000ec30:	04c40413          	addi	s0,s0,76
8000ec34:	ff4492e3          	bne	s1,s4,8000ec18 <getdev+0x38>
8000ec38:	00098513          	mv	a0,s3
8000ec3c:	d54f10ef          	jal	80000190 <restore>
8000ec40:	fff00493          	li	s1,-1
8000ec44:	01c12083          	lw	ra,28(sp)
8000ec48:	01812403          	lw	s0,24(sp)
8000ec4c:	01012903          	lw	s2,16(sp)
8000ec50:	00c12983          	lw	s3,12(sp)
8000ec54:	00812a03          	lw	s4,8(sp)
8000ec58:	00048513          	mv	a0,s1
8000ec5c:	01412483          	lw	s1,20(sp)
8000ec60:	02010113          	addi	sp,sp,32
8000ec64:	00008067          	ret
8000ec68:	00098513          	mv	a0,s3
8000ec6c:	d24f10ef          	jal	80000190 <restore>
8000ec70:	fd5ff06f          	j	8000ec44 <getdev+0x64>

8000ec74 <nullprocess>:
8000ec74:	800106b7          	lui	a3,0x80010
8000ec78:	8000c537          	lui	a0,0x8000c
8000ec7c:	ff010113          	addi	sp,sp,-16
8000ec80:	00000713          	li	a4,0
8000ec84:	6b868693          	addi	a3,a3,1720 # 800106b8 <_ctype_+0x84c>
8000ec88:	00300613          	li	a2,3
8000ec8c:	000015b7          	lui	a1,0x1
8000ec90:	fb450513          	addi	a0,a0,-76 # 8000bfb4 <shell>
8000ec94:	00112623          	sw	ra,12(sp)
8000ec98:	a60ff0ef          	jal	8000def8 <create>
8000ec9c:	00c12083          	lw	ra,12(sp)
8000eca0:	01010113          	addi	sp,sp,16
8000eca4:	f28ff06f          	j	8000e3cc <resume>

8000eca8 <ilde>:
8000eca8:	0000006f          	j	8000eca8 <ilde>

8000ecac <ilde2>:
8000ecac:	ff010113          	addi	sp,sp,-16
8000ecb0:	00112623          	sw	ra,12(sp)
8000ecb4:	3e800513          	li	a0,1000
8000ecb8:	ea0ff0ef          	jal	8000e358 <sleep>
8000ecbc:	ff9ff06f          	j	8000ecb4 <ilde2+0x8>

8000ecc0 <nulluser>:
8000ecc0:	ec010113          	addi	sp,sp,-320
8000ecc4:	12112e23          	sw	ra,316(sp)
8000ecc8:	12812c23          	sw	s0,312(sp)
8000eccc:	12912a23          	sw	s1,308(sp)
8000ecd0:	13212823          	sw	s2,304(sp)
8000ecd4:	13312623          	sw	s3,300(sp)
8000ecd8:	13412423          	sw	s4,296(sp)
8000ecdc:	c00029f3          	rdcycle	s3
8000ece0:	80011937          	lui	s2,0x80011
8000ece4:	9d8ff0ef          	jal	8000debc <clkinit>
8000ece8:	42090513          	addi	a0,s2,1056 # 80011420 <syscallp>
8000ecec:	459000ef          	jal	8000f944 <syscall_init>
8000ecf0:	ce0f10ef          	jal	800001d0 <clear_interrupts>
8000ecf4:	ca4f10ef          	jal	80000198 <enable_interrupt_status>
8000ecf8:	00700513          	li	a0,7
8000ecfc:	ca8f10ef          	jal	800001a4 <enable_interrupt>
8000ed00:	00300513          	li	a0,3
8000ed04:	ca0f10ef          	jal	800001a4 <enable_interrupt>
8000ed08:	80012537          	lui	a0,0x80012
8000ed0c:	85c50513          	addi	a0,a0,-1956 # 8001185c <ready_queue>
8000ed10:	5d4000ef          	jal	8000f2e4 <queue_init>
8000ed14:	00a00413          	li	s0,10
8000ed18:	800104b7          	lui	s1,0x80010
8000ed1c:	4dc48513          	addi	a0,s1,1244 # 800104dc <_ctype_+0x670>
8000ed20:	fff40413          	addi	s0,s0,-1
8000ed24:	420000ef          	jal	8000f144 <kprintf>
8000ed28:	fe041ae3          	bnez	s0,8000ed1c <nulluser+0x5c>
8000ed2c:	42090413          	addi	s0,s2,1056
8000ed30:	800127b7          	lui	a5,0x80012
8000ed34:	0c040a13          	addi	s4,s0,192
8000ed38:	8407ac23          	sw	zero,-1960(a5) # 80011858 <prcount>
8000ed3c:	39040713          	addi	a4,s0,912
8000ed40:	000a0793          	mv	a5,s4
8000ed44:	00079023          	sh	zero,0(a5)
8000ed48:	00078a23          	sb	zero,20(a5)
8000ed4c:	0007a623          	sw	zero,12(a5)
8000ed50:	02078d23          	sb	zero,58(a5)
8000ed54:	04878793          	addi	a5,a5,72
8000ed58:	fee796e3          	bne	a5,a4,8000ed44 <nulluser+0x84>
8000ed5c:	00000513          	li	a0,0
8000ed60:	9d1ff0ef          	jal	8000e730 <init>
8000ed64:	00100513          	li	a0,1
8000ed68:	9c9ff0ef          	jal	8000e730 <init>
8000ed6c:	00200513          	li	a0,2
8000ed70:	9c1ff0ef          	jal	8000e730 <init>
8000ed74:	80010637          	lui	a2,0x80010
8000ed78:	800105b7          	lui	a1,0x80010
8000ed7c:	80010537          	lui	a0,0x80010
8000ed80:	800127b7          	lui	a5,0x80012
8000ed84:	00a00713          	li	a4,10
8000ed88:	6c060613          	addi	a2,a2,1728 # 800106c0 <_ctype_+0x854>
8000ed8c:	6cc58593          	addi	a1,a1,1740 # 800106cc <_ctype_+0x860>
8000ed90:	6d850513          	addi	a0,a0,1752 # 800106d8 <_ctype_+0x86c>
8000ed94:	84e7a223          	sw	a4,-1980(a5) # 80011844 <preempt>
8000ed98:	3ac000ef          	jal	8000f144 <kprintf>
8000ed9c:	80014537          	lui	a0,0x80014
8000eda0:	86c50513          	addi	a0,a0,-1940 # 8001386c <_end>
8000eda4:	becf30ef          	jal	80002190 <heap_init>
8000eda8:	bfcf30ef          	jal	800021a4 <heap_free>
8000edac:	00050593          	mv	a1,a0
8000edb0:	80010537          	lui	a0,0x80010
8000edb4:	6ec50513          	addi	a0,a0,1772 # 800106ec <_ctype_+0x880>
8000edb8:	38c000ef          	jal	8000f144 <kprintf>
8000edbc:	80000937          	lui	s2,0x80000
8000edc0:	800114b7          	lui	s1,0x80011
8000edc4:	dac48493          	addi	s1,s1,-596 # 80010dac <_etext>
8000edc8:	00090593          	mv	a1,s2
8000edcc:	80010537          	lui	a0,0x80010
8000edd0:	40b485b3          	sub	a1,s1,a1
8000edd4:	70050513          	addi	a0,a0,1792 # 80010700 <_ctype_+0x894>
8000edd8:	36c000ef          	jal	8000f144 <kprintf>
8000eddc:	80010537          	lui	a0,0x80010
8000ede0:	fff48613          	addi	a2,s1,-1
8000ede4:	00090593          	mv	a1,s2
8000ede8:	71c50513          	addi	a0,a0,1820 # 8001071c <_ctype_+0x8b0>
8000edec:	358000ef          	jal	8000f144 <kprintf>
8000edf0:	80011937          	lui	s2,0x80011
8000edf4:	800124b7          	lui	s1,0x80012
8000edf8:	81848493          	addi	s1,s1,-2024 # 80011818 <heap_end>
8000edfc:	dac90593          	addi	a1,s2,-596 # 80010dac <_etext>
8000ee00:	80010537          	lui	a0,0x80010
8000ee04:	40b485b3          	sub	a1,s1,a1
8000ee08:	73c50513          	addi	a0,a0,1852 # 8001073c <_ctype_+0x8d0>
8000ee0c:	338000ef          	jal	8000f144 <kprintf>
8000ee10:	80010537          	lui	a0,0x80010
8000ee14:	fff48613          	addi	a2,s1,-1
8000ee18:	dac90593          	addi	a1,s2,-596
8000ee1c:	75450513          	addi	a0,a0,1876 # 80010754 <_ctype_+0x8e8>
8000ee20:	324000ef          	jal	8000f144 <kprintf>
8000ee24:	8007d4b7          	lui	s1,0x8007d
8000ee28:	80010537          	lui	a0,0x80010
8000ee2c:	00048593          	mv	a1,s1
8000ee30:	77450513          	addi	a0,a0,1908 # 80010774 <_ctype_+0x908>
8000ee34:	310000ef          	jal	8000f144 <kprintf>
8000ee38:	00048513          	mv	a0,s1
8000ee3c:	db5fc0ef          	jal	8000bbf0 <upload_fs>
8000ee40:	800114b7          	lui	s1,0x80011
8000ee44:	0007a637          	lui	a2,0x7a
8000ee48:	1a848593          	addi	a1,s1,424 # 800111a8 <config>
8000ee4c:	12060613          	addi	a2,a2,288 # 7a120 <__stack_size+0x78120>
8000ee50:	39040513          	addi	a0,s0,912
8000ee54:	bc5fc0ef          	jal	8000ba18 <littlefs_init>
8000ee58:	80010537          	lui	a0,0x80010
8000ee5c:	78c50513          	addi	a0,a0,1932 # 8001078c <_ctype_+0x920>
8000ee60:	2e4000ef          	jal	8000f144 <kprintf>
8000ee64:	3dc42783          	lw	a5,988(s0)
8000ee68:	39042503          	lw	a0,912(s0)
8000ee6c:	1a848593          	addi	a1,s1,424
8000ee70:	000780e7          	jalr	a5
8000ee74:	00050493          	mv	s1,a0
8000ee78:	18051263          	bnez	a0,8000effc <nulluser+0x33c>
8000ee7c:	80010537          	lui	a0,0x80010
8000ee80:	7c050513          	addi	a0,a0,1984 # 800107c0 <_ctype_+0x954>
8000ee84:	2c0000ef          	jal	8000f144 <kprintf>
8000ee88:	3ec42783          	lw	a5,1004(s0)
8000ee8c:	000780e7          	jalr	a5
8000ee90:	00050593          	mv	a1,a0
8000ee94:	80010537          	lui	a0,0x80010
8000ee98:	7c850513          	addi	a0,a0,1992 # 800107c8 <_ctype_+0x95c>
8000ee9c:	2a8000ef          	jal	8000f144 <kprintf>
8000eea0:	3c042783          	lw	a5,960(s0)
8000eea4:	80010537          	lui	a0,0x80010
8000eea8:	f4c50513          	addi	a0,a0,-180 # 8000ff4c <_ctype_+0xe0>
8000eeac:	000780e7          	jalr	a5
8000eeb0:	00050493          	mv	s1,a0
8000eeb4:	18050063          	beqz	a0,8000f034 <nulluser+0x374>
8000eeb8:	13512223          	sw	s5,292(sp)
8000eebc:	13612023          	sw	s6,288(sp)
8000eec0:	11712e23          	sw	s7,284(sp)
8000eec4:	11812c23          	sw	s8,280(sp)
8000eec8:	80010937          	lui	s2,0x80010
8000eecc:	80010ab7          	lui	s5,0x80010
8000eed0:	80011c37          	lui	s8,0x80011
8000eed4:	80011bb7          	lui	s7,0x80011
8000eed8:	80011b37          	lui	s6,0x80011
8000eedc:	00c0006f          	j	8000eee8 <nulluser+0x228>
8000eee0:	8e8f40ef          	jal	80002fc8 <strcmp>
8000eee4:	0c051463          	bnez	a0,8000efac <nulluser+0x2ec>
8000eee8:	3c842783          	lw	a5,968(s0)
8000eeec:	00810593          	addi	a1,sp,8
8000eef0:	00048513          	mv	a0,s1
8000eef4:	000780e7          	jalr	a5
8000eef8:	00050793          	mv	a5,a0
8000eefc:	f5090593          	addi	a1,s2,-176 # 8000ff50 <_ctype_+0xe4>
8000ef00:	01010513          	addi	a0,sp,16
8000ef04:	fcf04ee3          	bgtz	a5,8000eee0 <nulluser+0x220>
8000ef08:	3c442783          	lw	a5,964(s0)
8000ef0c:	00048513          	mv	a0,s1
8000ef10:	000780e7          	jalr	a5
8000ef14:	00000013          	nop
8000ef18:	00000013          	nop
8000ef1c:	00000013          	nop
8000ef20:	c00025f3          	rdcycle	a1
8000ef24:	80011537          	lui	a0,0x80011
8000ef28:	413585b3          	sub	a1,a1,s3
8000ef2c:	82050513          	addi	a0,a0,-2016 # 80010820 <_ctype_+0x9b4>
8000ef30:	214000ef          	jal	8000f144 <kprintf>
8000ef34:	000015b7          	lui	a1,0x1
8000ef38:	800116b7          	lui	a3,0x80011
8000ef3c:	00000713          	li	a4,0
8000ef40:	82c68693          	addi	a3,a3,-2004 # 8001082c <_ctype_+0x9c0>
8000ef44:	00100613          	li	a2,1
8000ef48:	80058593          	addi	a1,a1,-2048 # 800 <__stack_size-0x1800>
8000ef4c:	00000513          	li	a0,0
8000ef50:	fa9fe0ef          	jal	8000def8 <create>
8000ef54:	00351793          	slli	a5,a0,0x3
8000ef58:	00a787b3          	add	a5,a5,a0
8000ef5c:	00379793          	slli	a5,a5,0x3
8000ef60:	00100713          	li	a4,1
8000ef64:	00fa0a33          	add	s4,s4,a5
8000ef68:	00f40433          	add	s0,s0,a5
8000ef6c:	800127b7          	lui	a5,0x80012
8000ef70:	8747a223          	sw	s4,-1948(a5) # 80011864 <active_task>
8000ef74:	0ce41023          	sh	a4,192(s0)
8000ef78:	110047b7          	lui	a5,0x11004
8000ef7c:	000015b7          	lui	a1,0x1
8000ef80:	800116b7          	lui	a3,0x80011
8000ef84:	8000f537          	lui	a0,0x8000f
8000ef88:	00e7a023          	sw	a4,0(a5) # 11004000 <__stack_size+0x11002000>
8000ef8c:	83468693          	addi	a3,a3,-1996 # 80010834 <_ctype_+0x9c8>
8000ef90:	00000713          	li	a4,0
8000ef94:	00300613          	li	a2,3
8000ef98:	80058593          	addi	a1,a1,-2048 # 800 <__stack_size-0x1800>
8000ef9c:	c7450513          	addi	a0,a0,-908 # 8000ec74 <nullprocess>
8000efa0:	f59fe0ef          	jal	8000def8 <create>
8000efa4:	ce8ff0ef          	jal	8000e48c <ready>
8000efa8:	0000006f          	j	8000efa8 <nulluser+0x2e8>
8000efac:	f54a8593          	addi	a1,s5,-172 # 8000ff54 <_ctype_+0xe8>
8000efb0:	01010513          	addi	a0,sp,16
8000efb4:	814f40ef          	jal	80002fc8 <strcmp>
8000efb8:	f20508e3          	beqz	a0,8000eee8 <nulluser+0x228>
8000efbc:	808c0593          	addi	a1,s8,-2040 # 80010808 <_ctype_+0x99c>
8000efc0:	01010513          	addi	a0,sp,16
8000efc4:	804f40ef          	jal	80002fc8 <strcmp>
8000efc8:	f20500e3          	beqz	a0,8000eee8 <nulluser+0x228>
8000efcc:	3f442783          	lw	a5,1012(s0)
8000efd0:	01010513          	addi	a0,sp,16
8000efd4:	000780e7          	jalr	a5
8000efd8:	f00508e3          	beqz	a0,8000eee8 <nulluser+0x228>
8000efdc:	00814703          	lbu	a4,8(sp)
8000efe0:	00200793          	li	a5,2
8000efe4:	06f70c63          	beq	a4,a5,8000f05c <nulluser+0x39c>
8000efe8:	00c12603          	lw	a2,12(sp)
8000efec:	01010593          	addi	a1,sp,16
8000eff0:	814b0513          	addi	a0,s6,-2028 # 80010814 <_ctype_+0x9a8>
8000eff4:	150000ef          	jal	8000f144 <kprintf>
8000eff8:	ef1ff06f          	j	8000eee8 <nulluser+0x228>
8000effc:	80010537          	lui	a0,0x80010
8000f000:	7a850513          	addi	a0,a0,1960 # 800107a8 <_ctype_+0x93c>
8000f004:	140000ef          	jal	8000f144 <kprintf>
8000f008:	13812403          	lw	s0,312(sp)
8000f00c:	13c12083          	lw	ra,316(sp)
8000f010:	13012903          	lw	s2,304(sp)
8000f014:	12c12983          	lw	s3,300(sp)
8000f018:	12812a03          	lw	s4,296(sp)
8000f01c:	00048593          	mv	a1,s1
8000f020:	13412483          	lw	s1,308(sp)
8000f024:	80010537          	lui	a0,0x80010
8000f028:	7b050513          	addi	a0,a0,1968 # 800107b0 <_ctype_+0x944>
8000f02c:	14010113          	addi	sp,sp,320
8000f030:	1140006f          	j	8000f144 <kprintf>
8000f034:	13812403          	lw	s0,312(sp)
8000f038:	13c12083          	lw	ra,316(sp)
8000f03c:	13412483          	lw	s1,308(sp)
8000f040:	13012903          	lw	s2,304(sp)
8000f044:	12c12983          	lw	s3,300(sp)
8000f048:	12812a03          	lw	s4,296(sp)
8000f04c:	80010537          	lui	a0,0x80010
8000f050:	7f450513          	addi	a0,a0,2036 # 800107f4 <_ctype_+0x988>
8000f054:	14010113          	addi	sp,sp,320
8000f058:	0ec0006f          	j	8000f144 <kprintf>
8000f05c:	01010593          	addi	a1,sp,16
8000f060:	80cb8513          	addi	a0,s7,-2036 # 8001080c <_ctype_+0x9a0>
8000f064:	0e0000ef          	jal	8000f144 <kprintf>
8000f068:	e81ff06f          	j	8000eee8 <nulluser+0x228>

8000f06c <cycleCount>:
8000f06c:	800117b7          	lui	a5,0x80011
8000f070:	f187a783          	lw	a5,-232(a5) # 80010f18 <mtime>
8000f074:	0007a503          	lw	a0,0(a5)
8000f078:	0047a583          	lw	a1,4(a5)
8000f07c:	00008067          	ret

8000f080 <delay>:
8000f080:	c0002773          	rdcycle	a4
8000f084:	00e50733          	add	a4,a0,a4
8000f088:	00a73533          	sltu	a0,a4,a0
8000f08c:	c00027f3          	rdcycle	a5
8000f090:	00050863          	beqz	a0,8000f0a0 <delay+0x20>
8000f094:	00000033          	add	zero,zero,zero
8000f098:	c00027f3          	rdcycle	a5
8000f09c:	fe051ce3          	bnez	a0,8000f094 <delay+0x14>
8000f0a0:	fee7eae3          	bltu	a5,a4,8000f094 <delay+0x14>
8000f0a4:	00008067          	ret

8000f0a8 <init_timer>:
8000f0a8:	800117b7          	lui	a5,0x80011
8000f0ac:	f187a783          	lw	a5,-232(a5) # 80010f18 <mtime>
8000f0b0:	800116b7          	lui	a3,0x80011
8000f0b4:	f1c6a683          	lw	a3,-228(a3) # 80010f1c <mtimecmp>
8000f0b8:	0007a703          	lw	a4,0(a5)
8000f0bc:	0047a783          	lw	a5,4(a5)
8000f0c0:	00e50533          	add	a0,a0,a4
8000f0c4:	00e53633          	sltu	a2,a0,a4
8000f0c8:	00f585b3          	add	a1,a1,a5
8000f0cc:	00b607b3          	add	a5,a2,a1
8000f0d0:	00a6a023          	sw	a0,0(a3)
8000f0d4:	00f6a223          	sw	a5,4(a3)
8000f0d8:	00008067          	ret

8000f0dc <clkupdate>:
8000f0dc:	800117b7          	lui	a5,0x80011
8000f0e0:	f187a783          	lw	a5,-232(a5) # 80010f18 <mtime>
8000f0e4:	800116b7          	lui	a3,0x80011
8000f0e8:	f1c6a603          	lw	a2,-228(a3) # 80010f1c <mtimecmp>
8000f0ec:	0007a703          	lw	a4,0(a5)
8000f0f0:	0047a783          	lw	a5,4(a5)
8000f0f4:	00e506b3          	add	a3,a0,a4
8000f0f8:	00a6b533          	sltu	a0,a3,a0
8000f0fc:	00f585b3          	add	a1,a1,a5
8000f100:	00b507b3          	add	a5,a0,a1
8000f104:	00d62023          	sw	a3,0(a2)
8000f108:	00f62223          	sw	a5,4(a2)
8000f10c:	00008067          	ret

8000f110 <kputc>:
8000f110:	ff010113          	addi	sp,sp,-16
8000f114:	00812423          	sw	s0,8(sp)
8000f118:	00112623          	sw	ra,12(sp)
8000f11c:	00050413          	mv	s0,a0
8000f120:	868f10ef          	jal	80000188 <disable>
8000f124:	40241073          	csrw	0x402,s0
8000f128:	868f10ef          	jal	80000190 <restore>
8000f12c:	00c12083          	lw	ra,12(sp)
8000f130:	00812403          	lw	s0,8(sp)
8000f134:	00100513          	li	a0,1
8000f138:	01010113          	addi	sp,sp,16
8000f13c:	00008067          	ret

8000f140 <kgetc>:
8000f140:	00008067          	ret

8000f144 <kprintf>:
8000f144:	fc010113          	addi	sp,sp,-64
8000f148:	02410313          	addi	t1,sp,36
8000f14c:	02c12423          	sw	a2,40(sp)
8000f150:	8000f637          	lui	a2,0x8000f
8000f154:	02b12223          	sw	a1,36(sp)
8000f158:	11060613          	addi	a2,a2,272 # 8000f110 <kputc>
8000f15c:	00030593          	mv	a1,t1
8000f160:	00112e23          	sw	ra,28(sp)
8000f164:	02d12623          	sw	a3,44(sp)
8000f168:	02e12823          	sw	a4,48(sp)
8000f16c:	02f12a23          	sw	a5,52(sp)
8000f170:	03012c23          	sw	a6,56(sp)
8000f174:	03112e23          	sw	a7,60(sp)
8000f178:	00612623          	sw	t1,12(sp)
8000f17c:	c9cf10ef          	jal	80000618 <_doprnt>
8000f180:	01c12083          	lw	ra,28(sp)
8000f184:	00100513          	li	a0,1
8000f188:	04010113          	addi	sp,sp,64
8000f18c:	00008067          	ret

8000f190 <main>:
8000f190:	800106b7          	lui	a3,0x80010
8000f194:	8000c537          	lui	a0,0x8000c
8000f198:	ff010113          	addi	sp,sp,-16
8000f19c:	00000713          	li	a4,0
8000f1a0:	6b868693          	addi	a3,a3,1720 # 800106b8 <_ctype_+0x84c>
8000f1a4:	00300613          	li	a2,3
8000f1a8:	000025b7          	lui	a1,0x2
8000f1ac:	fb450513          	addi	a0,a0,-76 # 8000bfb4 <shell>
8000f1b0:	00112623          	sw	ra,12(sp)
8000f1b4:	00812423          	sw	s0,8(sp)
8000f1b8:	00912223          	sw	s1,4(sp)
8000f1bc:	01212023          	sw	s2,0(sp)
8000f1c0:	d39fe0ef          	jal	8000def8 <create>
8000f1c4:	ac8ff0ef          	jal	8000e48c <ready>
8000f1c8:	00000593          	li	a1,0
8000f1cc:	00000513          	li	a0,0
8000f1d0:	995fd0ef          	jal	8000cb64 <xsh_ps>
8000f1d4:	80011537          	lui	a0,0x80011
8000f1d8:	83c50513          	addi	a0,a0,-1988 # 8001083c <_ctype_+0x9d0>
8000f1dc:	10000437          	lui	s0,0x10000
8000f1e0:	cb8f30ef          	jal	80002698 <printf>
8000f1e4:	80011937          	lui	s2,0x80011
8000f1e8:	100004b7          	lui	s1,0x10000
8000f1ec:	00540413          	addi	s0,s0,5 # 10000005 <__stack_size+0xfffe005>
8000f1f0:	00044783          	lbu	a5,0(s0)
8000f1f4:	00079863          	bnez	a5,8000f204 <main+0x74>
8000f1f8:	f5dfe0ef          	jal	8000e154 <yield>
8000f1fc:	00044783          	lbu	a5,0(s0)
8000f200:	fe078ce3          	beqz	a5,8000f1f8 <main+0x68>
8000f204:	0004c583          	lbu	a1,0(s1) # 10000000 <__stack_size+0xfffe000>
8000f208:	84890513          	addi	a0,s2,-1976 # 80010848 <_ctype_+0x9dc>
8000f20c:	c8cf30ef          	jal	80002698 <printf>
8000f210:	fe1ff06f          	j	8000f1f0 <main+0x60>

8000f214 <receive>:
8000f214:	ff010113          	addi	sp,sp,-16
8000f218:	00812423          	sw	s0,8(sp)
8000f21c:	00912223          	sw	s1,4(sp)
8000f220:	00112623          	sw	ra,12(sp)
8000f224:	800124b7          	lui	s1,0x80012
8000f228:	f61f00ef          	jal	80000188 <disable>
8000f22c:	8644a783          	lw	a5,-1948(s1) # 80011864 <active_task>
8000f230:	00050413          	mv	s0,a0
8000f234:	0027c703          	lbu	a4,2(a5)
8000f238:	02070663          	beqz	a4,8000f264 <receive+0x50>
8000f23c:	00040513          	mv	a0,s0
8000f240:	0047a403          	lw	s0,4(a5)
8000f244:	00078123          	sb	zero,2(a5)
8000f248:	f49f00ef          	jal	80000190 <restore>
8000f24c:	00c12083          	lw	ra,12(sp)
8000f250:	00040513          	mv	a0,s0
8000f254:	00812403          	lw	s0,8(sp)
8000f258:	00412483          	lw	s1,4(sp)
8000f25c:	01010113          	addi	sp,sp,16
8000f260:	00008067          	ret
8000f264:	00300713          	li	a4,3
8000f268:	00e79023          	sh	a4,0(a5)
8000f26c:	ee9fe0ef          	jal	8000e154 <yield>
8000f270:	8644a783          	lw	a5,-1948(s1)
8000f274:	fc9ff06f          	j	8000f23c <receive+0x28>

8000f278 <recvclr>:
8000f278:	ff010113          	addi	sp,sp,-16
8000f27c:	00812423          	sw	s0,8(sp)
8000f280:	00112623          	sw	ra,12(sp)
8000f284:	f05f00ef          	jal	80000188 <disable>
8000f288:	800127b7          	lui	a5,0x80012
8000f28c:	8647a783          	lw	a5,-1948(a5) # 80011864 <active_task>
8000f290:	00100413          	li	s0,1
8000f294:	0027c703          	lbu	a4,2(a5)
8000f298:	00871663          	bne	a4,s0,8000f2a4 <recvclr+0x2c>
8000f29c:	0047a403          	lw	s0,4(a5)
8000f2a0:	00078123          	sb	zero,2(a5)
8000f2a4:	eedf00ef          	jal	80000190 <restore>
8000f2a8:	00c12083          	lw	ra,12(sp)
8000f2ac:	00040513          	mv	a0,s0
8000f2b0:	00812403          	lw	s0,8(sp)
8000f2b4:	01010113          	addi	sp,sp,16
8000f2b8:	00008067          	ret

8000f2bc <panic>:
8000f2bc:	ff010113          	addi	sp,sp,-16
8000f2c0:	00812423          	sw	s0,8(sp)
8000f2c4:	00112623          	sw	ra,12(sp)
8000f2c8:	00050413          	mv	s0,a0
8000f2cc:	ebdf00ef          	jal	80000188 <disable>
8000f2d0:	80011537          	lui	a0,0x80011
8000f2d4:	00040593          	mv	a1,s0
8000f2d8:	84c50513          	addi	a0,a0,-1972 # 8001084c <_ctype_+0x9e0>
8000f2dc:	e69ff0ef          	jal	8000f144 <kprintf>
8000f2e0:	0000006f          	j	8000f2e0 <panic+0x24>

8000f2e4 <queue_init>:
8000f2e4:	00052023          	sw	zero,0(a0)
8000f2e8:	00052223          	sw	zero,4(a0)
8000f2ec:	00008067          	ret

8000f2f0 <queue_push>:
8000f2f0:	00052783          	lw	a5,0(a0)
8000f2f4:	00078c63          	beqz	a5,8000f30c <queue_push+0x1c>
8000f2f8:	00452783          	lw	a5,4(a0)
8000f2fc:	0405a223          	sw	zero,68(a1) # 2044 <__stack_size+0x44>
8000f300:	04b7a223          	sw	a1,68(a5)
8000f304:	00b52223          	sw	a1,4(a0)
8000f308:	00008067          	ret
8000f30c:	0405a223          	sw	zero,68(a1)
8000f310:	00b52023          	sw	a1,0(a0)
8000f314:	00b52223          	sw	a1,4(a0)
8000f318:	00008067          	ret

8000f31c <queue_pushsort>:
8000f31c:	00052783          	lw	a5,0(a0)
8000f320:	04078063          	beqz	a5,8000f360 <queue_pushsort+0x44>
8000f324:	0305a683          	lw	a3,48(a1)
8000f328:	0307a703          	lw	a4,48(a5)
8000f32c:	00e6fc63          	bgeu	a3,a4,8000f344 <queue_pushsort+0x28>
8000f330:	04f5a223          	sw	a5,68(a1)
8000f334:	00b52023          	sw	a1,0(a0)
8000f338:	00008067          	ret
8000f33c:	0307a703          	lw	a4,48(a5)
8000f340:	02d77863          	bgeu	a4,a3,8000f370 <queue_pushsort+0x54>
8000f344:	00078613          	mv	a2,a5
8000f348:	0447a783          	lw	a5,68(a5)
8000f34c:	fe0798e3          	bnez	a5,8000f33c <queue_pushsort+0x20>
8000f350:	04b62223          	sw	a1,68(a2)
8000f354:	0405a223          	sw	zero,68(a1)
8000f358:	00b52223          	sw	a1,4(a0)
8000f35c:	00008067          	ret
8000f360:	00b52023          	sw	a1,0(a0)
8000f364:	00b52223          	sw	a1,4(a0)
8000f368:	0405a223          	sw	zero,68(a1)
8000f36c:	00008067          	ret
8000f370:	04f5a223          	sw	a5,68(a1)
8000f374:	04b62223          	sw	a1,68(a2)
8000f378:	00008067          	ret

8000f37c <queue_pop>:
8000f37c:	00050793          	mv	a5,a0
8000f380:	00052503          	lw	a0,0(a0)
8000f384:	00050863          	beqz	a0,8000f394 <queue_pop+0x18>
8000f388:	04452703          	lw	a4,68(a0)
8000f38c:	00e7a023          	sw	a4,0(a5)
8000f390:	00070463          	beqz	a4,8000f398 <queue_pop+0x1c>
8000f394:	00008067          	ret
8000f398:	0007a223          	sw	zero,4(a5)
8000f39c:	00008067          	ret

8000f3a0 <queue_peek>:
8000f3a0:	00052503          	lw	a0,0(a0)
8000f3a4:	00008067          	ret

8000f3a8 <sem_init>:
8000f3a8:	00050c63          	beqz	a0,8000f3c0 <sem_init+0x18>
8000f3ac:	00b52023          	sw	a1,0(a0)
8000f3b0:	00052223          	sw	zero,4(a0)
8000f3b4:	00052423          	sw	zero,8(a0)
8000f3b8:	00000513          	li	a0,0
8000f3bc:	00008067          	ret
8000f3c0:	00200513          	li	a0,2
8000f3c4:	00008067          	ret

8000f3c8 <sem_wait>:
8000f3c8:	0a050663          	beqz	a0,8000f474 <sem_wait+0xac>
8000f3cc:	fe010113          	addi	sp,sp,-32
8000f3d0:	00912a23          	sw	s1,20(sp)
8000f3d4:	800124b7          	lui	s1,0x80012
8000f3d8:	8644a783          	lw	a5,-1948(s1) # 80011864 <active_task>
8000f3dc:	00112e23          	sw	ra,28(sp)
8000f3e0:	06078a63          	beqz	a5,8000f454 <sem_wait+0x8c>
8000f3e4:	00812c23          	sw	s0,24(sp)
8000f3e8:	00050413          	mv	s0,a0
8000f3ec:	d9df00ef          	jal	80000188 <disable>
8000f3f0:	00042783          	lw	a5,0(s0)
8000f3f4:	04079a63          	bnez	a5,8000f448 <sem_wait+0x80>
8000f3f8:	8644a783          	lw	a5,-1948(s1)
8000f3fc:	00442703          	lw	a4,4(s0)
8000f400:	00600693          	li	a3,6
8000f404:	00d79023          	sh	a3,0(a5)
8000f408:	06070063          	beqz	a4,8000f468 <sem_wait+0xa0>
8000f40c:	00842703          	lw	a4,8(s0)
8000f410:	0407a223          	sw	zero,68(a5)
8000f414:	04f72223          	sw	a5,68(a4)
8000f418:	00f42423          	sw	a5,8(s0)
8000f41c:	00a12623          	sw	a0,12(sp)
8000f420:	d71f00ef          	jal	80000190 <restore>
8000f424:	ca9fe0ef          	jal	8000e0cc <resched>
8000f428:	00c12503          	lw	a0,12(sp)
8000f42c:	d65f00ef          	jal	80000190 <restore>
8000f430:	01c12083          	lw	ra,28(sp)
8000f434:	01812403          	lw	s0,24(sp)
8000f438:	01412483          	lw	s1,20(sp)
8000f43c:	00000513          	li	a0,0
8000f440:	02010113          	addi	sp,sp,32
8000f444:	00008067          	ret
8000f448:	fff78793          	addi	a5,a5,-1
8000f44c:	00f42023          	sw	a5,0(s0)
8000f450:	fddff06f          	j	8000f42c <sem_wait+0x64>
8000f454:	01c12083          	lw	ra,28(sp)
8000f458:	01412483          	lw	s1,20(sp)
8000f45c:	00200513          	li	a0,2
8000f460:	02010113          	addi	sp,sp,32
8000f464:	00008067          	ret
8000f468:	0407a223          	sw	zero,68(a5)
8000f46c:	00f42223          	sw	a5,4(s0)
8000f470:	fa9ff06f          	j	8000f418 <sem_wait+0x50>
8000f474:	00200513          	li	a0,2
8000f478:	00008067          	ret

8000f47c <sem_signaln>:
8000f47c:	0c050263          	beqz	a0,8000f540 <sem_signaln+0xc4>
8000f480:	ff010113          	addi	sp,sp,-16
8000f484:	00812423          	sw	s0,8(sp)
8000f488:	00912223          	sw	s1,4(sp)
8000f48c:	00112623          	sw	ra,12(sp)
8000f490:	00050493          	mv	s1,a0
8000f494:	00058413          	mv	s0,a1
8000f498:	00200513          	li	a0,2
8000f49c:	06058e63          	beqz	a1,8000f518 <sem_signaln+0x9c>
8000f4a0:	800127b7          	lui	a5,0x80012
8000f4a4:	8647a783          	lw	a5,-1948(a5) # 80011864 <active_task>
8000f4a8:	06078863          	beqz	a5,8000f518 <sem_signaln+0x9c>
8000f4ac:	cddf00ef          	jal	80000188 <disable>
8000f4b0:	04805863          	blez	s0,8000f500 <sem_signaln+0x84>
8000f4b4:	0044a783          	lw	a5,4(s1)
8000f4b8:	800126b7          	lui	a3,0x80012
8000f4bc:	00200593          	li	a1,2
8000f4c0:	85c68693          	addi	a3,a3,-1956 # 8001185c <ready_queue>
8000f4c4:	02078e63          	beqz	a5,8000f500 <sem_signaln+0x84>
8000f4c8:	0447a703          	lw	a4,68(a5)
8000f4cc:	00e4a223          	sw	a4,4(s1)
8000f4d0:	06070463          	beqz	a4,8000f538 <sem_signaln+0xbc>
8000f4d4:	0006a603          	lw	a2,0(a3)
8000f4d8:	00b79023          	sh	a1,0(a5)
8000f4dc:	04060863          	beqz	a2,8000f52c <sem_signaln+0xb0>
8000f4e0:	0046a603          	lw	a2,4(a3)
8000f4e4:	0407a223          	sw	zero,68(a5)
8000f4e8:	04f62223          	sw	a5,68(a2)
8000f4ec:	00f6a223          	sw	a5,4(a3)
8000f4f0:	fff40413          	addi	s0,s0,-1
8000f4f4:	00040663          	beqz	s0,8000f500 <sem_signaln+0x84>
8000f4f8:	00070793          	mv	a5,a4
8000f4fc:	fc0796e3          	bnez	a5,8000f4c8 <sem_signaln+0x4c>
8000f500:	0004a783          	lw	a5,0(s1)
8000f504:	008787b3          	add	a5,a5,s0
8000f508:	00f4a023          	sw	a5,0(s1)
8000f50c:	c85f00ef          	jal	80000190 <restore>
8000f510:	bbdfe0ef          	jal	8000e0cc <resched>
8000f514:	00000513          	li	a0,0
8000f518:	00c12083          	lw	ra,12(sp)
8000f51c:	00812403          	lw	s0,8(sp)
8000f520:	00412483          	lw	s1,4(sp)
8000f524:	01010113          	addi	sp,sp,16
8000f528:	00008067          	ret
8000f52c:	0407a223          	sw	zero,68(a5)
8000f530:	00f6a023          	sw	a5,0(a3)
8000f534:	fb9ff06f          	j	8000f4ec <sem_signaln+0x70>
8000f538:	0004a423          	sw	zero,8(s1)
8000f53c:	f99ff06f          	j	8000f4d4 <sem_signaln+0x58>
8000f540:	00200513          	li	a0,2
8000f544:	00008067          	ret

8000f548 <sem_signal>:
8000f548:	08050c63          	beqz	a0,8000f5e0 <sem_signal+0x98>
8000f54c:	800127b7          	lui	a5,0x80012
8000f550:	8647a783          	lw	a5,-1948(a5) # 80011864 <active_task>
8000f554:	08078663          	beqz	a5,8000f5e0 <sem_signal+0x98>
8000f558:	ff010113          	addi	sp,sp,-16
8000f55c:	00812423          	sw	s0,8(sp)
8000f560:	00912223          	sw	s1,4(sp)
8000f564:	00050413          	mv	s0,a0
8000f568:	00112623          	sw	ra,12(sp)
8000f56c:	c1df00ef          	jal	80000188 <disable>
8000f570:	00442783          	lw	a5,4(s0)
8000f574:	00050493          	mv	s1,a0
8000f578:	08078e63          	beqz	a5,8000f614 <sem_signal+0xcc>
8000f57c:	0447a703          	lw	a4,68(a5)
8000f580:	00e42223          	sw	a4,4(s0)
8000f584:	06070863          	beqz	a4,8000f5f4 <sem_signal+0xac>
8000f588:	80012737          	lui	a4,0x80012
8000f58c:	85c70713          	addi	a4,a4,-1956 # 8001185c <ready_queue>
8000f590:	00072683          	lw	a3,0(a4)
8000f594:	00200613          	li	a2,2
8000f598:	00c79023          	sh	a2,0(a5)
8000f59c:	04068663          	beqz	a3,8000f5e8 <sem_signal+0xa0>
8000f5a0:	00472683          	lw	a3,4(a4)
8000f5a4:	0407a223          	sw	zero,68(a5)
8000f5a8:	04f6a223          	sw	a5,68(a3)
8000f5ac:	00048513          	mv	a0,s1
8000f5b0:	00f72223          	sw	a5,4(a4)
8000f5b4:	bddf00ef          	jal	80000190 <restore>
8000f5b8:	b15fe0ef          	jal	8000e0cc <resched>
8000f5bc:	00048513          	mv	a0,s1
8000f5c0:	bd1f00ef          	jal	80000190 <restore>
8000f5c4:	b09fe0ef          	jal	8000e0cc <resched>
8000f5c8:	00c12083          	lw	ra,12(sp)
8000f5cc:	00812403          	lw	s0,8(sp)
8000f5d0:	00412483          	lw	s1,4(sp)
8000f5d4:	00000513          	li	a0,0
8000f5d8:	01010113          	addi	sp,sp,16
8000f5dc:	00008067          	ret
8000f5e0:	00200513          	li	a0,2
8000f5e4:	00008067          	ret
8000f5e8:	0407a223          	sw	zero,68(a5)
8000f5ec:	00f72023          	sw	a5,0(a4)
8000f5f0:	fbdff06f          	j	8000f5ac <sem_signal+0x64>
8000f5f4:	80012737          	lui	a4,0x80012
8000f5f8:	85c70713          	addi	a4,a4,-1956 # 8001185c <ready_queue>
8000f5fc:	00072683          	lw	a3,0(a4)
8000f600:	00042423          	sw	zero,8(s0)
8000f604:	00200613          	li	a2,2
8000f608:	00c79023          	sh	a2,0(a5)
8000f60c:	f8069ae3          	bnez	a3,8000f5a0 <sem_signal+0x58>
8000f610:	fd9ff06f          	j	8000f5e8 <sem_signal+0xa0>
8000f614:	00042783          	lw	a5,0(s0)
8000f618:	00178793          	addi	a5,a5,1
8000f61c:	00f42023          	sw	a5,0(s0)
8000f620:	f9dff06f          	j	8000f5bc <sem_signal+0x74>

8000f624 <sem_count>:
8000f624:	ff010113          	addi	sp,sp,-16
8000f628:	00112623          	sw	ra,12(sp)
8000f62c:	00812423          	sw	s0,8(sp)
8000f630:	02050463          	beqz	a0,8000f658 <sem_count+0x34>
8000f634:	00050413          	mv	s0,a0
8000f638:	b51f00ef          	jal	80000188 <disable>
8000f63c:	00042403          	lw	s0,0(s0)
8000f640:	b51f00ef          	jal	80000190 <restore>
8000f644:	00c12083          	lw	ra,12(sp)
8000f648:	00040513          	mv	a0,s0
8000f64c:	00812403          	lw	s0,8(sp)
8000f650:	01010113          	addi	sp,sp,16
8000f654:	00008067          	ret
8000f658:	00200413          	li	s0,2
8000f65c:	00c12083          	lw	ra,12(sp)
8000f660:	00040513          	mv	a0,s0
8000f664:	00812403          	lw	s0,8(sp)
8000f668:	01010113          	addi	sp,sp,16
8000f66c:	00008067          	ret

8000f670 <setupStack>:
8000f670:	00800793          	li	a5,8
8000f674:	00d7f863          	bgeu	a5,a3,8000f684 <setupStack+0x14>
8000f678:	ff868793          	addi	a5,a3,-8
8000f67c:	00279793          	slli	a5,a5,0x2
8000f680:	40f50533          	sub	a0,a0,a5
8000f684:	fa450513          	addi	a0,a0,-92
8000f688:	00f57793          	andi	a5,a0,15
8000f68c:	00078863          	beqz	a5,8000f69c <setupStack+0x2c>
8000f690:	fff50513          	addi	a0,a0,-1
8000f694:	00f57793          	andi	a5,a0,15
8000f698:	fe079ce3          	bnez	a5,8000f690 <setupStack+0x20>
8000f69c:	000027b7          	lui	a5,0x2
8000f6a0:	88878793          	addi	a5,a5,-1912 # 1888 <__stack_size-0x778>
8000f6a4:	00c52223          	sw	a2,4(a0)
8000f6a8:	00f52423          	sw	a5,8(a0)
8000f6ac:	00b52023          	sw	a1,0(a0)
8000f6b0:	00c50793          	addi	a5,a0,12
8000f6b4:	03c50613          	addi	a2,a0,60
8000f6b8:	0007a023          	sw	zero,0(a5)
8000f6bc:	00478793          	addi	a5,a5,4
8000f6c0:	fec79ce3          	bne	a5,a2,8000f6b8 <setupStack+0x48>
8000f6c4:	04068863          	beqz	a3,8000f714 <setupStack+0xa4>
8000f6c8:	00269593          	slli	a1,a3,0x2
8000f6cc:	00b705b3          	add	a1,a4,a1
8000f6d0:	00072603          	lw	a2,0(a4)
8000f6d4:	00470713          	addi	a4,a4,4
8000f6d8:	00478793          	addi	a5,a5,4
8000f6dc:	fec7ae23          	sw	a2,-4(a5)
8000f6e0:	feb718e3          	bne	a4,a1,8000f6d0 <setupStack+0x60>
8000f6e4:	00f68693          	addi	a3,a3,15
8000f6e8:	01600793          	li	a5,22
8000f6ec:	02d7e263          	bltu	a5,a3,8000f710 <setupStack+0xa0>
8000f6f0:	00269793          	slli	a5,a3,0x2
8000f6f4:	00f507b3          	add	a5,a0,a5
8000f6f8:	01700713          	li	a4,23
8000f6fc:	0007a023          	sw	zero,0(a5)
8000f700:	00168693          	addi	a3,a3,1
8000f704:	00478793          	addi	a5,a5,4
8000f708:	fee69ae3          	bne	a3,a4,8000f6fc <setupStack+0x8c>
8000f70c:	00008067          	ret
8000f710:	00008067          	ret
8000f714:	00f00693          	li	a3,15
8000f718:	fd9ff06f          	j	8000f6f0 <setupStack+0x80>

8000f71c <sys_rewindDir>:
8000f71c:	00000513          	li	a0,0
8000f720:	00008067          	ret

8000f724 <sys_seekDir>:
8000f724:	00000513          	li	a0,0
8000f728:	00008067          	ret

8000f72c <sys_open>:
8000f72c:	00058613          	mv	a2,a1
8000f730:	00050593          	mv	a1,a0
8000f734:	01c00513          	li	a0,28
8000f738:	8e5f006f          	j	8000001c <__syscall>

8000f73c <sys_exist>:
8000f73c:	00050593          	mv	a1,a0
8000f740:	01800513          	li	a0,24
8000f744:	8d9f006f          	j	8000001c <__syscall>

8000f748 <sys_write>:
8000f748:	00060693          	mv	a3,a2
8000f74c:	00058613          	mv	a2,a1
8000f750:	00050593          	mv	a1,a0
8000f754:	01f00513          	li	a0,31
8000f758:	8c5f006f          	j	8000001c <__syscall>

8000f75c <sys_read>:
8000f75c:	00060693          	mv	a3,a2
8000f760:	00058613          	mv	a2,a1
8000f764:	00050593          	mv	a1,a0
8000f768:	01e00513          	li	a0,30
8000f76c:	8b1f006f          	j	8000001c <__syscall>

8000f770 <sys_close>:
8000f770:	00050593          	mv	a1,a0
8000f774:	02000513          	li	a0,32
8000f778:	8a5f006f          	j	8000001c <__syscall>

8000f77c <sys_seek>:
8000f77c:	00060693          	mv	a3,a2
8000f780:	00058613          	mv	a2,a1
8000f784:	00050593          	mv	a1,a0
8000f788:	01d00513          	li	a0,29
8000f78c:	891f006f          	j	8000001c <__syscall>

8000f790 <sys_tell>:
8000f790:	00050593          	mv	a1,a0
8000f794:	02100513          	li	a0,33
8000f798:	885f006f          	j	8000001c <__syscall>

8000f79c <sys_rewind>:
8000f79c:	00050593          	mv	a1,a0
8000f7a0:	02200513          	li	a0,34
8000f7a4:	879f006f          	j	8000001c <__syscall>

8000f7a8 <sys_truncate>:
8000f7a8:	00058613          	mv	a2,a1
8000f7ac:	00050593          	mv	a1,a0
8000f7b0:	02300513          	li	a0,35
8000f7b4:	869f006f          	j	8000001c <__syscall>

8000f7b8 <sys_size>:
8000f7b8:	00050593          	mv	a1,a0
8000f7bc:	02400513          	li	a0,36
8000f7c0:	85df006f          	j	8000001c <__syscall>

8000f7c4 <sys_available>:
8000f7c4:	00050593          	mv	a1,a0
8000f7c8:	02500513          	li	a0,37
8000f7cc:	851f006f          	j	8000001c <__syscall>

8000f7d0 <sys_mkdir>:
8000f7d0:	00050593          	mv	a1,a0
8000f7d4:	02600513          	li	a0,38
8000f7d8:	845f006f          	j	8000001c <__syscall>

8000f7dc <sys_openDir>:
8000f7dc:	00050593          	mv	a1,a0
8000f7e0:	02800513          	li	a0,40
8000f7e4:	839f006f          	j	8000001c <__syscall>

8000f7e8 <sys_closeDir>:
8000f7e8:	00050593          	mv	a1,a0
8000f7ec:	03000513          	li	a0,48
8000f7f0:	82df006f          	j	8000001c <__syscall>

8000f7f4 <sys_readDir>:
8000f7f4:	00058613          	mv	a2,a1
8000f7f8:	00050593          	mv	a1,a0
8000f7fc:	02900513          	li	a0,41
8000f800:	81df006f          	j	8000001c <__syscall>

8000f804 <sys_format>:
8000f804:	00058613          	mv	a2,a1
8000f808:	00050593          	mv	a1,a0
8000f80c:	02c00513          	li	a0,44
8000f810:	80df006f          	j	8000001c <__syscall>

8000f814 <sys_mount>:
8000f814:	00058613          	mv	a2,a1
8000f818:	00050593          	mv	a1,a0
8000f81c:	02d00513          	li	a0,45
8000f820:	ffcf006f          	j	8000001c <__syscall>

8000f824 <sys_unmount>:
8000f824:	00050593          	mv	a1,a0
8000f828:	02e00513          	li	a0,46
8000f82c:	ff0f006f          	j	8000001c <__syscall>

8000f830 <sys_remove>:
8000f830:	00050593          	mv	a1,a0
8000f834:	02a00513          	li	a0,42
8000f838:	fe4f006f          	j	8000001c <__syscall>

8000f83c <sys_rename>:
8000f83c:	00058613          	mv	a2,a1
8000f840:	00050593          	mv	a1,a0
8000f844:	02b00513          	li	a0,43
8000f848:	fd4f006f          	j	8000001c <__syscall>

8000f84c <sys_free>:
8000f84c:	02f00513          	li	a0,47
8000f850:	fccf006f          	j	8000001c <__syscall>

8000f854 <sys_sleep>:
8000f854:	00050593          	mv	a1,a0
8000f858:	00c00513          	li	a0,12
8000f85c:	fc0f006f          	j	8000001c <__syscall>

8000f860 <sys_kill>:
8000f860:	00050593          	mv	a1,a0
8000f864:	00a00513          	li	a0,10
8000f868:	fb4f006f          	j	8000001c <__syscall>

8000f86c <sys_getpid>:
8000f86c:	01700513          	li	a0,23
8000f870:	facf006f          	j	8000001c <__syscall>

8000f874 <sys_yield>:
8000f874:	03d00513          	li	a0,61
8000f878:	fa4f006f          	j	8000001c <__syscall>

8000f87c <sys_ready>:
8000f87c:	00050593          	mv	a1,a0
8000f880:	00b00513          	li	a0,11
8000f884:	f98f006f          	j	8000001c <__syscall>

8000f888 <sys_full_path>:
8000f888:	00050593          	mv	a1,a0
8000f88c:	03e00513          	li	a0,62
8000f890:	f8cf006f          	j	8000001c <__syscall>

8000f894 <sys_update_path>:
8000f894:	03f00513          	li	a0,63
8000f898:	f84f006f          	j	8000001c <__syscall>

8000f89c <sys_malloc>:
8000f89c:	00050593          	mv	a1,a0
8000f8a0:	00e00513          	li	a0,14
8000f8a4:	f78f006f          	j	8000001c <__syscall>

8000f8a8 <sys_mfree>:
8000f8a8:	00050593          	mv	a1,a0
8000f8ac:	00d00513          	li	a0,13
8000f8b0:	f6cf006f          	j	8000001c <__syscall>

8000f8b4 <sys_putc>:
8000f8b4:	00058613          	mv	a2,a1
8000f8b8:	00050593          	mv	a1,a0
8000f8bc:	00100513          	li	a0,1
8000f8c0:	f5cf006f          	j	8000001c <__syscall>

8000f8c4 <sys_puts>:
8000f8c4:	00060693          	mv	a3,a2
8000f8c8:	00058613          	mv	a2,a1
8000f8cc:	00050593          	mv	a1,a0
8000f8d0:	00200513          	li	a0,2
8000f8d4:	f48f006f          	j	8000001c <__syscall>

8000f8d8 <sys_struct_task>:
8000f8d8:	00050593          	mv	a1,a0
8000f8dc:	03a00513          	li	a0,58
8000f8e0:	f3cf006f          	j	8000001c <__syscall>

8000f8e4 <sys_get_path>:
8000f8e4:	04000513          	li	a0,64
8000f8e8:	f34f006f          	j	8000001c <__syscall>

8000f8ec <sys_cd>:
8000f8ec:	00050593          	mv	a1,a0
8000f8f0:	04100513          	li	a0,65
8000f8f4:	f28f006f          	j	8000001c <__syscall>

8000f8f8 <sys_elf_execve>:
8000f8f8:	00058613          	mv	a2,a1
8000f8fc:	00050593          	mv	a1,a0
8000f900:	03b00513          	li	a0,59
8000f904:	f18f006f          	j	8000001c <__syscall>

8000f908 <sys_create>:
8000f908:	00058613          	mv	a2,a1
8000f90c:	00050593          	mv	a1,a0
8000f910:	00900513          	li	a0,9
8000f914:	f08f006f          	j	8000001c <__syscall>

8000f918 <sys_free_heap>:
8000f918:	01600513          	li	a0,22
8000f91c:	f00f006f          	j	8000001c <__syscall>

8000f920 <sys_tellDir>:
8000f920:	00000513          	li	a0,0
8000f924:	00008067          	ret

8000f928 <sys_js0n>:
8000f928:	00070793          	mv	a5,a4
8000f92c:	00068713          	mv	a4,a3
8000f930:	00060693          	mv	a3,a2
8000f934:	00058613          	mv	a2,a1
8000f938:	00050593          	mv	a1,a0
8000f93c:	04200513          	li	a0,66
8000f940:	edcf006f          	j	8000001c <__syscall>

8000f944 <syscall_init>:
8000f944:	80012737          	lui	a4,0x80012
8000f948:	86a72423          	sw	a0,-1944(a4) # 80011868 <sys>
8000f94c:	8000f737          	lui	a4,0x8000f
8000f950:	73c70713          	addi	a4,a4,1852 # 8000f73c <sys_exist>
8000f954:	06e52023          	sw	a4,96(a0)
8000f958:	8000f737          	lui	a4,0x8000f
8000f95c:	72c70713          	addi	a4,a4,1836 # 8000f72c <sys_open>
8000f960:	00e52023          	sw	a4,0(a0)
8000f964:	8000f737          	lui	a4,0x8000f
8000f968:	74870713          	addi	a4,a4,1864 # 8000f748 <sys_write>
8000f96c:	00e52223          	sw	a4,4(a0)
8000f970:	8000f737          	lui	a4,0x8000f
8000f974:	75c70713          	addi	a4,a4,1884 # 8000f75c <sys_read>
8000f978:	00e52423          	sw	a4,8(a0)
8000f97c:	8000f737          	lui	a4,0x8000f
8000f980:	77070713          	addi	a4,a4,1904 # 8000f770 <sys_close>
8000f984:	00e52623          	sw	a4,12(a0)
8000f988:	8000f737          	lui	a4,0x8000f
8000f98c:	77c70713          	addi	a4,a4,1916 # 8000f77c <sys_seek>
8000f990:	00e52823          	sw	a4,16(a0)
8000f994:	8000f737          	lui	a4,0x8000f
8000f998:	79070713          	addi	a4,a4,1936 # 8000f790 <sys_tell>
8000f99c:	00e52a23          	sw	a4,20(a0)
8000f9a0:	8000f737          	lui	a4,0x8000f
8000f9a4:	79c70713          	addi	a4,a4,1948 # 8000f79c <sys_rewind>
8000f9a8:	00e52c23          	sw	a4,24(a0)
8000f9ac:	8000f737          	lui	a4,0x8000f
8000f9b0:	7a870713          	addi	a4,a4,1960 # 8000f7a8 <sys_truncate>
8000f9b4:	00e52e23          	sw	a4,28(a0)
8000f9b8:	8000f737          	lui	a4,0x8000f
8000f9bc:	7b870713          	addi	a4,a4,1976 # 8000f7b8 <sys_size>
8000f9c0:	02e52023          	sw	a4,32(a0)
8000f9c4:	8000f737          	lui	a4,0x8000f
8000f9c8:	7c470713          	addi	a4,a4,1988 # 8000f7c4 <sys_available>
8000f9cc:	02e52223          	sw	a4,36(a0)
8000f9d0:	8000f737          	lui	a4,0x8000f
8000f9d4:	7d070713          	addi	a4,a4,2000 # 8000f7d0 <sys_mkdir>
8000f9d8:	02e52423          	sw	a4,40(a0)
8000f9dc:	8000f737          	lui	a4,0x8000f
8000f9e0:	7dc70713          	addi	a4,a4,2012 # 8000f7dc <sys_openDir>
8000f9e4:	02e52623          	sw	a4,44(a0)
8000f9e8:	8000f737          	lui	a4,0x8000f
8000f9ec:	7e870713          	addi	a4,a4,2024 # 8000f7e8 <sys_closeDir>
8000f9f0:	02e52823          	sw	a4,48(a0)
8000f9f4:	8000f737          	lui	a4,0x8000f
8000f9f8:	7f470713          	addi	a4,a4,2036 # 8000f7f4 <sys_readDir>
8000f9fc:	02e52a23          	sw	a4,52(a0)
8000fa00:	8000f737          	lui	a4,0x8000f
8000fa04:	71c70713          	addi	a4,a4,1820 # 8000f71c <sys_rewindDir>
8000fa08:	02e52c23          	sw	a4,56(a0)
8000fa0c:	80010737          	lui	a4,0x80010
8000fa10:	92070713          	addi	a4,a4,-1760 # 8000f920 <sys_tellDir>
8000fa14:	02e52e23          	sw	a4,60(a0)
8000fa18:	8000f737          	lui	a4,0x8000f
8000fa1c:	72470713          	addi	a4,a4,1828 # 8000f724 <sys_seekDir>
8000fa20:	04e52023          	sw	a4,64(a0)
8000fa24:	80010737          	lui	a4,0x80010
8000fa28:	80470713          	addi	a4,a4,-2044 # 8000f804 <sys_format>
8000fa2c:	04e52223          	sw	a4,68(a0)
8000fa30:	80010737          	lui	a4,0x80010
8000fa34:	81470713          	addi	a4,a4,-2028 # 8000f814 <sys_mount>
8000fa38:	04e52423          	sw	a4,72(a0)
8000fa3c:	80010737          	lui	a4,0x80010
8000fa40:	82470713          	addi	a4,a4,-2012 # 8000f824 <sys_unmount>
8000fa44:	04e52623          	sw	a4,76(a0)
8000fa48:	80010737          	lui	a4,0x80010
8000fa4c:	83070713          	addi	a4,a4,-2000 # 8000f830 <sys_remove>
8000fa50:	04e52823          	sw	a4,80(a0)
8000fa54:	80010737          	lui	a4,0x80010
8000fa58:	83c70713          	addi	a4,a4,-1988 # 8000f83c <sys_rename>
8000fa5c:	04e52a23          	sw	a4,84(a0)
8000fa60:	80010737          	lui	a4,0x80010
8000fa64:	84c70713          	addi	a4,a4,-1972 # 8000f84c <sys_free>
8000fa68:	04e52c23          	sw	a4,88(a0)
8000fa6c:	80010737          	lui	a4,0x80010
8000fa70:	85470713          	addi	a4,a4,-1964 # 8000f854 <sys_sleep>
8000fa74:	06e52223          	sw	a4,100(a0)
8000fa78:	80010737          	lui	a4,0x80010
8000fa7c:	86070713          	addi	a4,a4,-1952 # 8000f860 <sys_kill>
8000fa80:	06e52423          	sw	a4,104(a0)
8000fa84:	80010737          	lui	a4,0x80010
8000fa88:	86c70713          	addi	a4,a4,-1940 # 8000f86c <sys_getpid>
8000fa8c:	06e52623          	sw	a4,108(a0)
8000fa90:	80010737          	lui	a4,0x80010
8000fa94:	87470713          	addi	a4,a4,-1932 # 8000f874 <sys_yield>
8000fa98:	06e52823          	sw	a4,112(a0)
8000fa9c:	80010737          	lui	a4,0x80010
8000faa0:	87c70713          	addi	a4,a4,-1924 # 8000f87c <sys_ready>
8000faa4:	06e52a23          	sw	a4,116(a0)
8000faa8:	80010737          	lui	a4,0x80010
8000faac:	8b470713          	addi	a4,a4,-1868 # 8000f8b4 <sys_putc>
8000fab0:	06e52e23          	sw	a4,124(a0)
8000fab4:	80010737          	lui	a4,0x80010
8000fab8:	06052c23          	sw	zero,120(a0)
8000fabc:	8c470713          	addi	a4,a4,-1852 # 8000f8c4 <sys_puts>
8000fac0:	08e52023          	sw	a4,128(a0)
8000fac4:	80010737          	lui	a4,0x80010
8000fac8:	00050793          	mv	a5,a0
8000facc:	88870713          	addi	a4,a4,-1912 # 8000f888 <sys_full_path>
8000fad0:	08e7a623          	sw	a4,140(a5)
8000fad4:	80010737          	lui	a4,0x80010
8000fad8:	89470713          	addi	a4,a4,-1900 # 8000f894 <sys_update_path>
8000fadc:	08e7a823          	sw	a4,144(a5)
8000fae0:	80010737          	lui	a4,0x80010
8000fae4:	89c70713          	addi	a4,a4,-1892 # 8000f89c <sys_malloc>
8000fae8:	08e7aa23          	sw	a4,148(a5)
8000faec:	80010737          	lui	a4,0x80010
8000faf0:	8a870713          	addi	a4,a4,-1880 # 8000f8a8 <sys_mfree>
8000faf4:	08e7ac23          	sw	a4,152(a5)
8000faf8:	80010737          	lui	a4,0x80010
8000fafc:	8d870713          	addi	a4,a4,-1832 # 8000f8d8 <sys_struct_task>
8000fb00:	08e7ae23          	sw	a4,156(a5)
8000fb04:	80010737          	lui	a4,0x80010
8000fb08:	8e470713          	addi	a4,a4,-1820 # 8000f8e4 <sys_get_path>
8000fb0c:	0ae7a023          	sw	a4,160(a5)
8000fb10:	80010737          	lui	a4,0x80010
8000fb14:	8ec70713          	addi	a4,a4,-1812 # 8000f8ec <sys_cd>
8000fb18:	0ae7a223          	sw	a4,164(a5)
8000fb1c:	80010737          	lui	a4,0x80010
8000fb20:	8f870713          	addi	a4,a4,-1800 # 8000f8f8 <sys_elf_execve>
8000fb24:	0ae7a623          	sw	a4,172(a5)
8000fb28:	80010737          	lui	a4,0x80010
8000fb2c:	90870713          	addi	a4,a4,-1784 # 8000f908 <sys_create>
8000fb30:	0ae7a823          	sw	a4,176(a5)
8000fb34:	80010737          	lui	a4,0x80010
8000fb38:	91870713          	addi	a4,a4,-1768 # 8000f918 <sys_free_heap>
8000fb3c:	00000513          	li	a0,0
8000fb40:	0807a223          	sw	zero,132(a5)
8000fb44:	0807a423          	sw	zero,136(a5)
8000fb48:	0ae7a423          	sw	a4,168(a5)
8000fb4c:	00008067          	ret

8000fb50 <do_syscall>:
8000fb50:	05052603          	lw	a2,80(a0)
8000fb54:	ff010113          	addi	sp,sp,-16
8000fb58:	00812423          	sw	s0,8(sp)
8000fb5c:	00112623          	sw	ra,12(sp)
8000fb60:	03a00713          	li	a4,58
8000fb64:	03452583          	lw	a1,52(a0)
8000fb68:	00050413          	mv	s0,a0
8000fb6c:	0ac76063          	bltu	a4,a2,8000fc0c <do_syscall+0xbc>
8000fb70:	01b00793          	li	a5,27
8000fb74:	04c7f463          	bgeu	a5,a2,8000fbbc <do_syscall+0x6c>
8000fb78:	fe460513          	addi	a0,a2,-28
8000fb7c:	001ff7b7          	lui	a5,0x1ff
8000fb80:	00100693          	li	a3,1
8000fb84:	00a696b3          	sll	a3,a3,a0
8000fb88:	73f78793          	addi	a5,a5,1855 # 1ff73f <__stack_size+0x1fd73f>
8000fb8c:	00f6f7b3          	and	a5,a3,a5
8000fb90:	04079e63          	bnez	a5,8000fbec <do_syscall+0x9c>
8000fb94:	3fc017b7          	lui	a5,0x3fc01
8000fb98:	80078793          	addi	a5,a5,-2048 # 3fc00800 <__stack_size+0x3fbfe800>
8000fb9c:	00f6f6b3          	and	a3,a3,a5
8000fba0:	04069c63          	bnez	a3,8000fbf8 <do_syscall+0xa8>
8000fba4:	08e60a63          	beq	a2,a4,8000fc38 <do_syscall+0xe8>
8000fba8:	80011537          	lui	a0,0x80011
8000fbac:	00060593          	mv	a1,a2
8000fbb0:	85c50513          	addi	a0,a0,-1956 # 8001085c <_ctype_+0x9f0>
8000fbb4:	d90ff0ef          	jal	8000f144 <kprintf>
8000fbb8:	0340006f          	j	8000fbec <do_syscall+0x9c>
8000fbbc:	01800793          	li	a5,24
8000fbc0:	fec7e4e3          	bltu	a5,a2,8000fba8 <do_syscall+0x58>
8000fbc4:	00070737          	lui	a4,0x70
8000fbc8:	00100793          	li	a5,1
8000fbcc:	00c797b3          	sll	a5,a5,a2
8000fbd0:	1ff70713          	addi	a4,a4,511 # 701ff <__stack_size+0x6e1ff>
8000fbd4:	00e7f733          	and	a4,a5,a4
8000fbd8:	02071063          	bnez	a4,8000fbf8 <do_syscall+0xa8>
8000fbdc:	01408737          	lui	a4,0x1408
8000fbe0:	e0070713          	addi	a4,a4,-512 # 1407e00 <__stack_size+0x1405e00>
8000fbe4:	00e7f7b3          	and	a5,a5,a4
8000fbe8:	fc0780e3          	beqz	a5,8000fba8 <do_syscall+0x58>
8000fbec:	00042783          	lw	a5,0(s0)
8000fbf0:	00478793          	addi	a5,a5,4
8000fbf4:	00f42023          	sw	a5,0(s0)
8000fbf8:	00c12083          	lw	ra,12(sp)
8000fbfc:	00040513          	mv	a0,s0
8000fc00:	00812403          	lw	s0,8(sp)
8000fc04:	01010113          	addi	sp,sp,16
8000fc08:	00008067          	ret
8000fc0c:	03d00793          	li	a5,61
8000fc10:	04f60a63          	beq	a2,a5,8000fc64 <do_syscall+0x114>
8000fc14:	00c7fc63          	bgeu	a5,a2,8000fc2c <do_syscall+0xdc>
8000fc18:	04100793          	li	a5,65
8000fc1c:	fcc7f8e3          	bgeu	a5,a2,8000fbec <do_syscall+0x9c>
8000fc20:	04200793          	li	a5,66
8000fc24:	fcf60ae3          	beq	a2,a5,8000fbf8 <do_syscall+0xa8>
8000fc28:	f81ff06f          	j	8000fba8 <do_syscall+0x58>
8000fc2c:	03b00793          	li	a5,59
8000fc30:	faf60ee3          	beq	a2,a5,8000fbec <do_syscall+0x9c>
8000fc34:	f75ff06f          	j	8000fba8 <do_syscall+0x58>
8000fc38:	00042703          	lw	a4,0(s0)
8000fc3c:	00359793          	slli	a5,a1,0x3
8000fc40:	00b787b3          	add	a5,a5,a1
8000fc44:	800116b7          	lui	a3,0x80011
8000fc48:	00379793          	slli	a5,a5,0x3
8000fc4c:	4e068693          	addi	a3,a3,1248 # 800114e0 <proctab>
8000fc50:	00d787b3          	add	a5,a5,a3
8000fc54:	00470713          	addi	a4,a4,4
8000fc58:	02f42a23          	sw	a5,52(s0)
8000fc5c:	00e42023          	sw	a4,0(s0)
8000fc60:	f99ff06f          	j	8000fbf8 <do_syscall+0xa8>
8000fc64:	8000e7b7          	lui	a5,0x8000e
8000fc68:	0cc78793          	addi	a5,a5,204 # 8000e0cc <resched>
8000fc6c:	00f52023          	sw	a5,0(a0)
8000fc70:	f89ff06f          	j	8000fbf8 <do_syscall+0xa8>

8000fc74 <exception_dump_ctx>:
8000fc74:	fe010113          	addi	sp,sp,-32
8000fc78:	00452683          	lw	a3,4(a0)
8000fc7c:	00852603          	lw	a2,8(a0)
8000fc80:	00052583          	lw	a1,0(a0)
8000fc84:	00912a23          	sw	s1,20(sp)
8000fc88:	00050493          	mv	s1,a0
8000fc8c:	80011537          	lui	a0,0x80011
8000fc90:	87c50513          	addi	a0,a0,-1924 # 8001087c <_ctype_+0xa10>
8000fc94:	00812c23          	sw	s0,24(sp)
8000fc98:	01212823          	sw	s2,16(sp)
8000fc9c:	01312623          	sw	s3,12(sp)
8000fca0:	00112e23          	sw	ra,28(sp)
8000fca4:	00c48493          	addi	s1,s1,12
8000fca8:	c9cff0ef          	jal	8000f144 <kprintf>
8000fcac:	00000413          	li	s0,0
8000fcb0:	800119b7          	lui	s3,0x80011
8000fcb4:	02000913          	li	s2,32
8000fcb8:	0004a603          	lw	a2,0(s1)
8000fcbc:	00040593          	mv	a1,s0
8000fcc0:	8a898513          	addi	a0,s3,-1880 # 800108a8 <_ctype_+0xa3c>
8000fcc4:	00140413          	addi	s0,s0,1
8000fcc8:	c7cff0ef          	jal	8000f144 <kprintf>
8000fccc:	00448493          	addi	s1,s1,4
8000fcd0:	ff2414e3          	bne	s0,s2,8000fcb8 <exception_dump_ctx+0x44>
8000fcd4:	0000006f          	j	8000fcd4 <exception_dump_ctx+0x60>

8000fcd8 <exceptionHandler>:
8000fcd8:	ff010113          	addi	sp,sp,-16
8000fcdc:	00812423          	sw	s0,8(sp)
8000fce0:	00912223          	sw	s1,4(sp)
8000fce4:	00852403          	lw	s0,8(a0)
8000fce8:	00050493          	mv	s1,a0
8000fcec:	00112623          	sw	ra,12(sp)
8000fcf0:	ce0f00ef          	jal	800001d0 <clear_interrupts>
8000fcf4:	0084a783          	lw	a5,8(s1)
8000fcf8:	01441413          	slli	s0,s0,0x14
8000fcfc:	01445413          	srli	s0,s0,0x14
8000fd00:	0207ce63          	bltz	a5,8000fd3c <exceptionHandler+0x64>
8000fd04:	00b00793          	li	a5,11
8000fd08:	0e87e063          	bltu	a5,s0,8000fde8 <exceptionHandler+0x110>
8000fd0c:	80011737          	lui	a4,0x80011
8000fd10:	00241793          	slli	a5,s0,0x2
8000fd14:	d7c70713          	addi	a4,a4,-644 # 80010d7c <cmdtab+0x14c>
8000fd18:	00e787b3          	add	a5,a5,a4
8000fd1c:	0007a783          	lw	a5,0(a5)
8000fd20:	00078067          	jr	a5
8000fd24:	00812403          	lw	s0,8(sp)
8000fd28:	00c12083          	lw	ra,12(sp)
8000fd2c:	00048513          	mv	a0,s1
8000fd30:	00412483          	lw	s1,4(sp)
8000fd34:	01010113          	addi	sp,sp,16
8000fd38:	e19ff06f          	j	8000fb50 <do_syscall>
8000fd3c:	00700793          	li	a5,7
8000fd40:	08f40663          	beq	s0,a5,8000fdcc <exceptionHandler+0xf4>
8000fd44:	00b00793          	li	a5,11
8000fd48:	06f40063          	beq	s0,a5,8000fda8 <exceptionHandler+0xd0>
8000fd4c:	00300793          	li	a5,3
8000fd50:	02f41a63          	bne	s0,a5,8000fd84 <exceptionHandler+0xac>
8000fd54:	80011537          	lui	a0,0x80011
8000fd58:	8b850513          	addi	a0,a0,-1864 # 800108b8 <_ctype_+0xa4c>
8000fd5c:	be8ff0ef          	jal	8000f144 <kprintf>
8000fd60:	0004a783          	lw	a5,0(s1)
8000fd64:	00c12083          	lw	ra,12(sp)
8000fd68:	00812403          	lw	s0,8(sp)
8000fd6c:	00478793          	addi	a5,a5,4
8000fd70:	00f4a023          	sw	a5,0(s1)
8000fd74:	00048513          	mv	a0,s1
8000fd78:	00412483          	lw	s1,4(sp)
8000fd7c:	01010113          	addi	sp,sp,16
8000fd80:	00008067          	ret
8000fd84:	80011537          	lui	a0,0x80011
8000fd88:	8e850513          	addi	a0,a0,-1816 # 800108e8 <_ctype_+0xa7c>
8000fd8c:	bb8ff0ef          	jal	8000f144 <kprintf>
8000fd90:	00c12083          	lw	ra,12(sp)
8000fd94:	00812403          	lw	s0,8(sp)
8000fd98:	00048513          	mv	a0,s1
8000fd9c:	00412483          	lw	s1,4(sp)
8000fda0:	01010113          	addi	sp,sp,16
8000fda4:	00008067          	ret
8000fda8:	80011537          	lui	a0,0x80011
8000fdac:	8d050513          	addi	a0,a0,-1840 # 800108d0 <_ctype_+0xa64>
8000fdb0:	b94ff0ef          	jal	8000f144 <kprintf>
8000fdb4:	00c12083          	lw	ra,12(sp)
8000fdb8:	00812403          	lw	s0,8(sp)
8000fdbc:	00048513          	mv	a0,s1
8000fdc0:	00412483          	lw	s1,4(sp)
8000fdc4:	01010113          	addi	sp,sp,16
8000fdc8:	00008067          	ret
8000fdcc:	844fe0ef          	jal	8000de10 <clkhandler>
8000fdd0:	00c12083          	lw	ra,12(sp)
8000fdd4:	00812403          	lw	s0,8(sp)
8000fdd8:	00048513          	mv	a0,s1
8000fddc:	00412483          	lw	s1,4(sp)
8000fde0:	01010113          	addi	sp,sp,16
8000fde4:	00008067          	ret
8000fde8:	80011537          	lui	a0,0x80011
8000fdec:	00040593          	mv	a1,s0
8000fdf0:	95450513          	addi	a0,a0,-1708 # 80010954 <_ctype_+0xae8>
8000fdf4:	b50ff0ef          	jal	8000f144 <kprintf>
8000fdf8:	00048513          	mv	a0,s1
8000fdfc:	e79ff0ef          	jal	8000fc74 <exception_dump_ctx>
8000fe00:	343025f3          	csrr	a1,mtval
8000fe04:	80011537          	lui	a0,0x80011
8000fe08:	90450513          	addi	a0,a0,-1788 # 80010904 <_ctype_+0xa98>
8000fe0c:	b38ff0ef          	jal	8000f144 <kprintf>
8000fe10:	00048513          	mv	a0,s1
8000fe14:	e61ff0ef          	jal	8000fc74 <exception_dump_ctx>
8000fe18:	80011537          	lui	a0,0x80011
8000fe1c:	91c50513          	addi	a0,a0,-1764 # 8001091c <_ctype_+0xab0>
8000fe20:	b24ff0ef          	jal	8000f144 <kprintf>
8000fe24:	00048513          	mv	a0,s1
8000fe28:	e4dff0ef          	jal	8000fc74 <exception_dump_ctx>
8000fe2c:	80011537          	lui	a0,0x80011
8000fe30:	93450513          	addi	a0,a0,-1740 # 80010934 <_ctype_+0xac8>
8000fe34:	b10ff0ef          	jal	8000f144 <kprintf>
8000fe38:	00048513          	mv	a0,s1
8000fe3c:	e39ff0ef          	jal	8000fc74 <exception_dump_ctx>
8000fe40:	80011537          	lui	a0,0x80011
8000fe44:	94450513          	addi	a0,a0,-1724 # 80010944 <_ctype_+0xad8>
8000fe48:	afcff0ef          	jal	8000f144 <kprintf>
8000fe4c:	00048513          	mv	a0,s1
8000fe50:	e25ff0ef          	jal	8000fc74 <exception_dump_ctx>

8000fe54 <xdone>:
8000fe54:	80011537          	lui	a0,0x80011
8000fe58:	ff010113          	addi	sp,sp,-16
8000fe5c:	97850513          	addi	a0,a0,-1672 # 80010978 <_ctype_+0xb0c>
8000fe60:	00112623          	sw	ra,12(sp)
8000fe64:	ae0ff0ef          	jal	8000f144 <kprintf>
8000fe68:	0000006f          	j	8000fe68 <xdone+0x14>

8000fe6c <_ctype_>:
8000fe6c:	20202000 20202020 08082020 20080808     .         ..... 
8000fe7c:	20202020 20202020 20202020 20202020                     
8000fe8c:	10100820 10101010 10101010 10101010      ...............
8000fe9c:	04040410 04040404 10040404 10101010     ................
8000feac:	41411010 41414141 01010101 01010101     ..AAAAAA........
8000febc:	01010101 01010101 01010101 10101010     ................
8000fecc:	42421010 42424242 02020202 02020202     ..BBBBBB........
8000fedc:	02020202 02020202 02020202 10101010     ................
8000feec:	00000020 33323130 37363534 62613938      ...0123456789ab
8000fefc:	66656463 00000000 33323130 37363534     cdef....01234567
8000ff0c:	42413938 46454443 00000000 6c756e28     89ABCDEF....(nul
8000ff1c:	0000296c 0a0d0920 00000000 33323130     l).. .......0123
8000ff2c:	37363534 42413938 46454443 4a494847     456789ABCDEFGHIJ
8000ff3c:	4e4d4c4b 5251504f 56555453 00595857     KLMNOPQRSTUVWXY.
8000ff4c:	0000002f 0000002e 00002e2e 7474696c     /...........litt
8000ff5c:	7366656c 00000000 00002f2e 002f2e2e     lefs...../..../.
8000ff6c:	20202020 5c2f202f 20205c20 7c5f2020         / /\ \    _|
8000ff7c:	205f7c20 207c2020 2020205c 7c20207c      |_   | \   |  |
8000ff8c:	20207c20 207c207c 00002020 20202020      |  | |   ..    
8000ff9c:	2f5c205c 20202f20 7c202020 20207c20     \ \/ /     | |  
8000ffac:	207c2020 207c5c20 7c20207c 20207c20       |  \| |  | |  
8000ffbc:	207c207c 00002020 5c202020 20205c20     | |   ..   \ \  
8000ffcc:	202f202f 5f5f7c20 7c5f5f20 207c2020     / /  |__ __|  | 
8000ffdc:	207c205c 7c20207c 20207c20 207c207c     \ | |  | |  | | 
8000ffec:	00002020 5f202020 2020205f 205f5f20       ..   __    __ 
8000fffc:	5f5f2020 205f5f5f 5f202020 5f202020       _____    _   _
8001000c:	20202020 2020205f 20205f20 00002020         _    _    ..
8001001c:	2d2d2d2d 2d2d2d2d 2d2d2d2d 2d2d2d2d     ----------------
8001002c:	2d2d2d2d 2d2d2d2d 2d2d2d2d 2d2d2d2d     ----------------
8001003c:	2d2d2d2d 2d2d2d2d 00002d2d 31335b1b     ----------...[31
8001004c:	006d313b 73250a0a 250a7325 73250a73     ;1m...%s%s.%s.%s
8001005c:	0a73250a 250a7325 73250a73 0a73250a     .%s.%s.%s.%s.%s.
8001006c:	250a7325 00000a73 6d305b1b 0000000a     %s.%s....[0m....
8001007c:	20202020 53202020 32334d54 72655620            STM32 Ver
8001008c:	6e6f6973 20796220 696e6144 51206c65     sion by Daniel Q
8001009c:	746e6975 096f7265 00202020 2d202020     uintero.   .   -
800100ac:	2020202d 202d2d20 2d2d2020 202d2d2d     -    --   ----- 
800100bc:	2d202020 2d202020 20202020 2d2d2d20        -   -     ---
800100cc:	2020202d 00002020 2f202020 20202f20     -     ..   / /  
800100dc:	205c205c 20207c20 7c202020 207c2020     \ \  |     |  | 
800100ec:	205c207c 5c20207c 2d2d2020 202f2020     | \ |  \  --  / 
800100fc:	00002020 636c6557 20656d6f 58206f74       ..Welcome to X
8001010c:	21756e69 0000000a 0a0a7325 00000000     inu!....%s......
8001011c:	20687378 00002024 746e7953 65207861     xsh $ ..Syntax e
8001012c:	726f7272 0000000a 6d6d6f63 20646e61     rror....command 
8001013c:	6e207325 6620746f 646e756f 0000000a     %s not found....
8001014c:	6e6e6143 7220746f 72696465 20746365     Cannot redirect 
8001015c:	204f2f49 6220726f 676b6361 6e756f72     I/O or backgroun
8001016c:	20612064 6c697562 0a6e6974 00000000     d a builtin.....
8001017c:	6e6e6143 6320746f 74616572 72702065     Cannot create pr
8001018c:	7365636f 00000a73 6c656853 6c63206c     ocess...Shell cl
8001019c:	6465736f 0000000a 6f626572 0000746f     osed....reboot..
800101ac:	64766564 00706d75 6f686365 00000000     devdump.echo....
800101bc:	74697865 00000000 706c6568 00000000     exit....help....
800101cc:	6c6c696b 00000000 646d656d 00706d75     kill....memdump.
800101dc:	736d656d 00746174 00007370 0000003f     memstat.ps..?...
800101ec:	00006463 0000736c 00746163 706d7564     cd..ls..cat.dump
800101fc:	00000000 69646b6d 00000072 00647770     ....mkdir...pwd.
8001020c:	00006d72 63756f74 00000068 006e7572     rm..touch...run.
8001021c:	6d726f66 00007461 69766544 20206563     format..Device  
8001022c:	4e202020 20656d61 20202020 6f6e694d        Name     Mino
8001023c:	00000a72 2d2d2d2d 2d202d2d 2d2d2d2d     r...------ -----
8001024c:	2d2d2d2d 202d2d2d 2d2d2d2d 00000a2d     ------- -----...
8001025c:	20643425 2d252020 20733231 0a643325     %4d   %-12s %3d.
8001026c:	00000000 00007325 00732520 65682d2d     ....%s.. %s.--he
8001027c:	0000706c 3a657355 0000000a 20732509     lp..Use:.....%s 
8001028c:	6d6f635b 646e616d 00000a5d 63736544     [command]...Desc
8001029c:	74706972 3a6e6f69 0000000a 6f725009     ription:.....Pro
800102ac:	65646976 20612073 7473696c 20666f20     vides a list of 
800102bc:	6c656873 6f63206c 6e616d6d 6f207364     shell commands o
800102cc:	00000a72 6c656809 6e692070 6d726f66     r....help inform
800102dc:	6f697461 6f66206e 20612072 63657073     ation for a spec
800102ec:	63696669 6d6f6320 646e616d 0000000a     ific command....
800102fc:	6974704f 3a736e6f 0000000a 6d6f6309     Options:.....com
8001030c:	646e616d 65707309 69666963 6f632063     mand.specific co
8001031c:	6e616d6d 6f662064 68772072 20686369     mmand for which 
8001032c:	000a6f74 69640909 616c7073 65682079     to....display he
8001033c:	6920706c 726f666e 6974616d 000a6e6f     lp information..
8001034c:	682d2d09 09706c65 70736964 2079616c     .--help.display 
8001035c:	73696874 6c656820 6e612070 78652064     this help and ex
8001036c:	000a7469 203a7325 206f6f74 796e616d     it..%s: too many
8001037c:	67726120 6e656d75 000a7374 20797254      arguments..Try 
8001038c:	20732527 65682d2d 2027706c 20726f66     '%s --help' for 
8001039c:	65726f6d 666e6920 616d726f 6e6f6974     more information
800103ac:	0000000a 203a7325 73206f6e 20686375     ....%s: no such 
800103bc:	6d6d6f63 20646e61 27207361 0a277325     command as '%s'.
800103cc:	00000000 6568730a 63206c6c 616d6d6f     .....shell comma
800103dc:	2073646e 3a657261 00000a0a 67617355     nds are:....Usag
800103ec:	25203a65 49502073 000a0a44 72657409     e: %s PID....ter
800103fc:	616e696d 20736574 72702061 7365636f     minates a proces
8001040c:	00000a73 44495009 68740920 44492065     s....PID .the ID
8001041c:	20666f20 72702061 7365636f 6f742073      of a process to
8001042c:	72657420 616e696d 000a6574 203a7325      terminate..%s: 
8001043c:	6f636e69 63657272 72612074 656d7567     incorrect argume
8001044c:	000a746e 203a7325 2d6e6f6e 69676964     nt..%s: non-digi
8001045c:	6e692074 6f727020 73736563 0a444920     t in process ID.
8001046c:	00000000 203a7325 6e6e6163 6b20746f     ....%s: cannot k
8001047c:	206c6c69 20656874 6c6c756e 6f727020     ill the null pro
8001048c:	73736563 0000000a 203a7325 6e6e6163     cess....%s: cann
8001049c:	6b20746f 206c6c69 636f7270 20737365     ot kill process 
800104ac:	000a6425 67617355 25203a65 656d2073     %d..Usage: %s me
800104bc:	6d75646d 745b2070 2c747865 61746164     mdump [text,data
800104cc:	7373622c 000a0a5d 3a657355 0a732520     ,bss]...Use: %s.
800104dc:	0000000a 73694409 79616c70 6e692073     .....Displays in
800104ec:	6d726f66 6f697461 6261206e 2074756f     formation about 
800104fc:	6e6e7572 20676e69 636f7270 65737365     running processe
8001050c:	00000a73 682d2d09 09706c65 73696420     s....--help. dis
8001051c:	79616c70 69687420 65682073 6120706c     play this help a
8001052c:	6520646e 0a746978 00000000 63617453     nd exit.....Stac
8001053c:	6953206b 0000657a 63617453 7450206b     k Size..Stack Pt
8001054c:	00000072 63617453 6142206b 00006573     r...Stack Base..
8001055c:	74617453 00000065 656d614e 00000000     State...Name....
8001056c:	00646950 20733325 36312d25 35252073     Pid.%3s %-16s %5
8001057c:	31252073 25207330 7330312d 30312520     s %10s %-10s %10
8001058c:	00000a73 2d2d2d2d 0000002d 2d2d2d2d     s...-----...----
8001059c:	2d2d2d2d 2d2d2d2d 2d2d2d2d 00000000     ------------....
800105ac:	002d2d2d 20643325 36312d25 73252073     ---.%3d %-16s %s
800105bc:	25783020 20583830 30257830 25205838      0x%08X 0x%08X %
800105cc:	000a6438 65657266 00000020 72727563     8d..free ...curr
800105dc:	00000020 64616572 00000079 76636572      ...ready...recv
800105ec:	00000020 65656c73 00000070 70737573      ...sleep...susp
800105fc:	00000020 74696177 00000020 6d697472      ...wait ...rtim
8001060c:	00000065 73252020 69200909 25203a64     e...  %s.. id: %
8001061c:	00000a64 656d616e 63617073 64203a65     d...namespace: d
8001062c:	63697665 616e2065 2520656d 6f742073     evice name %s to
8001063c:	6f6c206f 0a0d676e 00000000 656d616e     o long......name
8001064c:	63617073 63203a65 6f6e6e61 6f6d2074     space: cannot mo
8001065c:	20746e75 69766564 25206563 000a0d64     unt device %d...
8001066c:	534e4f43 00454c4f 4c4c554e 00564544     CONSOLE.NULLDEV.
8001067c:	454d414e 43415053 00000045 6f727265     NAMESPACE...erro
8001068c:	68742072 77656e72 0a732520 00000000     r thrnew %s.....
8001069c:	61666564 20746c75 6c696b2e 2064656c     default .killed 
800106ac:	2d642520 2073252d 000a7325 6c656873      %d--%s %s..shel
800106bc:	0000006c 313a3030 33353a36 00000000     l...00:16:53....
800106cc:	20706553 32203120 00343230 6c697542     Sep  1 2024.Buil
800106dc:	61642064 203a6574 25207325 000a0a73     d date: %s %s...
800106ec:	65657266 6d656d20 3a79726f 0a642520     free memory: %d.
800106fc:	00000000 64303125 74796220 6f207365     ....%10d bytes o
8001070c:	69582066 6320756e 2e65646f 0000000a     f Xinu code.....
8001071c:	20202020 20202020 5b202020 30257830                [0x%0
8001072c:	74205838 7830206f 58383025 00000a5d     8X to 0x%08X]...
8001073c:	64303125 74796220 6f207365 61642066     %10d bytes of da
8001074c:	0a2e6174 00000000 20202020 20202020     ta......        
8001075c:	5b202020 30257830 74205838 7830206f        [0x%08X to 0x
8001076c:	58383025 000a0a5d 6f6c7075 66206461     %08X]...upload f
8001077c:	74612073 30252820 0a297838 00000000     s at (%08x).....
8001078c:	72617473 5f707574 74736574 6f6d203a     startup_test: mo
8001079c:	20746e75 20202020 00000000 4941465b     unt     ....[FAI
800107ac:	000a5d4c 6f727245 6f432072 203a6564     L]..Error Code: 
800107bc:	000a6425 4b4f205b 000a5d20 72617473     %d..[ OK ]..star
800107cc:	5f707574 74736574 7661203a 616c6961     tup_test: availa
800107dc:	20656c62 657a6973 25203d20 79422064     ble size = %d By
800107ec:	0a736574 00000000 20746f6e 69642061     tes.....not a di
800107fc:	74636572 2079726f 00000000 00002f2f     rectory ....//..
8001080c:	73252f20 0000000a 20732520 0a206425      /%s.... %s %d .
8001081c:	00000000 656d6974 6425203a 0000000a     ....time: %d....
8001082c:	6c6c756e 00000070 65646c69 00000000     nullp...ilde....
8001083c:	206e7572 6e69616d 0000000a 00006325     run main....%c..
8001084c:	700d0a0a 63696e61 7325203a 00000a0a     ...panic: %s....
8001085c:	63737973 206c6c61 69206f6e 656c706d     syscall no imple
8001086c:	746e656d 2c782520 0a642520 00000000     ment %x, %d.....
8001087c:	65637845 6f697470 50203a6e 30253d43     Exception: PC=%0
8001088c:	43207838 65737561 2078253d 74617453     8x Cause=%x Stat
8001089c:	253d7375 0a783830 00000000 20474552     us=%08x.....REG 
800108ac:	64322e25 3025203a 000a7838 74666f73     %.2d: %08x..soft
800108bc:	65726177 746e6920 75727265 6f697470     ware interruptio
800108cc:	000a216e 65747865 6c616e72 746e6920     n!..external int
800108dc:	75727265 6f697470 000a216e 6e6b6e75     erruption!..unkn
800108ec:	206e776f 6e797361 78652063 74706563     own async except
800108fc:	216e6f69 0000000a 53554143 41465f45     ion!....CAUSE_FA
8001090c:	5f544c55 43544546 30252048 000a7838     ULT_FETCH %08x..
8001091c:	656c6c49 206c6167 74736e69 74637572     Illegal instruct
8001092c:	216e6f69 0000000a 6c756146 6f6c2074     ion!....Fault lo
8001093c:	0a216461 00000000 6c756146 74732074     ad!.....Fault st
8001094c:	2165726f 0000000a 636e7953 63786520     ore!....Sync exc
8001095c:	69747065 21736e6f 75616320 63206573     eptions! cause c
8001096c:	3a65646f 0a642520 00000000 6c410a0a     ode: %d.......Al
8001097c:	7375206c 70207265 65636f72 73657373     l user processes
8001098c:	76616820 6f632065 656c706d 2e646574      have completed.
8001099c:	00000a0a 8000099c 80000814 80000814     ................
800109ac:	80000814 80000814 80000814 80000814     ................
800109bc:	80000814 80000814 80000814 80000814     ................
800109cc:	80000814 80000814 80000814 80000814     ................
800109dc:	80000814 800009d4 80000814 80000814     ................
800109ec:	80000814 80000814 80000814 80000814     ................
800109fc:	80000814 80000814 80000814 800009e8     ................
80010a0c:	800009fc 80000a4c 80000814 80000818     ....L...........
80010a1c:	80000814 80000adc 80000814 80000814     ................
80010a2c:	80000814 80000814 80000814 80000814     ................
80010a3c:	80000afc 80000814 80000814 80000814     ................
80010a4c:	80000a28 80000814 80000a78 80000814     (.......x.......
80010a5c:	80000814 80000ac8 80001100 80000ecc     ................
80010a6c:	80000ecc 80000ecc 80000ecc 80000ecc     ................
80010a7c:	80000ecc 80000ecc 80001100 80000ecc     ................
80010a8c:	80000ecc 80000ecc 80000ecc 80000ecc     ................
80010a9c:	80000ecc 80000ecc 80000ecc 80000ecc     ................
80010aac:	80000ecc 80000ecc 80001164 80000ecc     ........d.......
80010abc:	80000ecc 80000ecc 80001100 80000ecc     ................
80010acc:	80000ecc 80000ecc 80000ecc 80001170     ............p...
80010adc:	800019e0 800017d8 800017d8 800017d8     ................
80010aec:	800017d8 800017d8 800017d8 800017d8     ................
80010afc:	800017d8 800017d8 800019cc 800019a0     ................
80010b0c:	80001974 800017d8 800017d8 800017d8     t...............
80010b1c:	800017d8 800017d8 800017d8 800017d8     ................
80010b2c:	800017d8 800017d8 800017d8 80001960     ............`...
80010b3c:	800017d8 800017d8 800017d8 8000193c     ............<...
80010b4c:	800017d8 800018ec 800017d8 800017d8     ................
80010b5c:	800018c0 80001f90 80001d90 80001d90     ................
80010b6c:	80001d90 80001d90 80001d90 80001d90     ................
80010b7c:	80001d90 80001d90 80001d90 80001f7c     ............|...
80010b8c:	80001f50 80001f24 80001d90 80001d90     P...$...........
80010b9c:	80001d90 80001d90 80001d90 80001d90     ................
80010bac:	80001d90 80001d90 80001d90 80001d90     ................
80010bbc:	80001f10 80001d90 80001d90 80001d90     ................
80010bcc:	80001eec 80001d90 80001e9c 80001d90     ................
80010bdc:	80001d90 80001e70                       ....p...

80010be4 <defaults.0>:
	...

80010bf0 <rtable.0>:
80010bf0:	00000000 1db71064 3b6e20c8 26d930ac     ....d.... n;.0.&
80010c00:	76dc4190 6b6b51f4 4db26158 5005713c     .A.v.QkkXa.M<q.P
80010c10:	edb88320 f00f9344 d6d6a3e8 cb61b38c      ...D.........a.
80010c20:	9b64c2b0 86d3d2d4 a00ae278 bdbdf21c     ..d.....x.......

80010c30 <cmdtab>:
80010c30:	800101a4 00000000 8000cda4 800101ac     ................
80010c40:	00000000 8000c39c 800101b4 00000001     ................
80010c50:	8000c438 800101bc 00000001 8000c4f0     8...............
80010c60:	800101c4 00000000 8000c500 800101cc     ................
80010c70:	00000001 8000c86c 800101d4 00000000     ....l...........
80010c80:	8000cae4 800101dc 00000001 8000cb54     ............T...
80010c90:	800101e4 00000000 8000cb64 800101e8     ........d.......
80010ca0:	00000000 8000c500 800101ec 00000001     ................
80010cb0:	8000c394 800101f0 00000001 8000cadc     ................
80010cc0:	800101f4 00000000 8000c38c 800101f8     ................
80010cd0:	00000000 8000c430 80010200 00000001     ....0...........
80010ce0:	8000cb5c 80010208 00000001 8000cd9c     \...............
80010cf0:	8001020c 00000001 8000cdac 80010210     ................
80010d00:	00000001 8000cdbc 80010218 00000000     ................
80010d10:	8000cdb4 8001021c 00000000 8000c4f8     ................
80010d20:	800105d0 800105d8 800105e0 800105e8     ................
80010d30:	800105f0 800105f8 80010600 80010608     ................
80010d40:	8000d388 8000d3ec 8000d410 8000d430     ............0...
80010d50:	8000d48c 8000d450 8000d46c 8000d368     ....P...l...h...
80010d60:	800105d0 800105d8 800105e0 800105e8     ................
80010d70:	800105f0 800105f8 80010600 8000fde8     ................
80010d80:	8000fe00 8000fe18 8000fde8 8000fde8     ................
80010d90:	8000fe2c 8000fde8 8000fe40 8000fd24     ,.......@...$...
80010da0:	8000fde8 8000fde8 8000fd24              ........$...
